ARM GAS  /var/folders/0f/x4_g94q9649fs6s33cksjfb00000gn/T//ccuHj80q.s 			page 1


   1              		.cpu cortex-m7
   2              		.arch armv7e-m
   3              		.fpu fpv5-d16
   4              		.eabi_attribute 28, 1
   5              		.eabi_attribute 20, 1
   6              		.eabi_attribute 21, 1
   7              		.eabi_attribute 23, 3
   8              		.eabi_attribute 24, 1
   9              		.eabi_attribute 25, 1
  10              		.eabi_attribute 26, 1
  11              		.eabi_attribute 30, 1
  12              		.eabi_attribute 34, 1
  13              		.eabi_attribute 18, 4
  14              		.file	"freertos.c"
  15              		.text
  16              		.section	.rodata.StartDefaultTask.str1.4,"aMS",%progbits,1
  17              		.align	2
  18              	.LC0:
  19 0000 41542B43 		.ascii	"AT+CWMODE=1\000"
  19      574D4F44 
  19      453D3100 
  20              		.align	2
  21              	.LC1:
  22 000c 41542B43 		.ascii	"AT+CWJAP=\"MEO-EDC8ED\",\"2668EB941B\"\000"
  22      574A4150 
  22      3D224D45 
  22      4F2D4544 
  22      43384544 
  23 002f 00       		.align	2
  24              	.LC2:
  25 0030 41542B43 		.ascii	"AT+CIPSTART=\"TCP\",\"wttr.in\",80\000"
  25      49505354 
  25      4152543D 
  25      22544350 
  25      222C2277 
  26 004f 00       		.align	2
  27              	.LC3:
  28 0050 4F4B00   		.ascii	"OK\000"
  29 0053 00       		.align	2
  30              	.LC4:
  31 0054 41542B43 		.ascii	"AT+CIPSEND=%lu\000"
  31      49505345 
  31      4E443D25 
  31      6C7500
  32 0063 00       		.align	2
  33              	.LC5:
  34 0064 3E00     		.ascii	">\000"
  35 0066 0000     		.align	2
  36              	.LC6:
  37 0068 47455420 		.ascii	"GET /Peniche?format=%C+%t+%w+%h+%m+%o HTTP/1.1\015\012"
  37      2F50656E 
  37      69636865 
  37      3F666F72 
  37      6D61743D 
  38 0098 00       		.ascii	"\000"
  39 0099 000000   		.align	2
  40              	.LC7:
ARM GAS  /var/folders/0f/x4_g94q9649fs6s33cksjfb00000gn/T//ccuHj80q.s 			page 2


  41 009c 486F7374 		.ascii	"Host: wttr.in\015\012\000"
  41      3A207774 
  41      74722E69 
  41      6E0D0A00 
  42              		.align	2
  43              	.LC8:
  44 00ac 55736572 		.ascii	"User-Agent: curl/7.68.0\015\012\000"
  44      2D416765 
  44      6E743A20 
  44      6375726C 
  44      2F372E36 
  45 00c6 0000     		.align	2
  46              	.LC9:
  47 00c8 436F6E6E 		.ascii	"Connection: close\015\012\015\012\000"
  47      65637469 
  47      6F6E3A20 
  47      636C6F73 
  47      650D0A0D 
  48 00de 0000     		.align	2
  49              	.LC10:
  50 00e0 48545450 		.ascii	"HTTP/\000"
  50      2F00
  51 00e6 0000     		.align	2
  52              	.LC11:
  53 00e8 0D0A0D0A 		.ascii	"\015\012\015\012\000"
  53      00
  54 00ed 000000   		.align	2
  55              	.LC12:
  56 00f0 434C4F53 		.ascii	"CLOSED\000"
  56      454400
  57 00f7 00       		.align	2
  58              	.LC13:
  59 00f8 0D0A00   		.ascii	"\015\012\000"
  60              		.section	.text.StartDefaultTask,"ax",%progbits
  61              		.align	1
  62              		.global	StartDefaultTask
  63              		.syntax unified
  64              		.thumb
  65              		.thumb_func
  67              	StartDefaultTask:
  68              		@ args = 0, pretend = 0, frame = 40
  69              		@ frame_needed = 0, uses_anonymous_args = 0
  70 0000 70B5     		push	{r4, r5, r6, lr}
  71 0002 8AB0     		sub	sp, sp, #40
  72 0004 FFF7FEFF 		bl	MX_USB_DEVICE_Init
  73 0008 FFF7FEFF 		bl	ESP8266_Init
  74 000c 4FF4FA60 		mov	r0, #2000
  75 0010 FFF7FEFF 		bl	osDelay
  76 0014 0024     		movs	r4, #0
  77 0016 08E0     		b	.L2
  78              	.L3:
  79 0018 4FF40051 		mov	r1, #8192
  80 001c 5E48     		ldr	r0, .L23
  81 001e FFF7FEFF 		bl	HAL_GPIO_TogglePin
  82 0022 6420     		movs	r0, #100
  83 0024 FFF7FEFF 		bl	osDelay
  84 0028 0134     		adds	r4, r4, #1
ARM GAS  /var/folders/0f/x4_g94q9649fs6s33cksjfb00000gn/T//ccuHj80q.s 			page 3


  85              	.L2:
  86 002a 092C     		cmp	r4, #9
  87 002c F4DD     		ble	.L3
  88 002e 0122     		movs	r2, #1
  89 0030 4FF40051 		mov	r1, #8192
  90 0034 5848     		ldr	r0, .L23
  91 0036 FFF7FEFF 		bl	HAL_GPIO_WritePin
  92 003a 5848     		ldr	r0, .L23+4
  93 003c FFF7FEFF 		bl	ESP8266_SendCommand
  94 0040 4FF4FA70 		mov	r0, #500
  95 0044 FFF7FEFF 		bl	osDelay
  96 0048 5548     		ldr	r0, .L23+8
  97 004a FFF7FEFF 		bl	ESP8266_SendCommand
  98 004e 4FF4FA50 		mov	r0, #8000
  99 0052 FFF7FEFF 		bl	osDelay
 100 0056 03E0     		b	.L4
 101              	.L21:
 102 0058 41F28830 		movw	r0, #5000
 103 005c FFF7FEFF 		bl	osDelay
 104              	.L4:
 105 0060 5048     		ldr	r0, .L23+12
 106 0062 FFF7FEFF 		bl	ESP8266_SendCommand
 107 0066 41F28831 		movw	r1, #5000
 108 006a 4F48     		ldr	r0, .L23+16
 109 006c FFF7FEFF 		bl	ESP8266_WaitFor
 110 0070 0028     		cmp	r0, #0
 111 0072 F1D1     		bne	.L21
 112 0074 02AC     		add	r4, sp, #8
 113 0076 6D22     		movs	r2, #109
 114 0078 4C49     		ldr	r1, .L23+20
 115 007a 2046     		mov	r0, r4
 116 007c FFF7FEFF 		bl	sprintf
 117 0080 2046     		mov	r0, r4
 118 0082 FFF7FEFF 		bl	ESP8266_SendCommand
 119 0086 4FF4FA61 		mov	r1, #2000
 120 008a 4948     		ldr	r0, .L23+24
 121 008c FFF7FEFF 		bl	ESP8266_WaitFor
 122 0090 08B1     		cbz	r0, .L22
 123              	.L7:
 124 0092 0024     		movs	r4, #0
 125 0094 7DE0     		b	.L18
 126              	.L22:
 127 0096 474C     		ldr	r4, .L23+28
 128 0098 6423     		movs	r3, #100
 129 009a 3022     		movs	r2, #48
 130 009c 4649     		ldr	r1, .L23+32
 131 009e 2046     		mov	r0, r4
 132 00a0 FFF7FEFF 		bl	HAL_UART_Transmit
 133 00a4 6423     		movs	r3, #100
 134 00a6 0F22     		movs	r2, #15
 135 00a8 4449     		ldr	r1, .L23+36
 136 00aa 2046     		mov	r0, r4
 137 00ac FFF7FEFF 		bl	HAL_UART_Transmit
 138 00b0 6423     		movs	r3, #100
 139 00b2 1922     		movs	r2, #25
 140 00b4 4249     		ldr	r1, .L23+40
 141 00b6 2046     		mov	r0, r4
ARM GAS  /var/folders/0f/x4_g94q9649fs6s33cksjfb00000gn/T//ccuHj80q.s 			page 4


 142 00b8 FFF7FEFF 		bl	HAL_UART_Transmit
 143 00bc 6423     		movs	r3, #100
 144 00be 1522     		movs	r2, #21
 145 00c0 4049     		ldr	r1, .L23+44
 146 00c2 2046     		mov	r0, r4
 147 00c4 FFF7FEFF 		bl	HAL_UART_Transmit
 148 00c8 FFF7FEFF 		bl	HAL_GetTick
 149 00cc 0446     		mov	r4, r0
 150 00ce 0025     		movs	r5, #0
 151 00d0 02E0     		b	.L8
 152              	.L9:
 153 00d2 0120     		movs	r0, #1
 154 00d4 FFF7FEFF 		bl	osDelay
 155              	.L8:
 156 00d8 FFF7FEFF 		bl	HAL_GetTick
 157 00dc 031B     		subs	r3, r0, r4
 158 00de 41F28732 		movw	r2, #4999
 159 00e2 9342     		cmp	r3, r2
 160 00e4 14D8     		bhi	.L11
 161 00e6 40F2FE73 		movw	r3, #2046
 162 00ea 9D42     		cmp	r5, r3
 163 00ec 10D8     		bhi	.L11
 164 00ee 0121     		movs	r1, #1
 165 00f0 0DF10700 		add	r0, sp, #7
 166 00f4 FFF7FEFF 		bl	UART_Read
 167 00f8 0028     		cmp	r0, #0
 168 00fa EAD0     		beq	.L9
 169 00fc 6E1C     		adds	r6, r5, #1
 170 00fe 9DF80720 		ldrb	r2, [sp, #7]	@ zero_extendqisi2
 171 0102 314B     		ldr	r3, .L23+48
 172 0104 5A55     		strb	r2, [r3, r5]
 173 0106 FFF7FEFF 		bl	HAL_GetTick
 174 010a 0446     		mov	r4, r0
 175 010c 3546     		mov	r5, r6
 176 010e E3E7     		b	.L8
 177              	.L11:
 178 0110 2D48     		ldr	r0, .L23+48
 179 0112 0023     		movs	r3, #0
 180 0114 4355     		strb	r3, [r0, r5]
 181 0116 2D49     		ldr	r1, .L23+52
 182 0118 FFF7FEFF 		bl	strstr
 183 011c 0028     		cmp	r0, #0
 184 011e B8D0     		beq	.L7
 185 0120 2B49     		ldr	r1, .L23+56
 186 0122 FFF7FEFF 		bl	strstr
 187 0126 0546     		mov	r5, r0
 188 0128 0028     		cmp	r0, #0
 189 012a B2D0     		beq	.L7
 190 012c 041D     		adds	r4, r0, #4
 191 012e 2949     		ldr	r1, .L23+60
 192 0130 2046     		mov	r0, r4
 193 0132 FFF7FEFF 		bl	strstr
 194 0136 08B1     		cbz	r0, .L13
 195 0138 0022     		movs	r2, #0
 196 013a 0270     		strb	r2, [r0]
 197              	.L13:
 198 013c 2649     		ldr	r1, .L23+64
ARM GAS  /var/folders/0f/x4_g94q9649fs6s33cksjfb00000gn/T//ccuHj80q.s 			page 5


 199 013e 2046     		mov	r0, r4
 200 0140 FFF7FEFF 		bl	strpbrk
 201 0144 08B1     		cbz	r0, .L14
 202 0146 0022     		movs	r2, #0
 203 0148 0270     		strb	r2, [r0]
 204              	.L14:
 205 014a 2046     		mov	r0, r4
 206 014c FFF7FEFF 		bl	strlen
 207 0150 01E0     		b	.L15
 208              	.L17:
 209 0152 0023     		movs	r3, #0
 210 0154 2354     		strb	r3, [r4, r0]
 211              	.L15:
 212 0156 18B1     		cbz	r0, .L16
 213 0158 0138     		subs	r0, r0, #1
 214 015a 235C     		ldrb	r3, [r4, r0]	@ zero_extendqisi2
 215 015c 202B     		cmp	r3, #32
 216 015e F8D9     		bls	.L17
 217              	.L16:
 218 0160 2B79     		ldrb	r3, [r5, #4]	@ zero_extendqisi2
 219 0162 002B     		cmp	r3, #0
 220 0164 95D0     		beq	.L7
 221 0166 2046     		mov	r0, r4
 222 0168 FFF7FEFF 		bl	strlen
 223 016c 81B2     		uxth	r1, r0
 224 016e 2046     		mov	r0, r4
 225 0170 FFF7FEFF 		bl	CDC_Transmit_HS
 226 0174 0221     		movs	r1, #2
 227 0176 1848     		ldr	r0, .L23+64
 228 0178 FFF7FEFF 		bl	CDC_Transmit_HS
 229 017c 89E7     		b	.L7
 230              	.L19:
 231 017e 4FF40051 		mov	r1, #8192
 232 0182 0548     		ldr	r0, .L23
 233 0184 FFF7FEFF 		bl	HAL_GPIO_TogglePin
 234 0188 4FF47A70 		mov	r0, #1000
 235 018c FFF7FEFF 		bl	osDelay
 236 0190 0134     		adds	r4, r4, #1
 237              	.L18:
 238 0192 092C     		cmp	r4, #9
 239 0194 F3DD     		ble	.L19
 240 0196 63E7     		b	.L4
 241              	.L24:
 242              		.align	2
 243              	.L23:
 244 0198 00240240 		.word	1073882112
 245 019c 00000000 		.word	.LC0
 246 01a0 0C000000 		.word	.LC1
 247 01a4 30000000 		.word	.LC2
 248 01a8 50000000 		.word	.LC3
 249 01ac 54000000 		.word	.LC4
 250 01b0 64000000 		.word	.LC5
 251 01b4 00000000 		.word	huart5
 252 01b8 68000000 		.word	.LC6
 253 01bc 9C000000 		.word	.LC7
 254 01c0 AC000000 		.word	.LC8
 255 01c4 C8000000 		.word	.LC9
ARM GAS  /var/folders/0f/x4_g94q9649fs6s33cksjfb00000gn/T//ccuHj80q.s 			page 6


 256 01c8 00000000 		.word	rx_buf.0
 257 01cc E0000000 		.word	.LC10
 258 01d0 E8000000 		.word	.LC11
 259 01d4 F0000000 		.word	.LC12
 260 01d8 F8000000 		.word	.LC13
 262              		.section	.text.vApplicationIdleHook,"ax",%progbits
 263              		.align	1
 264              		.global	vApplicationIdleHook
 265              		.syntax unified
 266              		.thumb
 267              		.thumb_func
 269              	vApplicationIdleHook:
 270              		@ args = 0, pretend = 0, frame = 0
 271              		@ frame_needed = 0, uses_anonymous_args = 0
 272              		@ link register save eliminated.
 273 0000 7047     		bx	lr
 275              		.section	.text.vApplicationStackOverflowHook,"ax",%progbits
 276              		.align	1
 277              		.global	vApplicationStackOverflowHook
 278              		.syntax unified
 279              		.thumb
 280              		.thumb_func
 282              	vApplicationStackOverflowHook:
 283              		@ args = 0, pretend = 0, frame = 0
 284              		@ frame_needed = 0, uses_anonymous_args = 0
 285              		@ link register save eliminated.
 286 0000 7047     		bx	lr
 288              		.section	.text.vApplicationMallocFailedHook,"ax",%progbits
 289              		.align	1
 290              		.global	vApplicationMallocFailedHook
 291              		.syntax unified
 292              		.thumb
 293              		.thumb_func
 295              	vApplicationMallocFailedHook:
 296              		@ args = 0, pretend = 0, frame = 0
 297              		@ frame_needed = 0, uses_anonymous_args = 0
 298              		@ link register save eliminated.
 299 0000 7047     		bx	lr
 301              		.section	.text.MX_FREERTOS_Init,"ax",%progbits
 302              		.align	1
 303              		.global	MX_FREERTOS_Init
 304              		.syntax unified
 305              		.thumb
 306              		.thumb_func
 308              	MX_FREERTOS_Init:
 309              		@ args = 0, pretend = 0, frame = 0
 310              		@ frame_needed = 0, uses_anonymous_args = 0
 311 0000 08B5     		push	{r3, lr}
 312 0002 044A     		ldr	r2, .L30
 313 0004 0021     		movs	r1, #0
 314 0006 0448     		ldr	r0, .L30+4
 315 0008 FFF7FEFF 		bl	osThreadNew
 316 000c 034B     		ldr	r3, .L30+8
 317 000e 1860     		str	r0, [r3]
 318 0010 08BD     		pop	{r3, pc}
 319              	.L31:
 320 0012 00BF     		.align	2
ARM GAS  /var/folders/0f/x4_g94q9649fs6s33cksjfb00000gn/T//ccuHj80q.s 			page 7


 321              	.L30:
 322 0014 00000000 		.word	defaultTask_attributes
 323 0018 00000000 		.word	StartDefaultTask
 324 001c 00000000 		.word	defaultTaskHandle
 326              		.section	.bss.rx_buf.0,"aw",%nobits
 327              		.align	2
 330              	rx_buf.0:
 331 0000 00000000 		.space	2048
 331      00000000 
 331      00000000 
 331      00000000 
 331      00000000 
 332              		.global	defaultTask_attributes
 333              		.section	.rodata.str1.4,"aMS",%progbits,1
 334              		.align	2
 335              	.LC14:
 336 0000 64656661 		.ascii	"defaultTask\000"
 336      756C7454 
 336      61736B00 
 337              		.section	.rodata.defaultTask_attributes,"a"
 338              		.align	2
 341              	defaultTask_attributes:
 342 0000 00000000 		.word	.LC14
 343 0004 00000000 		.space	16
 343      00000000 
 343      00000000 
 343      00000000 
 344 0014 00400000 		.word	16384
 345 0018 18000000 		.word	24
 346 001c 00000000 		.space	8
 346      00000000 
 347              		.global	defaultTaskHandle
 348              		.section	.bss.defaultTaskHandle,"aw",%nobits
 349              		.align	2
 352              	defaultTaskHandle:
 353 0000 00000000 		.space	4
 354              		.ident	"GCC: (Arm GNU Toolchain 14.2.Rel1 (Build arm-14.52)) 14.2.1 20241119"
ARM GAS  /var/folders/0f/x4_g94q9649fs6s33cksjfb00000gn/T//ccuHj80q.s 			page 8

