ARM GAS  /var/folders/0f/x4_g94q9649fs6s33cksjfb00000gn/T//ccBm5pLj.s 			page 1


   1              		.cpu cortex-m7
   2              		.arch armv7e-m
   3              		.fpu fpv5-d16
   4              		.eabi_attribute 28, 1
   5              		.eabi_attribute 20, 1
   6              		.eabi_attribute 21, 1
   7              		.eabi_attribute 23, 3
   8              		.eabi_attribute 24, 1
   9              		.eabi_attribute 25, 1
  10              		.eabi_attribute 26, 1
  11              		.eabi_attribute 30, 1
  12              		.eabi_attribute 34, 1
  13              		.eabi_attribute 18, 4
  14              		.file	"queue.c"
  15              		.text
  16              		.section	.text.prvGetDisinheritPriorityAfterTimeout,"ax",%progbits
  17              		.align	1
  18              		.syntax unified
  19              		.thumb
  20              		.thumb_func
  22              	prvGetDisinheritPriorityAfterTimeout:
  23              		@ args = 0, pretend = 0, frame = 0
  24              		@ frame_needed = 0, uses_anonymous_args = 0
  25              		@ link register save eliminated.
  26 0000 0346     		mov	r3, r0
  27 0002 406A     		ldr	r0, [r0, #36]
  28 0004 18B1     		cbz	r0, .L1
  29 0006 1B6B     		ldr	r3, [r3, #48]
  30 0008 1868     		ldr	r0, [r3]
  31 000a C0F13800 		rsb	r0, r0, #56
  32              	.L1:
  33 000e 7047     		bx	lr
  35              		.section	.text.prvIsQueueFull,"ax",%progbits
  36              		.align	1
  37              		.syntax unified
  38              		.thumb
  39              		.thumb_func
  41              	prvIsQueueFull:
  42              		@ args = 0, pretend = 0, frame = 0
  43              		@ frame_needed = 0, uses_anonymous_args = 0
  44 0000 10B5     		push	{r4, lr}
  45 0002 0446     		mov	r4, r0
  46 0004 FFF7FEFF 		bl	vPortEnterCritical
  47 0008 A26B     		ldr	r2, [r4, #56]
  48 000a E36B     		ldr	r3, [r4, #60]
  49 000c 9A42     		cmp	r2, r3
  50 000e 04D0     		beq	.L7
  51 0010 0024     		movs	r4, #0
  52              	.L4:
  53 0012 FFF7FEFF 		bl	vPortExitCritical
  54 0016 2046     		mov	r0, r4
  55 0018 10BD     		pop	{r4, pc}
  56              	.L7:
  57 001a 0124     		movs	r4, #1
  58 001c F9E7     		b	.L4
  60              		.section	.text.prvIsQueueEmpty,"ax",%progbits
  61              		.align	1
ARM GAS  /var/folders/0f/x4_g94q9649fs6s33cksjfb00000gn/T//ccBm5pLj.s 			page 2


  62              		.syntax unified
  63              		.thumb
  64              		.thumb_func
  66              	prvIsQueueEmpty:
  67              		@ args = 0, pretend = 0, frame = 0
  68              		@ frame_needed = 0, uses_anonymous_args = 0
  69 0000 10B5     		push	{r4, lr}
  70 0002 0446     		mov	r4, r0
  71 0004 FFF7FEFF 		bl	vPortEnterCritical
  72 0008 A36B     		ldr	r3, [r4, #56]
  73 000a 23B9     		cbnz	r3, .L10
  74 000c 0124     		movs	r4, #1
  75              	.L9:
  76 000e FFF7FEFF 		bl	vPortExitCritical
  77 0012 2046     		mov	r0, r4
  78 0014 10BD     		pop	{r4, pc}
  79              	.L10:
  80 0016 0024     		movs	r4, #0
  81 0018 F9E7     		b	.L9
  83              		.section	.text.prvCopyDataToQueue,"ax",%progbits
  84              		.align	1
  85              		.syntax unified
  86              		.thumb
  87              		.thumb_func
  89              	prvCopyDataToQueue:
  90              		@ args = 0, pretend = 0, frame = 0
  91              		@ frame_needed = 0, uses_anonymous_args = 0
  92 0000 70B5     		push	{r4, r5, r6, lr}
  93 0002 0446     		mov	r4, r0
  94 0004 1546     		mov	r5, r2
  95 0006 866B     		ldr	r6, [r0, #56]
  96 0008 026C     		ldr	r2, [r0, #64]
  97 000a 5AB9     		cbnz	r2, .L13
  98 000c 0368     		ldr	r3, [r0]
  99 000e 1BB1     		cbz	r3, .L22
 100 0010 0020     		movs	r0, #0
 101              	.L14:
 102 0012 0136     		adds	r6, r6, #1
 103 0014 A663     		str	r6, [r4, #56]
 104 0016 70BD     		pop	{r4, r5, r6, pc}
 105              	.L22:
 106 0018 8068     		ldr	r0, [r0, #8]
 107 001a FFF7FEFF 		bl	xTaskPriorityDisinherit
 108 001e 0023     		movs	r3, #0
 109 0020 A360     		str	r3, [r4, #8]
 110 0022 F6E7     		b	.L14
 111              	.L13:
 112 0024 6DB9     		cbnz	r5, .L15
 113 0026 4068     		ldr	r0, [r0, #4]
 114 0028 FFF7FEFF 		bl	memcpy
 115 002c 6368     		ldr	r3, [r4, #4]
 116 002e 226C     		ldr	r2, [r4, #64]
 117 0030 1344     		add	r3, r3, r2
 118 0032 6360     		str	r3, [r4, #4]
 119 0034 A268     		ldr	r2, [r4, #8]
 120 0036 9342     		cmp	r3, r2
 121 0038 19D3     		bcc	.L18
ARM GAS  /var/folders/0f/x4_g94q9649fs6s33cksjfb00000gn/T//ccBm5pLj.s 			page 3


 122 003a 2368     		ldr	r3, [r4]
 123 003c 6360     		str	r3, [r4, #4]
 124 003e 2846     		mov	r0, r5
 125 0040 E7E7     		b	.L14
 126              	.L15:
 127 0042 C068     		ldr	r0, [r0, #12]
 128 0044 FFF7FEFF 		bl	memcpy
 129 0048 E368     		ldr	r3, [r4, #12]
 130 004a 226C     		ldr	r2, [r4, #64]
 131 004c 5142     		rsbs	r1, r2, #0
 132 004e 9B1A     		subs	r3, r3, r2
 133 0050 E360     		str	r3, [r4, #12]
 134 0052 2268     		ldr	r2, [r4]
 135 0054 9342     		cmp	r3, r2
 136 0056 02D2     		bcs	.L16
 137 0058 A368     		ldr	r3, [r4, #8]
 138 005a 0B44     		add	r3, r3, r1
 139 005c E360     		str	r3, [r4, #12]
 140              	.L16:
 141 005e 022D     		cmp	r5, #2
 142 0060 01D0     		beq	.L23
 143 0062 0020     		movs	r0, #0
 144 0064 D5E7     		b	.L14
 145              	.L23:
 146 0066 26B1     		cbz	r6, .L20
 147 0068 013E     		subs	r6, r6, #1
 148 006a 0020     		movs	r0, #0
 149 006c D1E7     		b	.L14
 150              	.L18:
 151 006e 2846     		mov	r0, r5
 152 0070 CFE7     		b	.L14
 153              	.L20:
 154 0072 0020     		movs	r0, #0
 155 0074 CDE7     		b	.L14
 157              		.section	.text.prvCopyDataFromQueue,"ax",%progbits
 158              		.align	1
 159              		.syntax unified
 160              		.thumb
 161              		.thumb_func
 163              	prvCopyDataFromQueue:
 164              		@ args = 0, pretend = 0, frame = 0
 165              		@ frame_needed = 0, uses_anonymous_args = 0
 166 0000 0346     		mov	r3, r0
 167 0002 026C     		ldr	r2, [r0, #64]
 168 0004 6AB1     		cbz	r2, .L28
 169 0006 10B5     		push	{r4, lr}
 170 0008 0846     		mov	r0, r1
 171 000a D968     		ldr	r1, [r3, #12]
 172 000c 1144     		add	r1, r1, r2
 173 000e D960     		str	r1, [r3, #12]
 174 0010 9C68     		ldr	r4, [r3, #8]
 175 0012 A142     		cmp	r1, r4
 176 0014 01D3     		bcc	.L26
 177 0016 1968     		ldr	r1, [r3]
 178 0018 D960     		str	r1, [r3, #12]
 179              	.L26:
 180 001a D968     		ldr	r1, [r3, #12]
ARM GAS  /var/folders/0f/x4_g94q9649fs6s33cksjfb00000gn/T//ccBm5pLj.s 			page 4


 181 001c FFF7FEFF 		bl	memcpy
 182 0020 10BD     		pop	{r4, pc}
 183              	.L28:
 184 0022 7047     		bx	lr
 186              		.section	.text.prvUnlockQueue,"ax",%progbits
 187              		.align	1
 188              		.syntax unified
 189              		.thumb
 190              		.thumb_func
 192              	prvUnlockQueue:
 193              		@ args = 0, pretend = 0, frame = 0
 194              		@ frame_needed = 0, uses_anonymous_args = 0
 195 0000 38B5     		push	{r3, r4, r5, lr}
 196 0002 0546     		mov	r5, r0
 197 0004 FFF7FEFF 		bl	vPortEnterCritical
 198 0008 95F84540 		ldrb	r4, [r5, #69]	@ zero_extendqisi2
 199 000c 64B2     		sxtb	r4, r4
 200 000e 01E0     		b	.L32
 201              	.L34:
 202 0010 013C     		subs	r4, r4, #1
 203 0012 64B2     		sxtb	r4, r4
 204              	.L32:
 205 0014 002C     		cmp	r4, #0
 206 0016 0ADD     		ble	.L33
 207 0018 6B6A     		ldr	r3, [r5, #36]
 208 001a 43B1     		cbz	r3, .L33
 209 001c 05F12400 		add	r0, r5, #36
 210 0020 FFF7FEFF 		bl	xTaskRemoveFromEventList
 211 0024 0028     		cmp	r0, #0
 212 0026 F3D0     		beq	.L34
 213 0028 FFF7FEFF 		bl	vTaskMissedYield
 214 002c F0E7     		b	.L34
 215              	.L33:
 216 002e FF23     		movs	r3, #255
 217 0030 85F84530 		strb	r3, [r5, #69]
 218 0034 FFF7FEFF 		bl	vPortExitCritical
 219 0038 FFF7FEFF 		bl	vPortEnterCritical
 220 003c 95F84440 		ldrb	r4, [r5, #68]	@ zero_extendqisi2
 221 0040 64B2     		sxtb	r4, r4
 222 0042 01E0     		b	.L36
 223              	.L38:
 224 0044 013C     		subs	r4, r4, #1
 225 0046 64B2     		sxtb	r4, r4
 226              	.L36:
 227 0048 002C     		cmp	r4, #0
 228 004a 0ADD     		ble	.L37
 229 004c 2B69     		ldr	r3, [r5, #16]
 230 004e 43B1     		cbz	r3, .L37
 231 0050 05F11000 		add	r0, r5, #16
 232 0054 FFF7FEFF 		bl	xTaskRemoveFromEventList
 233 0058 0028     		cmp	r0, #0
 234 005a F3D0     		beq	.L38
 235 005c FFF7FEFF 		bl	vTaskMissedYield
 236 0060 F0E7     		b	.L38
 237              	.L37:
 238 0062 FF23     		movs	r3, #255
 239 0064 85F84430 		strb	r3, [r5, #68]
ARM GAS  /var/folders/0f/x4_g94q9649fs6s33cksjfb00000gn/T//ccBm5pLj.s 			page 5


 240 0068 FFF7FEFF 		bl	vPortExitCritical
 241 006c 38BD     		pop	{r3, r4, r5, pc}
 243              		.section	.text.xQueueGenericReset,"ax",%progbits
 244              		.align	1
 245              		.global	xQueueGenericReset
 246              		.syntax unified
 247              		.thumb
 248              		.thumb_func
 250              	xQueueGenericReset:
 251              		@ args = 0, pretend = 0, frame = 0
 252              		@ frame_needed = 0, uses_anonymous_args = 0
 253 0000 38B5     		push	{r3, r4, r5, lr}
 254 0002 E0B1     		cbz	r0, .L47
 255 0004 0D46     		mov	r5, r1
 256 0006 0446     		mov	r4, r0
 257 0008 FFF7FEFF 		bl	vPortEnterCritical
 258 000c 2368     		ldr	r3, [r4]
 259 000e E26B     		ldr	r2, [r4, #60]
 260 0010 216C     		ldr	r1, [r4, #64]
 261 0012 01FB0230 		mla	r0, r1, r2, r3
 262 0016 A060     		str	r0, [r4, #8]
 263 0018 0020     		movs	r0, #0
 264 001a A063     		str	r0, [r4, #56]
 265 001c 6360     		str	r3, [r4, #4]
 266 001e 013A     		subs	r2, r2, #1
 267 0020 02FB0133 		mla	r3, r2, r1, r3
 268 0024 E360     		str	r3, [r4, #12]
 269 0026 FF23     		movs	r3, #255
 270 0028 84F84430 		strb	r3, [r4, #68]
 271 002c 84F84530 		strb	r3, [r4, #69]
 272 0030 0DBB     		cbnz	r5, .L44
 273 0032 2369     		ldr	r3, [r4, #16]
 274 0034 73B9     		cbnz	r3, .L48
 275              	.L45:
 276 0036 FFF7FEFF 		bl	vPortExitCritical
 277 003a 0120     		movs	r0, #1
 278 003c 38BD     		pop	{r3, r4, r5, pc}
 279              	.L47:
 280              		.syntax unified
 281              	@ 195 "Middlewares/Third_Party/FreeRTOS/Source/portable/GCC/ARM_CM7/r0p1/portmacro.h" 1
 282 003e 4FF05003 			mov r3, #80												
 283 0042 72B6     		cpsid i													
 284 0044 83F31188 		msr basepri, r3											
 285 0048 BFF36F8F 		isb														
 286 004c BFF34F8F 		dsb														
 287 0050 62B6     		cpsie i													
 288              	
 289              	@ 0 "" 2
 290              		.thumb
 291              		.syntax unified
 292              	.L43:
 293 0052 FEE7     		b	.L43
 294              	.L48:
 295 0054 04F11000 		add	r0, r4, #16
 296 0058 FFF7FEFF 		bl	xTaskRemoveFromEventList
 297 005c 0028     		cmp	r0, #0
 298 005e EAD0     		beq	.L45
ARM GAS  /var/folders/0f/x4_g94q9649fs6s33cksjfb00000gn/T//ccBm5pLj.s 			page 6


 299 0060 4FF0E023 		mov	r3, #-536813568
 300 0064 4FF08052 		mov	r2, #268435456
 301 0068 C3F8042D 		str	r2, [r3, #3332]
 302              		.syntax unified
 303              	@ 281 "Middlewares/Third_Party/FreeRTOS/Source/queue.c" 1
 304 006c BFF34F8F 		dsb
 305              	@ 0 "" 2
 306              	@ 281 "Middlewares/Third_Party/FreeRTOS/Source/queue.c" 1
 307 0070 BFF36F8F 		isb
 308              	@ 0 "" 2
 309              		.thumb
 310              		.syntax unified
 311 0074 DFE7     		b	.L45
 312              	.L44:
 313 0076 04F11000 		add	r0, r4, #16
 314 007a FFF7FEFF 		bl	vListInitialise
 315 007e 04F12400 		add	r0, r4, #36
 316 0082 FFF7FEFF 		bl	vListInitialise
 317 0086 D6E7     		b	.L45
 319              		.section	.text.prvInitialiseNewQueue,"ax",%progbits
 320              		.align	1
 321              		.syntax unified
 322              		.thumb
 323              		.thumb_func
 325              	prvInitialiseNewQueue:
 326              		@ args = 4, pretend = 0, frame = 0
 327              		@ frame_needed = 0, uses_anonymous_args = 0
 328 0000 38B5     		push	{r3, r4, r5, lr}
 329 0002 1D46     		mov	r5, r3
 330 0004 049C     		ldr	r4, [sp, #16]
 331 0006 0B46     		mov	r3, r1
 332 0008 49B9     		cbnz	r1, .L50
 333 000a 2460     		str	r4, [r4]
 334              	.L51:
 335 000c E063     		str	r0, [r4, #60]
 336 000e 2364     		str	r3, [r4, #64]
 337 0010 0121     		movs	r1, #1
 338 0012 2046     		mov	r0, r4
 339 0014 FFF7FEFF 		bl	xQueueGenericReset
 340 0018 84F84C50 		strb	r5, [r4, #76]
 341 001c 38BD     		pop	{r3, r4, r5, pc}
 342              	.L50:
 343 001e 2260     		str	r2, [r4]
 344 0020 F4E7     		b	.L51
 346              		.section	.text.xQueueGenericCreateStatic,"ax",%progbits
 347              		.align	1
 348              		.global	xQueueGenericCreateStatic
 349              		.syntax unified
 350              		.thumb
 351              		.thumb_func
 353              	xQueueGenericCreateStatic:
 354              		@ args = 4, pretend = 0, frame = 8
 355              		@ frame_needed = 0, uses_anonymous_args = 0
 356 0000 50B9     		cbnz	r0, .L54
 357              		.syntax unified
 358              	@ 195 "Middlewares/Third_Party/FreeRTOS/Source/portable/GCC/ARM_CM7/r0p1/portmacro.h" 1
 359 0002 4FF05003 			mov r3, #80												
ARM GAS  /var/folders/0f/x4_g94q9649fs6s33cksjfb00000gn/T//ccBm5pLj.s 			page 7


 360 0006 72B6     		cpsid i													
 361 0008 83F31188 		msr basepri, r3											
 362 000c BFF36F8F 		isb														
 363 0010 BFF34F8F 		dsb														
 364 0014 62B6     		cpsie i													
 365              	
 366              	@ 0 "" 2
 367              		.thumb
 368              		.syntax unified
 369              	.L55:
 370 0016 FEE7     		b	.L55
 371              	.L54:
 372 0018 10B5     		push	{r4, lr}
 373 001a 84B0     		sub	sp, sp, #16
 374 001c 1C46     		mov	r4, r3
 375 001e 93B1     		cbz	r3, .L66
 376 0020 0B1E     		subs	r3, r1, #0
 377 0022 18BF     		it	ne
 378 0024 0123     		movne	r3, #1
 379 0026 002A     		cmp	r2, #0
 380 0028 08BF     		it	eq
 381 002a 43F00103 		orreq	r3, r3, #1
 382 002e ABB9     		cbnz	r3, .L58
 383              		.syntax unified
 384              	@ 195 "Middlewares/Third_Party/FreeRTOS/Source/portable/GCC/ARM_CM7/r0p1/portmacro.h" 1
 385 0030 4FF05003 			mov r3, #80												
 386 0034 72B6     		cpsid i													
 387 0036 83F31188 		msr basepri, r3											
 388 003a BFF36F8F 		isb														
 389 003e BFF34F8F 		dsb														
 390 0042 62B6     		cpsie i													
 391              	
 392              	@ 0 "" 2
 393              		.thumb
 394              		.syntax unified
 395              	.L59:
 396 0044 FEE7     		b	.L59
 397              	.L66:
 398              		.syntax unified
 399              	@ 195 "Middlewares/Third_Party/FreeRTOS/Source/portable/GCC/ARM_CM7/r0p1/portmacro.h" 1
 400 0046 4FF05003 			mov r3, #80												
 401 004a 72B6     		cpsid i													
 402 004c 83F31188 		msr basepri, r3											
 403 0050 BFF36F8F 		isb														
 404 0054 BFF34F8F 		dsb														
 405 0058 62B6     		cpsie i													
 406              	
 407              	@ 0 "" 2
 408              		.thumb
 409              		.syntax unified
 410              	.L57:
 411 005a FEE7     		b	.L57
 412              	.L58:
 413 005c B1FA81F3 		clz	r3, r1
 414 0060 5B09     		lsrs	r3, r3, #5
 415 0062 002A     		cmp	r2, #0
 416 0064 18BF     		it	ne
ARM GAS  /var/folders/0f/x4_g94q9649fs6s33cksjfb00000gn/T//ccBm5pLj.s 			page 8


 417 0066 43F00103 		orrne	r3, r3, #1
 418 006a 53B9     		cbnz	r3, .L60
 419              		.syntax unified
 420              	@ 195 "Middlewares/Third_Party/FreeRTOS/Source/portable/GCC/ARM_CM7/r0p1/portmacro.h" 1
 421 006c 4FF05003 			mov r3, #80												
 422 0070 72B6     		cpsid i													
 423 0072 83F31188 		msr basepri, r3											
 424 0076 BFF36F8F 		isb														
 425 007a BFF34F8F 		dsb														
 426 007e 62B6     		cpsie i													
 427              	
 428              	@ 0 "" 2
 429              		.thumb
 430              		.syntax unified
 431              	.L61:
 432 0080 FEE7     		b	.L61
 433              	.L60:
 434 0082 5023     		movs	r3, #80
 435 0084 0393     		str	r3, [sp, #12]
 436 0086 039B     		ldr	r3, [sp, #12]
 437 0088 502B     		cmp	r3, #80
 438 008a 0AD0     		beq	.L62
 439              		.syntax unified
 440              	@ 195 "Middlewares/Third_Party/FreeRTOS/Source/portable/GCC/ARM_CM7/r0p1/portmacro.h" 1
 441 008c 4FF05003 			mov r3, #80												
 442 0090 72B6     		cpsid i													
 443 0092 83F31188 		msr basepri, r3											
 444 0096 BFF36F8F 		isb														
 445 009a BFF34F8F 		dsb														
 446 009e 62B6     		cpsie i													
 447              	
 448              	@ 0 "" 2
 449              		.thumb
 450              		.syntax unified
 451              	.L63:
 452 00a0 FEE7     		b	.L63
 453              	.L62:
 454 00a2 039B     		ldr	r3, [sp, #12]
 455 00a4 0123     		movs	r3, #1
 456 00a6 84F84630 		strb	r3, [r4, #70]
 457 00aa 0094     		str	r4, [sp]
 458 00ac 9DF81830 		ldrb	r3, [sp, #24]	@ zero_extendqisi2
 459 00b0 FFF7FEFF 		bl	prvInitialiseNewQueue
 460 00b4 2046     		mov	r0, r4
 461 00b6 04B0     		add	sp, sp, #16
 462              		@ sp needed
 463 00b8 10BD     		pop	{r4, pc}
 465              		.section	.text.xQueueGenericCreate,"ax",%progbits
 466              		.align	1
 467              		.global	xQueueGenericCreate
 468              		.syntax unified
 469              		.thumb
 470              		.thumb_func
 472              	xQueueGenericCreate:
 473              		@ args = 0, pretend = 0, frame = 0
 474              		@ frame_needed = 0, uses_anonymous_args = 0
 475 0000 50B9     		cbnz	r0, .L68
ARM GAS  /var/folders/0f/x4_g94q9649fs6s33cksjfb00000gn/T//ccBm5pLj.s 			page 9


 476              		.syntax unified
 477              	@ 195 "Middlewares/Third_Party/FreeRTOS/Source/portable/GCC/ARM_CM7/r0p1/portmacro.h" 1
 478 0002 4FF05003 			mov r3, #80												
 479 0006 72B6     		cpsid i													
 480 0008 83F31188 		msr basepri, r3											
 481 000c BFF36F8F 		isb														
 482 0010 BFF34F8F 		dsb														
 483 0014 62B6     		cpsie i													
 484              	
 485              	@ 0 "" 2
 486              		.thumb
 487              		.syntax unified
 488              	.L69:
 489 0016 FEE7     		b	.L69
 490              	.L68:
 491 0018 F0B5     		push	{r4, r5, r6, r7, lr}
 492 001a 83B0     		sub	sp, sp, #12
 493 001c 0C46     		mov	r4, r1
 494 001e 1546     		mov	r5, r2
 495 0020 0746     		mov	r7, r0
 496 0022 A1B1     		cbz	r1, .L72
 497 0024 01FB00F0 		mul	r0, r1, r0
 498              	.L70:
 499 0028 5030     		adds	r0, r0, #80
 500 002a FFF7FEFF 		bl	pvPortMalloc
 501 002e 0646     		mov	r6, r0
 502 0030 50B1     		cbz	r0, .L67
 503 0032 0023     		movs	r3, #0
 504 0034 80F84630 		strb	r3, [r0, #70]
 505 0038 0090     		str	r0, [sp]
 506 003a 2B46     		mov	r3, r5
 507 003c 00F15002 		add	r2, r0, #80
 508 0040 2146     		mov	r1, r4
 509 0042 3846     		mov	r0, r7
 510 0044 FFF7FEFF 		bl	prvInitialiseNewQueue
 511              	.L67:
 512 0048 3046     		mov	r0, r6
 513 004a 03B0     		add	sp, sp, #12
 514              		@ sp needed
 515 004c F0BD     		pop	{r4, r5, r6, r7, pc}
 516              	.L72:
 517 004e 0846     		mov	r0, r1
 518 0050 EAE7     		b	.L70
 520              		.section	.text.xQueueGetMutexHolder,"ax",%progbits
 521              		.align	1
 522              		.global	xQueueGetMutexHolder
 523              		.syntax unified
 524              		.thumb
 525              		.thumb_func
 527              	xQueueGetMutexHolder:
 528              		@ args = 0, pretend = 0, frame = 0
 529              		@ frame_needed = 0, uses_anonymous_args = 0
 530 0000 10B5     		push	{r4, lr}
 531 0002 0446     		mov	r4, r0
 532 0004 FFF7FEFF 		bl	vPortEnterCritical
 533 0008 2368     		ldr	r3, [r4]
 534 000a 23B9     		cbnz	r3, .L77
ARM GAS  /var/folders/0f/x4_g94q9649fs6s33cksjfb00000gn/T//ccBm5pLj.s 			page 10


 535 000c A468     		ldr	r4, [r4, #8]
 536              	.L76:
 537 000e FFF7FEFF 		bl	vPortExitCritical
 538 0012 2046     		mov	r0, r4
 539 0014 10BD     		pop	{r4, pc}
 540              	.L77:
 541 0016 0024     		movs	r4, #0
 542 0018 F9E7     		b	.L76
 544              		.section	.text.xQueueGetMutexHolderFromISR,"ax",%progbits
 545              		.align	1
 546              		.global	xQueueGetMutexHolderFromISR
 547              		.syntax unified
 548              		.thumb
 549              		.thumb_func
 551              	xQueueGetMutexHolderFromISR:
 552              		@ args = 0, pretend = 0, frame = 0
 553              		@ frame_needed = 0, uses_anonymous_args = 0
 554              		@ link register save eliminated.
 555 0000 18B1     		cbz	r0, .L84
 556 0002 0268     		ldr	r2, [r0]
 557 0004 62B9     		cbnz	r2, .L83
 558 0006 8068     		ldr	r0, [r0, #8]
 559 0008 7047     		bx	lr
 560              	.L84:
 561              		.syntax unified
 562              	@ 195 "Middlewares/Third_Party/FreeRTOS/Source/portable/GCC/ARM_CM7/r0p1/portmacro.h" 1
 563 000a 4FF05003 			mov r3, #80												
 564 000e 72B6     		cpsid i													
 565 0010 83F31188 		msr basepri, r3											
 566 0014 BFF36F8F 		isb														
 567 0018 BFF34F8F 		dsb														
 568 001c 62B6     		cpsie i													
 569              	
 570              	@ 0 "" 2
 571              		.thumb
 572              		.syntax unified
 573              	.L81:
 574 001e FEE7     		b	.L81
 575              	.L83:
 576 0020 0020     		movs	r0, #0
 577 0022 7047     		bx	lr
 579              		.section	.text.xQueueCreateCountingSemaphoreStatic,"ax",%progbits
 580              		.align	1
 581              		.global	xQueueCreateCountingSemaphoreStatic
 582              		.syntax unified
 583              		.thumb
 584              		.thumb_func
 586              	xQueueCreateCountingSemaphoreStatic:
 587              		@ args = 0, pretend = 0, frame = 0
 588              		@ frame_needed = 0, uses_anonymous_args = 0
 589 0000 50B9     		cbnz	r0, .L86
 590              		.syntax unified
 591              	@ 195 "Middlewares/Third_Party/FreeRTOS/Source/portable/GCC/ARM_CM7/r0p1/portmacro.h" 1
 592 0002 4FF05003 			mov r3, #80												
 593 0006 72B6     		cpsid i													
 594 0008 83F31188 		msr basepri, r3											
 595 000c BFF36F8F 		isb														
ARM GAS  /var/folders/0f/x4_g94q9649fs6s33cksjfb00000gn/T//ccBm5pLj.s 			page 11


 596 0010 BFF34F8F 		dsb														
 597 0014 62B6     		cpsie i													
 598              	
 599              	@ 0 "" 2
 600              		.thumb
 601              		.syntax unified
 602              	.L87:
 603 0016 FEE7     		b	.L87
 604              	.L86:
 605 0018 10B5     		push	{r4, lr}
 606 001a 82B0     		sub	sp, sp, #8
 607 001c 0C46     		mov	r4, r1
 608 001e 8842     		cmp	r0, r1
 609 0020 0AD2     		bcs	.L88
 610              		.syntax unified
 611              	@ 195 "Middlewares/Third_Party/FreeRTOS/Source/portable/GCC/ARM_CM7/r0p1/portmacro.h" 1
 612 0022 4FF05003 			mov r3, #80												
 613 0026 72B6     		cpsid i													
 614 0028 83F31188 		msr basepri, r3											
 615 002c BFF36F8F 		isb														
 616 0030 BFF34F8F 		dsb														
 617 0034 62B6     		cpsie i													
 618              	
 619              	@ 0 "" 2
 620              		.thumb
 621              		.syntax unified
 622              	.L89:
 623 0036 FEE7     		b	.L89
 624              	.L88:
 625 0038 0223     		movs	r3, #2
 626 003a 0093     		str	r3, [sp]
 627 003c 1346     		mov	r3, r2
 628 003e 0022     		movs	r2, #0
 629 0040 1146     		mov	r1, r2
 630 0042 FFF7FEFF 		bl	xQueueGenericCreateStatic
 631 0046 00B1     		cbz	r0, .L85
 632 0048 8463     		str	r4, [r0, #56]
 633              	.L85:
 634 004a 02B0     		add	sp, sp, #8
 635              		@ sp needed
 636 004c 10BD     		pop	{r4, pc}
 638              		.section	.text.xQueueCreateCountingSemaphore,"ax",%progbits
 639              		.align	1
 640              		.global	xQueueCreateCountingSemaphore
 641              		.syntax unified
 642              		.thumb
 643              		.thumb_func
 645              	xQueueCreateCountingSemaphore:
 646              		@ args = 0, pretend = 0, frame = 0
 647              		@ frame_needed = 0, uses_anonymous_args = 0
 648 0000 50B9     		cbnz	r0, .L94
 649              		.syntax unified
 650              	@ 195 "Middlewares/Third_Party/FreeRTOS/Source/portable/GCC/ARM_CM7/r0p1/portmacro.h" 1
 651 0002 4FF05003 			mov r3, #80												
 652 0006 72B6     		cpsid i													
 653 0008 83F31188 		msr basepri, r3											
 654 000c BFF36F8F 		isb														
ARM GAS  /var/folders/0f/x4_g94q9649fs6s33cksjfb00000gn/T//ccBm5pLj.s 			page 12


 655 0010 BFF34F8F 		dsb														
 656 0014 62B6     		cpsie i													
 657              	
 658              	@ 0 "" 2
 659              		.thumb
 660              		.syntax unified
 661              	.L95:
 662 0016 FEE7     		b	.L95
 663              	.L94:
 664 0018 10B5     		push	{r4, lr}
 665 001a 0C46     		mov	r4, r1
 666 001c 8842     		cmp	r0, r1
 667 001e 0AD2     		bcs	.L96
 668              		.syntax unified
 669              	@ 195 "Middlewares/Third_Party/FreeRTOS/Source/portable/GCC/ARM_CM7/r0p1/portmacro.h" 1
 670 0020 4FF05003 			mov r3, #80												
 671 0024 72B6     		cpsid i													
 672 0026 83F31188 		msr basepri, r3											
 673 002a BFF36F8F 		isb														
 674 002e BFF34F8F 		dsb														
 675 0032 62B6     		cpsie i													
 676              	
 677              	@ 0 "" 2
 678              		.thumb
 679              		.syntax unified
 680              	.L97:
 681 0034 FEE7     		b	.L97
 682              	.L96:
 683 0036 0222     		movs	r2, #2
 684 0038 0021     		movs	r1, #0
 685 003a FFF7FEFF 		bl	xQueueGenericCreate
 686 003e 00B1     		cbz	r0, .L93
 687 0040 8463     		str	r4, [r0, #56]
 688              	.L93:
 689 0042 10BD     		pop	{r4, pc}
 691              		.section	.text.xQueueGenericSend,"ax",%progbits
 692              		.align	1
 693              		.global	xQueueGenericSend
 694              		.syntax unified
 695              		.thumb
 696              		.thumb_func
 698              	xQueueGenericSend:
 699              		@ args = 0, pretend = 0, frame = 16
 700              		@ frame_needed = 0, uses_anonymous_args = 0
 701 0000 F0B5     		push	{r4, r5, r6, r7, lr}
 702 0002 85B0     		sub	sp, sp, #20
 703 0004 0192     		str	r2, [sp, #4]
 704 0006 98B1     		cbz	r0, .L125
 705 0008 0F46     		mov	r7, r1
 706 000a 1D46     		mov	r5, r3
 707 000c 0446     		mov	r4, r0
 708 000e D1B1     		cbz	r1, .L126
 709              	.L104:
 710 0010 022D     		cmp	r5, #2
 711 0012 26D1     		bne	.L106
 712 0014 E36B     		ldr	r3, [r4, #60]
 713 0016 012B     		cmp	r3, #1
ARM GAS  /var/folders/0f/x4_g94q9649fs6s33cksjfb00000gn/T//ccBm5pLj.s 			page 13


 714 0018 23D0     		beq	.L106
 715              		.syntax unified
 716              	@ 195 "Middlewares/Third_Party/FreeRTOS/Source/portable/GCC/ARM_CM7/r0p1/portmacro.h" 1
 717 001a 4FF05003 			mov r3, #80												
 718 001e 72B6     		cpsid i													
 719 0020 83F31188 		msr basepri, r3											
 720 0024 BFF36F8F 		isb														
 721 0028 BFF34F8F 		dsb														
 722 002c 62B6     		cpsie i													
 723              	
 724              	@ 0 "" 2
 725              		.thumb
 726              		.syntax unified
 727              	.L107:
 728 002e FEE7     		b	.L107
 729              	.L125:
 730              		.syntax unified
 731              	@ 195 "Middlewares/Third_Party/FreeRTOS/Source/portable/GCC/ARM_CM7/r0p1/portmacro.h" 1
 732 0030 4FF05003 			mov r3, #80												
 733 0034 72B6     		cpsid i													
 734 0036 83F31188 		msr basepri, r3											
 735 003a BFF36F8F 		isb														
 736 003e BFF34F8F 		dsb														
 737 0042 62B6     		cpsie i													
 738              	
 739              	@ 0 "" 2
 740              		.thumb
 741              		.syntax unified
 742              	.L103:
 743 0044 FEE7     		b	.L103
 744              	.L126:
 745 0046 036C     		ldr	r3, [r0, #64]
 746 0048 002B     		cmp	r3, #0
 747 004a E1D0     		beq	.L104
 748              		.syntax unified
 749              	@ 195 "Middlewares/Third_Party/FreeRTOS/Source/portable/GCC/ARM_CM7/r0p1/portmacro.h" 1
 750 004c 4FF05003 			mov r3, #80												
 751 0050 72B6     		cpsid i													
 752 0052 83F31188 		msr basepri, r3											
 753 0056 BFF36F8F 		isb														
 754 005a BFF34F8F 		dsb														
 755 005e 62B6     		cpsie i													
 756              	
 757              	@ 0 "" 2
 758              		.thumb
 759              		.syntax unified
 760              	.L105:
 761 0060 FEE7     		b	.L105
 762              	.L106:
 763 0062 FFF7FEFF 		bl	xTaskGetSchedulerState
 764 0066 0646     		mov	r6, r0
 765 0068 68B9     		cbnz	r0, .L123
 766 006a 019B     		ldr	r3, [sp, #4]
 767 006c 002B     		cmp	r3, #0
 768 006e 4AD0     		beq	.L110
 769              		.syntax unified
 770              	@ 195 "Middlewares/Third_Party/FreeRTOS/Source/portable/GCC/ARM_CM7/r0p1/portmacro.h" 1
ARM GAS  /var/folders/0f/x4_g94q9649fs6s33cksjfb00000gn/T//ccBm5pLj.s 			page 14


 771 0070 4FF05003 			mov r3, #80												
 772 0074 72B6     		cpsid i													
 773 0076 83F31188 		msr basepri, r3											
 774 007a BFF36F8F 		isb														
 775 007e BFF34F8F 		dsb														
 776 0082 62B6     		cpsie i													
 777              	
 778              	@ 0 "" 2
 779              		.thumb
 780              		.syntax unified
 781              	.L109:
 782 0084 FEE7     		b	.L109
 783              	.L123:
 784 0086 0026     		movs	r6, #0
 785 0088 3DE0     		b	.L110
 786              	.L111:
 787 008a 2A46     		mov	r2, r5
 788 008c 3946     		mov	r1, r7
 789 008e 2046     		mov	r0, r4
 790 0090 FFF7FEFF 		bl	prvCopyDataToQueue
 791 0094 636A     		ldr	r3, [r4, #36]
 792 0096 7BB9     		cbnz	r3, .L127
 793 0098 48B1     		cbz	r0, .L114
 794 009a 4FF0E023 		mov	r3, #-536813568
 795 009e 4FF08052 		mov	r2, #268435456
 796 00a2 C3F8042D 		str	r2, [r3, #3332]
 797              		.syntax unified
 798              	@ 865 "Middlewares/Third_Party/FreeRTOS/Source/queue.c" 1
 799 00a6 BFF34F8F 		dsb
 800              	@ 0 "" 2
 801              	@ 865 "Middlewares/Third_Party/FreeRTOS/Source/queue.c" 1
 802 00aa BFF36F8F 		isb
 803              	@ 0 "" 2
 804              		.thumb
 805              		.syntax unified
 806              	.L114:
 807 00ae FFF7FEFF 		bl	vPortExitCritical
 808 00b2 0120     		movs	r0, #1
 809              	.L101:
 810 00b4 05B0     		add	sp, sp, #20
 811              		@ sp needed
 812 00b6 F0BD     		pop	{r4, r5, r6, r7, pc}
 813              	.L127:
 814 00b8 04F12400 		add	r0, r4, #36
 815 00bc FFF7FEFF 		bl	xTaskRemoveFromEventList
 816 00c0 0028     		cmp	r0, #0
 817 00c2 F4D0     		beq	.L114
 818 00c4 4FF0E023 		mov	r3, #-536813568
 819 00c8 4FF08052 		mov	r2, #268435456
 820 00cc C3F8042D 		str	r2, [r3, #3332]
 821              		.syntax unified
 822              	@ 852 "Middlewares/Third_Party/FreeRTOS/Source/queue.c" 1
 823 00d0 BFF34F8F 		dsb
 824              	@ 0 "" 2
 825              	@ 852 "Middlewares/Third_Party/FreeRTOS/Source/queue.c" 1
 826 00d4 BFF36F8F 		isb
 827              	@ 0 "" 2
ARM GAS  /var/folders/0f/x4_g94q9649fs6s33cksjfb00000gn/T//ccBm5pLj.s 			page 15


 828              		.thumb
 829              		.syntax unified
 830 00d8 E9E7     		b	.L114
 831              	.L128:
 832 00da FFF7FEFF 		bl	vPortExitCritical
 833 00de 0020     		movs	r0, #0
 834 00e0 E8E7     		b	.L101
 835              	.L129:
 836 00e2 02A8     		add	r0, sp, #8
 837 00e4 FFF7FEFF 		bl	vTaskInternalSetTimeOutState
 838 00e8 0126     		movs	r6, #1
 839 00ea 19E0     		b	.L117
 840              	.L130:
 841 00ec 0023     		movs	r3, #0
 842 00ee 84F84430 		strb	r3, [r4, #68]
 843 00f2 21E0     		b	.L118
 844              	.L131:
 845 00f4 0023     		movs	r3, #0
 846 00f6 84F84530 		strb	r3, [r4, #69]
 847 00fa 23E0     		b	.L119
 848              	.L121:
 849 00fc 2046     		mov	r0, r4
 850 00fe FFF7FEFF 		bl	prvUnlockQueue
 851 0102 FFF7FEFF 		bl	xTaskResumeAll
 852              	.L110:
 853 0106 FFF7FEFF 		bl	vPortEnterCritical
 854 010a A26B     		ldr	r2, [r4, #56]
 855 010c E36B     		ldr	r3, [r4, #60]
 856 010e 9A42     		cmp	r2, r3
 857 0110 BBD3     		bcc	.L111
 858 0112 022D     		cmp	r5, #2
 859 0114 B9D0     		beq	.L111
 860 0116 019B     		ldr	r3, [sp, #4]
 861 0118 002B     		cmp	r3, #0
 862 011a DED0     		beq	.L128
 863 011c 002E     		cmp	r6, #0
 864 011e E0D0     		beq	.L129
 865              	.L117:
 866 0120 FFF7FEFF 		bl	vPortExitCritical
 867 0124 FFF7FEFF 		bl	vTaskSuspendAll
 868 0128 FFF7FEFF 		bl	vPortEnterCritical
 869 012c 94F84420 		ldrb	r2, [r4, #68]	@ zero_extendqisi2
 870 0130 52B2     		sxtb	r2, r2
 871 0132 B2F1FF3F 		cmp	r2, #-1
 872 0136 D9D0     		beq	.L130
 873              	.L118:
 874 0138 94F84520 		ldrb	r2, [r4, #69]	@ zero_extendqisi2
 875 013c 52B2     		sxtb	r2, r2
 876 013e B2F1FF3F 		cmp	r2, #-1
 877 0142 D7D0     		beq	.L131
 878              	.L119:
 879 0144 FFF7FEFF 		bl	vPortExitCritical
 880 0148 01A9     		add	r1, sp, #4
 881 014a 02A8     		add	r0, sp, #8
 882 014c FFF7FEFF 		bl	xTaskCheckForTimeOut
 883 0150 D8B9     		cbnz	r0, .L120
 884 0152 2046     		mov	r0, r4
ARM GAS  /var/folders/0f/x4_g94q9649fs6s33cksjfb00000gn/T//ccBm5pLj.s 			page 16


 885 0154 FFF7FEFF 		bl	prvIsQueueFull
 886 0158 0028     		cmp	r0, #0
 887 015a CFD0     		beq	.L121
 888 015c 0199     		ldr	r1, [sp, #4]
 889 015e 04F11000 		add	r0, r4, #16
 890 0162 FFF7FEFF 		bl	vTaskPlaceOnEventList
 891 0166 2046     		mov	r0, r4
 892 0168 FFF7FEFF 		bl	prvUnlockQueue
 893 016c FFF7FEFF 		bl	xTaskResumeAll
 894 0170 0028     		cmp	r0, #0
 895 0172 C8D1     		bne	.L110
 896 0174 4FF0E023 		mov	r3, #-536813568
 897 0178 4FF08052 		mov	r2, #268435456
 898 017c C3F8042D 		str	r2, [r3, #3332]
 899              		.syntax unified
 900              	@ 934 "Middlewares/Third_Party/FreeRTOS/Source/queue.c" 1
 901 0180 BFF34F8F 		dsb
 902              	@ 0 "" 2
 903              	@ 934 "Middlewares/Third_Party/FreeRTOS/Source/queue.c" 1
 904 0184 BFF36F8F 		isb
 905              	@ 0 "" 2
 906              		.thumb
 907              		.syntax unified
 908 0188 BDE7     		b	.L110
 909              	.L120:
 910 018a 2046     		mov	r0, r4
 911 018c FFF7FEFF 		bl	prvUnlockQueue
 912 0190 FFF7FEFF 		bl	xTaskResumeAll
 913 0194 0020     		movs	r0, #0
 914 0196 8DE7     		b	.L101
 916              		.section	.text.prvInitialiseMutex,"ax",%progbits
 917              		.align	1
 918              		.syntax unified
 919              		.thumb
 920              		.thumb_func
 922              	prvInitialiseMutex:
 923              		@ args = 0, pretend = 0, frame = 0
 924              		@ frame_needed = 0, uses_anonymous_args = 0
 925 0000 48B1     		cbz	r0, .L135
 926 0002 08B5     		push	{r3, lr}
 927 0004 0021     		movs	r1, #0
 928 0006 8160     		str	r1, [r0, #8]
 929 0008 0160     		str	r1, [r0]
 930 000a C160     		str	r1, [r0, #12]
 931 000c 0B46     		mov	r3, r1
 932 000e 0A46     		mov	r2, r1
 933 0010 FFF7FEFF 		bl	xQueueGenericSend
 934 0014 08BD     		pop	{r3, pc}
 935              	.L135:
 936 0016 7047     		bx	lr
 938              		.section	.text.xQueueCreateMutex,"ax",%progbits
 939              		.align	1
 940              		.global	xQueueCreateMutex
 941              		.syntax unified
 942              		.thumb
 943              		.thumb_func
 945              	xQueueCreateMutex:
ARM GAS  /var/folders/0f/x4_g94q9649fs6s33cksjfb00000gn/T//ccBm5pLj.s 			page 17


 946              		@ args = 0, pretend = 0, frame = 0
 947              		@ frame_needed = 0, uses_anonymous_args = 0
 948 0000 10B5     		push	{r4, lr}
 949 0002 0246     		mov	r2, r0
 950 0004 0021     		movs	r1, #0
 951 0006 0120     		movs	r0, #1
 952 0008 FFF7FEFF 		bl	xQueueGenericCreate
 953 000c 0446     		mov	r4, r0
 954 000e FFF7FEFF 		bl	prvInitialiseMutex
 955 0012 2046     		mov	r0, r4
 956 0014 10BD     		pop	{r4, pc}
 958              		.section	.text.xQueueCreateMutexStatic,"ax",%progbits
 959              		.align	1
 960              		.global	xQueueCreateMutexStatic
 961              		.syntax unified
 962              		.thumb
 963              		.thumb_func
 965              	xQueueCreateMutexStatic:
 966              		@ args = 0, pretend = 0, frame = 0
 967              		@ frame_needed = 0, uses_anonymous_args = 0
 968 0000 10B5     		push	{r4, lr}
 969 0002 82B0     		sub	sp, sp, #8
 970 0004 0B46     		mov	r3, r1
 971 0006 0090     		str	r0, [sp]
 972 0008 0022     		movs	r2, #0
 973 000a 1146     		mov	r1, r2
 974 000c 0120     		movs	r0, #1
 975 000e FFF7FEFF 		bl	xQueueGenericCreateStatic
 976 0012 0446     		mov	r4, r0
 977 0014 FFF7FEFF 		bl	prvInitialiseMutex
 978 0018 2046     		mov	r0, r4
 979 001a 02B0     		add	sp, sp, #8
 980              		@ sp needed
 981 001c 10BD     		pop	{r4, pc}
 983              		.section	.text.xQueueGiveMutexRecursive,"ax",%progbits
 984              		.align	1
 985              		.global	xQueueGiveMutexRecursive
 986              		.syntax unified
 987              		.thumb
 988              		.thumb_func
 990              	xQueueGiveMutexRecursive:
 991              		@ args = 0, pretend = 0, frame = 0
 992              		@ frame_needed = 0, uses_anonymous_args = 0
 993 0000 38B5     		push	{r3, r4, r5, lr}
 994 0002 38B1     		cbz	r0, .L149
 995 0004 0446     		mov	r4, r0
 996 0006 8568     		ldr	r5, [r0, #8]
 997 0008 FFF7FEFF 		bl	xTaskGetCurrentTaskHandle
 998 000c 8542     		cmp	r5, r0
 999 000e 0CD0     		beq	.L150
 1000 0010 0020     		movs	r0, #0
 1001              	.L142:
 1002 0012 38BD     		pop	{r3, r4, r5, pc}
 1003              	.L149:
 1004              		.syntax unified
 1005              	@ 195 "Middlewares/Third_Party/FreeRTOS/Source/portable/GCC/ARM_CM7/r0p1/portmacro.h" 1
 1006 0014 4FF05003 			mov r3, #80												
ARM GAS  /var/folders/0f/x4_g94q9649fs6s33cksjfb00000gn/T//ccBm5pLj.s 			page 18


 1007 0018 72B6     		cpsid i													
 1008 001a 83F31188 		msr basepri, r3											
 1009 001e BFF36F8F 		isb														
 1010 0022 BFF34F8F 		dsb														
 1011 0026 62B6     		cpsie i													
 1012              	
 1013              	@ 0 "" 2
 1014              		.thumb
 1015              		.syntax unified
 1016              	.L144:
 1017 0028 FEE7     		b	.L144
 1018              	.L150:
 1019 002a E368     		ldr	r3, [r4, #12]
 1020 002c 013B     		subs	r3, r3, #1
 1021 002e E360     		str	r3, [r4, #12]
 1022 0030 0BB1     		cbz	r3, .L151
 1023 0032 0120     		movs	r0, #1
 1024 0034 EDE7     		b	.L142
 1025              	.L151:
 1026 0036 1A46     		mov	r2, r3
 1027 0038 1946     		mov	r1, r3
 1028 003a 2046     		mov	r0, r4
 1029 003c FFF7FEFF 		bl	xQueueGenericSend
 1030 0040 0120     		movs	r0, #1
 1031 0042 E6E7     		b	.L142
 1033              		.section	.text.xQueueGenericSendFromISR,"ax",%progbits
 1034              		.align	1
 1035              		.global	xQueueGenericSendFromISR
 1036              		.syntax unified
 1037              		.thumb
 1038              		.thumb_func
 1040              	xQueueGenericSendFromISR:
 1041              		@ args = 0, pretend = 0, frame = 0
 1042              		@ frame_needed = 0, uses_anonymous_args = 0
 1043 0000 2DE9F843 		push	{r3, r4, r5, r6, r7, r8, r9, lr}
 1044 0004 A0B1     		cbz	r0, .L167
 1045 0006 0F46     		mov	r7, r1
 1046 0008 1646     		mov	r6, r2
 1047 000a 1C46     		mov	r4, r3
 1048 000c 0546     		mov	r5, r0
 1049 000e D1B1     		cbz	r1, .L168
 1050              	.L155:
 1051 0010 022C     		cmp	r4, #2
 1052 0012 26D1     		bne	.L157
 1053 0014 EB6B     		ldr	r3, [r5, #60]
 1054 0016 012B     		cmp	r3, #1
 1055 0018 23D0     		beq	.L157
 1056              		.syntax unified
 1057              	@ 195 "Middlewares/Third_Party/FreeRTOS/Source/portable/GCC/ARM_CM7/r0p1/portmacro.h" 1
 1058 001a 4FF05003 			mov r3, #80												
 1059 001e 72B6     		cpsid i													
 1060 0020 83F31188 		msr basepri, r3											
 1061 0024 BFF36F8F 		isb														
 1062 0028 BFF34F8F 		dsb														
 1063 002c 62B6     		cpsie i													
 1064              	
 1065              	@ 0 "" 2
ARM GAS  /var/folders/0f/x4_g94q9649fs6s33cksjfb00000gn/T//ccBm5pLj.s 			page 19


 1066              		.thumb
 1067              		.syntax unified
 1068              	.L158:
 1069 002e FEE7     		b	.L158
 1070              	.L167:
 1071              		.syntax unified
 1072              	@ 195 "Middlewares/Third_Party/FreeRTOS/Source/portable/GCC/ARM_CM7/r0p1/portmacro.h" 1
 1073 0030 4FF05003 			mov r3, #80												
 1074 0034 72B6     		cpsid i													
 1075 0036 83F31188 		msr basepri, r3											
 1076 003a BFF36F8F 		isb														
 1077 003e BFF34F8F 		dsb														
 1078 0042 62B6     		cpsie i													
 1079              	
 1080              	@ 0 "" 2
 1081              		.thumb
 1082              		.syntax unified
 1083              	.L154:
 1084 0044 FEE7     		b	.L154
 1085              	.L168:
 1086 0046 036C     		ldr	r3, [r0, #64]
 1087 0048 002B     		cmp	r3, #0
 1088 004a E1D0     		beq	.L155
 1089              		.syntax unified
 1090              	@ 195 "Middlewares/Third_Party/FreeRTOS/Source/portable/GCC/ARM_CM7/r0p1/portmacro.h" 1
 1091 004c 4FF05003 			mov r3, #80												
 1092 0050 72B6     		cpsid i													
 1093 0052 83F31188 		msr basepri, r3											
 1094 0056 BFF36F8F 		isb														
 1095 005a BFF34F8F 		dsb														
 1096 005e 62B6     		cpsie i													
 1097              	
 1098              	@ 0 "" 2
 1099              		.thumb
 1100              		.syntax unified
 1101              	.L156:
 1102 0060 FEE7     		b	.L156
 1103              	.L157:
 1104 0062 FFF7FEFF 		bl	vPortValidateInterruptPriority
 1105              		.syntax unified
 1106              	@ 213 "Middlewares/Third_Party/FreeRTOS/Source/portable/GCC/ARM_CM7/r0p1/portmacro.h" 1
 1107 0066 EFF31188 			mrs r8, basepri											
 1108 006a 4FF05003 		mov r3, #80												
 1109 006e 72B6     		cpsid i													
 1110 0070 83F31188 		msr basepri, r3											
 1111 0074 BFF36F8F 		isb														
 1112 0078 BFF34F8F 		dsb														
 1113 007c 62B6     		cpsie i													
 1114              	
 1115              	@ 0 "" 2
 1116              		.thumb
 1117              		.syntax unified
 1118 007e AA6B     		ldr	r2, [r5, #56]
 1119 0080 EB6B     		ldr	r3, [r5, #60]
 1120 0082 9A42     		cmp	r2, r3
 1121 0084 06D3     		bcc	.L159
 1122 0086 022C     		cmp	r4, #2
ARM GAS  /var/folders/0f/x4_g94q9649fs6s33cksjfb00000gn/T//ccBm5pLj.s 			page 20


 1123 0088 04D0     		beq	.L159
 1124 008a 0020     		movs	r0, #0
 1125              	.L160:
 1126              		.syntax unified
 1127              	@ 233 "Middlewares/Third_Party/FreeRTOS/Source/portable/GCC/ARM_CM7/r0p1/portmacro.h" 1
 1128 008c 88F31188 			msr basepri, r8	
 1129              	@ 0 "" 2
 1130              		.thumb
 1131              		.syntax unified
 1132 0090 BDE8F883 		pop	{r3, r4, r5, r6, r7, r8, r9, pc}
 1133              	.L159:
 1134 0094 95F84590 		ldrb	r9, [r5, #69]	@ zero_extendqisi2
 1135 0098 4FFA89F9 		sxtb	r9, r9
 1136 009c 2246     		mov	r2, r4
 1137 009e 3946     		mov	r1, r7
 1138 00a0 2846     		mov	r0, r5
 1139 00a2 FFF7FEFF 		bl	prvCopyDataToQueue
 1140 00a6 B9F1FF3F 		cmp	r9, #-1
 1141 00aa 06D0     		beq	.L169
 1142 00ac 09F10103 		add	r3, r9, #1
 1143 00b0 5BB2     		sxtb	r3, r3
 1144 00b2 85F84530 		strb	r3, [r5, #69]
 1145 00b6 0120     		movs	r0, #1
 1146 00b8 E8E7     		b	.L160
 1147              	.L169:
 1148 00ba 6B6A     		ldr	r3, [r5, #36]
 1149 00bc 0BB9     		cbnz	r3, .L170
 1150 00be 0120     		movs	r0, #1
 1151 00c0 E4E7     		b	.L160
 1152              	.L170:
 1153 00c2 05F12400 		add	r0, r5, #36
 1154 00c6 FFF7FEFF 		bl	xTaskRemoveFromEventList
 1155 00ca 18B1     		cbz	r0, .L164
 1156 00cc 26B1     		cbz	r6, .L165
 1157 00ce 0120     		movs	r0, #1
 1158 00d0 3060     		str	r0, [r6]
 1159 00d2 DBE7     		b	.L160
 1160              	.L164:
 1161 00d4 0120     		movs	r0, #1
 1162 00d6 D9E7     		b	.L160
 1163              	.L165:
 1164 00d8 0120     		movs	r0, #1
 1165 00da D7E7     		b	.L160
 1167              		.section	.text.xQueueGiveFromISR,"ax",%progbits
 1168              		.align	1
 1169              		.global	xQueueGiveFromISR
 1170              		.syntax unified
 1171              		.thumb
 1172              		.thumb_func
 1174              	xQueueGiveFromISR:
 1175              		@ args = 0, pretend = 0, frame = 0
 1176              		@ frame_needed = 0, uses_anonymous_args = 0
 1177 0000 78B1     		cbz	r0, .L186
 1178 0002 70B5     		push	{r4, r5, r6, lr}
 1179 0004 0C46     		mov	r4, r1
 1180 0006 0546     		mov	r5, r0
 1181 0008 036C     		ldr	r3, [r0, #64]
ARM GAS  /var/folders/0f/x4_g94q9649fs6s33cksjfb00000gn/T//ccBm5pLj.s 			page 21


 1182 000a ABB1     		cbz	r3, .L174
 1183              		.syntax unified
 1184              	@ 195 "Middlewares/Third_Party/FreeRTOS/Source/portable/GCC/ARM_CM7/r0p1/portmacro.h" 1
 1185 000c 4FF05003 			mov r3, #80												
 1186 0010 72B6     		cpsid i													
 1187 0012 83F31188 		msr basepri, r3											
 1188 0016 BFF36F8F 		isb														
 1189 001a BFF34F8F 		dsb														
 1190 001e 62B6     		cpsie i													
 1191              	
 1192              	@ 0 "" 2
 1193              		.thumb
 1194              		.syntax unified
 1195              	.L175:
 1196 0020 FEE7     		b	.L175
 1197              	.L186:
 1198              		.syntax unified
 1199              	@ 195 "Middlewares/Third_Party/FreeRTOS/Source/portable/GCC/ARM_CM7/r0p1/portmacro.h" 1
 1200 0022 4FF05003 			mov r3, #80												
 1201 0026 72B6     		cpsid i													
 1202 0028 83F31188 		msr basepri, r3											
 1203 002c BFF36F8F 		isb														
 1204 0030 BFF34F8F 		dsb														
 1205 0034 62B6     		cpsie i													
 1206              	
 1207              	@ 0 "" 2
 1208              		.thumb
 1209              		.syntax unified
 1210              	.L173:
 1211 0036 FEE7     		b	.L173
 1212              	.L174:
 1213 0038 0368     		ldr	r3, [r0]
 1214 003a FBB1     		cbz	r3, .L187
 1215              	.L176:
 1216 003c FFF7FEFF 		bl	vPortValidateInterruptPriority
 1217              		.syntax unified
 1218              	@ 213 "Middlewares/Third_Party/FreeRTOS/Source/portable/GCC/ARM_CM7/r0p1/portmacro.h" 1
 1219 0040 EFF31186 			mrs r6, basepri											
 1220 0044 4FF05003 		mov r3, #80												
 1221 0048 72B6     		cpsid i													
 1222 004a 83F31188 		msr basepri, r3											
 1223 004e BFF36F8F 		isb														
 1224 0052 BFF34F8F 		dsb														
 1225 0056 62B6     		cpsie i													
 1226              	
 1227              	@ 0 "" 2
 1228              		.thumb
 1229              		.syntax unified
 1230 0058 AA6B     		ldr	r2, [r5, #56]
 1231 005a EB6B     		ldr	r3, [r5, #60]
 1232 005c 9342     		cmp	r3, r2
 1233 005e 28D9     		bls	.L180
 1234 0060 95F84530 		ldrb	r3, [r5, #69]	@ zero_extendqisi2
 1235 0064 5BB2     		sxtb	r3, r3
 1236 0066 0132     		adds	r2, r2, #1
 1237 0068 AA63     		str	r2, [r5, #56]
 1238 006a B3F1FF3F 		cmp	r3, #-1
ARM GAS  /var/folders/0f/x4_g94q9649fs6s33cksjfb00000gn/T//ccBm5pLj.s 			page 22


 1239 006e 13D0     		beq	.L188
 1240 0070 0133     		adds	r3, r3, #1
 1241 0072 5BB2     		sxtb	r3, r3
 1242 0074 85F84530 		strb	r3, [r5, #69]
 1243 0078 0120     		movs	r0, #1
 1244 007a 1BE0     		b	.L178
 1245              	.L187:
 1246 007c 8368     		ldr	r3, [r0, #8]
 1247 007e 002B     		cmp	r3, #0
 1248 0080 DCD0     		beq	.L176
 1249              		.syntax unified
 1250              	@ 195 "Middlewares/Third_Party/FreeRTOS/Source/portable/GCC/ARM_CM7/r0p1/portmacro.h" 1
 1251 0082 4FF05003 			mov r3, #80												
 1252 0086 72B6     		cpsid i													
 1253 0088 83F31188 		msr basepri, r3											
 1254 008c BFF36F8F 		isb														
 1255 0090 BFF34F8F 		dsb														
 1256 0094 62B6     		cpsie i													
 1257              	
 1258              	@ 0 "" 2
 1259              		.thumb
 1260              		.syntax unified
 1261              	.L177:
 1262 0096 FEE7     		b	.L177
 1263              	.L188:
 1264 0098 6B6A     		ldr	r3, [r5, #36]
 1265 009a 0BB9     		cbnz	r3, .L189
 1266 009c 0120     		movs	r0, #1
 1267 009e 09E0     		b	.L178
 1268              	.L189:
 1269 00a0 05F12400 		add	r0, r5, #36
 1270 00a4 FFF7FEFF 		bl	xTaskRemoveFromEventList
 1271 00a8 38B1     		cbz	r0, .L182
 1272 00aa 44B1     		cbz	r4, .L183
 1273 00ac 0120     		movs	r0, #1
 1274 00ae 2060     		str	r0, [r4]
 1275 00b0 00E0     		b	.L178
 1276              	.L180:
 1277 00b2 0020     		movs	r0, #0
 1278              	.L178:
 1279              		.syntax unified
 1280              	@ 233 "Middlewares/Third_Party/FreeRTOS/Source/portable/GCC/ARM_CM7/r0p1/portmacro.h" 1
 1281 00b4 86F31188 			msr basepri, r6	
 1282              	@ 0 "" 2
 1283              		.thumb
 1284              		.syntax unified
 1285 00b8 70BD     		pop	{r4, r5, r6, pc}
 1286              	.L182:
 1287 00ba 0120     		movs	r0, #1
 1288 00bc FAE7     		b	.L178
 1289              	.L183:
 1290 00be 0120     		movs	r0, #1
 1291 00c0 F8E7     		b	.L178
 1293              		.section	.text.xQueueReceive,"ax",%progbits
 1294              		.align	1
 1295              		.global	xQueueReceive
 1296              		.syntax unified
ARM GAS  /var/folders/0f/x4_g94q9649fs6s33cksjfb00000gn/T//ccBm5pLj.s 			page 23


 1297              		.thumb
 1298              		.thumb_func
 1300              	xQueueReceive:
 1301              		@ args = 0, pretend = 0, frame = 16
 1302              		@ frame_needed = 0, uses_anonymous_args = 0
 1303 0000 F0B5     		push	{r4, r5, r6, r7, lr}
 1304 0002 85B0     		sub	sp, sp, #20
 1305 0004 0192     		str	r2, [sp, #4]
 1306 0006 A0B1     		cbz	r0, .L210
 1307 0008 0F46     		mov	r7, r1
 1308 000a 0446     		mov	r4, r0
 1309 000c E1B1     		cbz	r1, .L211
 1310              	.L193:
 1311 000e FFF7FEFF 		bl	xTaskGetSchedulerState
 1312 0012 0646     		mov	r6, r0
 1313 0014 30BB     		cbnz	r0, .L208
 1314 0016 019B     		ldr	r3, [sp, #4]
 1315 0018 002B     		cmp	r3, #0
 1316 001a 64D0     		beq	.L197
 1317              		.syntax unified
 1318              	@ 195 "Middlewares/Third_Party/FreeRTOS/Source/portable/GCC/ARM_CM7/r0p1/portmacro.h" 1
 1319 001c 4FF05003 			mov r3, #80												
 1320 0020 72B6     		cpsid i													
 1321 0022 83F31188 		msr basepri, r3											
 1322 0026 BFF36F8F 		isb														
 1323 002a BFF34F8F 		dsb														
 1324 002e 62B6     		cpsie i													
 1325              	
 1326              	@ 0 "" 2
 1327              		.thumb
 1328              		.syntax unified
 1329              	.L196:
 1330 0030 FEE7     		b	.L196
 1331              	.L210:
 1332              		.syntax unified
 1333              	@ 195 "Middlewares/Third_Party/FreeRTOS/Source/portable/GCC/ARM_CM7/r0p1/portmacro.h" 1
 1334 0032 4FF05003 			mov r3, #80												
 1335 0036 72B6     		cpsid i													
 1336 0038 83F31188 		msr basepri, r3											
 1337 003c BFF36F8F 		isb														
 1338 0040 BFF34F8F 		dsb														
 1339 0044 62B6     		cpsie i													
 1340              	
 1341              	@ 0 "" 2
 1342              		.thumb
 1343              		.syntax unified
 1344              	.L192:
 1345 0046 FEE7     		b	.L192
 1346              	.L211:
 1347 0048 036C     		ldr	r3, [r0, #64]
 1348 004a 002B     		cmp	r3, #0
 1349 004c DFD0     		beq	.L193
 1350              		.syntax unified
 1351              	@ 195 "Middlewares/Third_Party/FreeRTOS/Source/portable/GCC/ARM_CM7/r0p1/portmacro.h" 1
 1352 004e 4FF05003 			mov r3, #80												
 1353 0052 72B6     		cpsid i													
 1354 0054 83F31188 		msr basepri, r3											
ARM GAS  /var/folders/0f/x4_g94q9649fs6s33cksjfb00000gn/T//ccBm5pLj.s 			page 24


 1355 0058 BFF36F8F 		isb														
 1356 005c BFF34F8F 		dsb														
 1357 0060 62B6     		cpsie i													
 1358              	
 1359              	@ 0 "" 2
 1360              		.thumb
 1361              		.syntax unified
 1362              	.L194:
 1363 0062 FEE7     		b	.L194
 1364              	.L208:
 1365 0064 0026     		movs	r6, #0
 1366 0066 3EE0     		b	.L197
 1367              	.L214:
 1368 0068 3946     		mov	r1, r7
 1369 006a 2046     		mov	r0, r4
 1370 006c FFF7FEFF 		bl	prvCopyDataFromQueue
 1371 0070 013D     		subs	r5, r5, #1
 1372 0072 A563     		str	r5, [r4, #56]
 1373 0074 2369     		ldr	r3, [r4, #16]
 1374 0076 23B9     		cbnz	r3, .L212
 1375              	.L199:
 1376 0078 FFF7FEFF 		bl	vPortExitCritical
 1377 007c 0120     		movs	r0, #1
 1378              	.L190:
 1379 007e 05B0     		add	sp, sp, #20
 1380              		@ sp needed
 1381 0080 F0BD     		pop	{r4, r5, r6, r7, pc}
 1382              	.L212:
 1383 0082 04F11000 		add	r0, r4, #16
 1384 0086 FFF7FEFF 		bl	xTaskRemoveFromEventList
 1385 008a 0028     		cmp	r0, #0
 1386 008c F4D0     		beq	.L199
 1387 008e 4FF0E023 		mov	r3, #-536813568
 1388 0092 4FF08052 		mov	r2, #268435456
 1389 0096 C3F8042D 		str	r2, [r3, #3332]
 1390              		.syntax unified
 1391              	@ 1319 "Middlewares/Third_Party/FreeRTOS/Source/queue.c" 1
 1392 009a BFF34F8F 		dsb
 1393              	@ 0 "" 2
 1394              	@ 1319 "Middlewares/Third_Party/FreeRTOS/Source/queue.c" 1
 1395 009e BFF36F8F 		isb
 1396              	@ 0 "" 2
 1397              		.thumb
 1398              		.syntax unified
 1399 00a2 E9E7     		b	.L199
 1400              	.L215:
 1401 00a4 FFF7FEFF 		bl	vPortExitCritical
 1402 00a8 0020     		movs	r0, #0
 1403 00aa E8E7     		b	.L190
 1404              	.L216:
 1405 00ac 02A8     		add	r0, sp, #8
 1406 00ae FFF7FEFF 		bl	vTaskInternalSetTimeOutState
 1407 00b2 0126     		movs	r6, #1
 1408 00b4 21E0     		b	.L202
 1409              	.L217:
 1410 00b6 0023     		movs	r3, #0
 1411 00b8 84F84430 		strb	r3, [r4, #68]
ARM GAS  /var/folders/0f/x4_g94q9649fs6s33cksjfb00000gn/T//ccBm5pLj.s 			page 25


 1412 00bc 29E0     		b	.L203
 1413              	.L218:
 1414 00be 0023     		movs	r3, #0
 1415 00c0 84F84530 		strb	r3, [r4, #69]
 1416 00c4 2BE0     		b	.L204
 1417              	.L206:
 1418 00c6 2046     		mov	r0, r4
 1419 00c8 FFF7FEFF 		bl	prvUnlockQueue
 1420 00cc FFF7FEFF 		bl	xTaskResumeAll
 1421 00d0 09E0     		b	.L197
 1422              	.L205:
 1423 00d2 2046     		mov	r0, r4
 1424 00d4 FFF7FEFF 		bl	prvUnlockQueue
 1425 00d8 FFF7FEFF 		bl	xTaskResumeAll
 1426 00dc 2046     		mov	r0, r4
 1427 00de FFF7FEFF 		bl	prvIsQueueEmpty
 1428 00e2 0028     		cmp	r0, #0
 1429 00e4 3FD1     		bne	.L213
 1430              	.L197:
 1431 00e6 FFF7FEFF 		bl	vPortEnterCritical
 1432 00ea A56B     		ldr	r5, [r4, #56]
 1433 00ec 002D     		cmp	r5, #0
 1434 00ee BBD1     		bne	.L214
 1435 00f0 019B     		ldr	r3, [sp, #4]
 1436 00f2 002B     		cmp	r3, #0
 1437 00f4 D6D0     		beq	.L215
 1438 00f6 002E     		cmp	r6, #0
 1439 00f8 D8D0     		beq	.L216
 1440              	.L202:
 1441 00fa FFF7FEFF 		bl	vPortExitCritical
 1442 00fe FFF7FEFF 		bl	vTaskSuspendAll
 1443 0102 FFF7FEFF 		bl	vPortEnterCritical
 1444 0106 94F84430 		ldrb	r3, [r4, #68]	@ zero_extendqisi2
 1445 010a 5BB2     		sxtb	r3, r3
 1446 010c B3F1FF3F 		cmp	r3, #-1
 1447 0110 D1D0     		beq	.L217
 1448              	.L203:
 1449 0112 94F84530 		ldrb	r3, [r4, #69]	@ zero_extendqisi2
 1450 0116 5BB2     		sxtb	r3, r3
 1451 0118 B3F1FF3F 		cmp	r3, #-1
 1452 011c CFD0     		beq	.L218
 1453              	.L204:
 1454 011e FFF7FEFF 		bl	vPortExitCritical
 1455 0122 01A9     		add	r1, sp, #4
 1456 0124 02A8     		add	r0, sp, #8
 1457 0126 FFF7FEFF 		bl	xTaskCheckForTimeOut
 1458 012a 0028     		cmp	r0, #0
 1459 012c D1D1     		bne	.L205
 1460 012e 2046     		mov	r0, r4
 1461 0130 FFF7FEFF 		bl	prvIsQueueEmpty
 1462 0134 0028     		cmp	r0, #0
 1463 0136 C6D0     		beq	.L206
 1464 0138 0199     		ldr	r1, [sp, #4]
 1465 013a 04F12400 		add	r0, r4, #36
 1466 013e FFF7FEFF 		bl	vTaskPlaceOnEventList
 1467 0142 2046     		mov	r0, r4
 1468 0144 FFF7FEFF 		bl	prvUnlockQueue
ARM GAS  /var/folders/0f/x4_g94q9649fs6s33cksjfb00000gn/T//ccBm5pLj.s 			page 26


 1469 0148 FFF7FEFF 		bl	xTaskResumeAll
 1470 014c 0028     		cmp	r0, #0
 1471 014e CAD1     		bne	.L197
 1472 0150 4FF0E023 		mov	r3, #-536813568
 1473 0154 4FF08052 		mov	r2, #268435456
 1474 0158 C3F8042D 		str	r2, [r3, #3332]
 1475              		.syntax unified
 1476              	@ 1378 "Middlewares/Third_Party/FreeRTOS/Source/queue.c" 1
 1477 015c BFF34F8F 		dsb
 1478              	@ 0 "" 2
 1479              	@ 1378 "Middlewares/Third_Party/FreeRTOS/Source/queue.c" 1
 1480 0160 BFF36F8F 		isb
 1481              	@ 0 "" 2
 1482              		.thumb
 1483              		.syntax unified
 1484 0164 BFE7     		b	.L197
 1485              	.L213:
 1486 0166 0020     		movs	r0, #0
 1487 0168 89E7     		b	.L190
 1489              		.section	.text.xQueueSemaphoreTake,"ax",%progbits
 1490              		.align	1
 1491              		.global	xQueueSemaphoreTake
 1492              		.syntax unified
 1493              		.thumb
 1494              		.thumb_func
 1496              	xQueueSemaphoreTake:
 1497              		@ args = 0, pretend = 0, frame = 16
 1498              		@ frame_needed = 0, uses_anonymous_args = 0
 1499 0000 70B5     		push	{r4, r5, r6, lr}
 1500 0002 84B0     		sub	sp, sp, #16
 1501 0004 0191     		str	r1, [sp, #4]
 1502 0006 68B1     		cbz	r0, .L245
 1503 0008 0446     		mov	r4, r0
 1504 000a 036C     		ldr	r3, [r0, #64]
 1505 000c ABB1     		cbz	r3, .L222
 1506              		.syntax unified
 1507              	@ 195 "Middlewares/Third_Party/FreeRTOS/Source/portable/GCC/ARM_CM7/r0p1/portmacro.h" 1
 1508 000e 4FF05003 			mov r3, #80												
 1509 0012 72B6     		cpsid i													
 1510 0014 83F31188 		msr basepri, r3											
 1511 0018 BFF36F8F 		isb														
 1512 001c BFF34F8F 		dsb														
 1513 0020 62B6     		cpsie i													
 1514              	
 1515              	@ 0 "" 2
 1516              		.thumb
 1517              		.syntax unified
 1518              	.L223:
 1519 0022 FEE7     		b	.L223
 1520              	.L245:
 1521              		.syntax unified
 1522              	@ 195 "Middlewares/Third_Party/FreeRTOS/Source/portable/GCC/ARM_CM7/r0p1/portmacro.h" 1
 1523 0024 4FF05003 			mov r3, #80												
 1524 0028 72B6     		cpsid i													
 1525 002a 83F31188 		msr basepri, r3											
 1526 002e BFF36F8F 		isb														
 1527 0032 BFF34F8F 		dsb														
ARM GAS  /var/folders/0f/x4_g94q9649fs6s33cksjfb00000gn/T//ccBm5pLj.s 			page 27


 1528 0036 62B6     		cpsie i													
 1529              	
 1530              	@ 0 "" 2
 1531              		.thumb
 1532              		.syntax unified
 1533              	.L221:
 1534 0038 FEE7     		b	.L221
 1535              	.L222:
 1536 003a FFF7FEFF 		bl	xTaskGetSchedulerState
 1537 003e 0546     		mov	r5, r0
 1538 0040 60B9     		cbnz	r0, .L242
 1539 0042 019B     		ldr	r3, [sp, #4]
 1540 0044 6BB1     		cbz	r3, .L243
 1541              		.syntax unified
 1542              	@ 195 "Middlewares/Third_Party/FreeRTOS/Source/portable/GCC/ARM_CM7/r0p1/portmacro.h" 1
 1543 0046 4FF05003 			mov r3, #80												
 1544 004a 72B6     		cpsid i													
 1545 004c 83F31188 		msr basepri, r3											
 1546 0050 BFF36F8F 		isb														
 1547 0054 BFF34F8F 		dsb														
 1548 0058 62B6     		cpsie i													
 1549              	
 1550              	@ 0 "" 2
 1551              		.thumb
 1552              		.syntax unified
 1553              	.L225:
 1554 005a FEE7     		b	.L225
 1555              	.L242:
 1556 005c 0026     		movs	r6, #0
 1557 005e 3546     		mov	r5, r6
 1558 0060 57E0     		b	.L226
 1559              	.L243:
 1560 0062 0646     		mov	r6, r0
 1561 0064 55E0     		b	.L226
 1562              	.L249:
 1563 0066 013B     		subs	r3, r3, #1
 1564 0068 A363     		str	r3, [r4, #56]
 1565 006a 2368     		ldr	r3, [r4]
 1566 006c 3BB1     		cbz	r3, .L246
 1567              	.L228:
 1568 006e 2369     		ldr	r3, [r4, #16]
 1569 0070 4BB9     		cbnz	r3, .L247
 1570              	.L229:
 1571 0072 FFF7FEFF 		bl	vPortExitCritical
 1572 0076 0126     		movs	r6, #1
 1573              	.L219:
 1574 0078 3046     		mov	r0, r6
 1575 007a 04B0     		add	sp, sp, #16
 1576              		@ sp needed
 1577 007c 70BD     		pop	{r4, r5, r6, pc}
 1578              	.L246:
 1579 007e FFF7FEFF 		bl	pvTaskIncrementMutexHeldCount
 1580 0082 A060     		str	r0, [r4, #8]
 1581 0084 F3E7     		b	.L228
 1582              	.L247:
 1583 0086 04F11000 		add	r0, r4, #16
 1584 008a FFF7FEFF 		bl	xTaskRemoveFromEventList
ARM GAS  /var/folders/0f/x4_g94q9649fs6s33cksjfb00000gn/T//ccBm5pLj.s 			page 28


 1585 008e 0028     		cmp	r0, #0
 1586 0090 EFD0     		beq	.L229
 1587 0092 4FF0E023 		mov	r3, #-536813568
 1588 0096 4FF08052 		mov	r2, #268435456
 1589 009a C3F8042D 		str	r2, [r3, #3332]
 1590              		.syntax unified
 1591              	@ 1481 "Middlewares/Third_Party/FreeRTOS/Source/queue.c" 1
 1592 009e BFF34F8F 		dsb
 1593              	@ 0 "" 2
 1594              	@ 1481 "Middlewares/Third_Party/FreeRTOS/Source/queue.c" 1
 1595 00a2 BFF36F8F 		isb
 1596              	@ 0 "" 2
 1597              		.thumb
 1598              		.syntax unified
 1599 00a6 E4E7     		b	.L229
 1600              	.L250:
 1601 00a8 56B1     		cbz	r6, .L232
 1602              		.syntax unified
 1603              	@ 195 "Middlewares/Third_Party/FreeRTOS/Source/portable/GCC/ARM_CM7/r0p1/portmacro.h" 1
 1604 00aa 4FF05003 			mov r3, #80												
 1605 00ae 72B6     		cpsid i													
 1606 00b0 83F31188 		msr basepri, r3											
 1607 00b4 BFF36F8F 		isb														
 1608 00b8 BFF34F8F 		dsb														
 1609 00bc 62B6     		cpsie i													
 1610              	
 1611              	@ 0 "" 2
 1612              		.thumb
 1613              		.syntax unified
 1614              	.L233:
 1615 00be FEE7     		b	.L233
 1616              	.L232:
 1617 00c0 FFF7FEFF 		bl	vPortExitCritical
 1618 00c4 D8E7     		b	.L219
 1619              	.L251:
 1620 00c6 02A8     		add	r0, sp, #8
 1621 00c8 FFF7FEFF 		bl	vTaskInternalSetTimeOutState
 1622 00cc 0125     		movs	r5, #1
 1623 00ce 2AE0     		b	.L234
 1624              	.L252:
 1625 00d0 0023     		movs	r3, #0
 1626 00d2 84F84430 		strb	r3, [r4, #68]
 1627 00d6 32E0     		b	.L235
 1628              	.L253:
 1629 00d8 0023     		movs	r3, #0
 1630 00da 84F84530 		strb	r3, [r4, #69]
 1631 00de 34E0     		b	.L236
 1632              	.L254:
 1633 00e0 FFF7FEFF 		bl	vPortEnterCritical
 1634 00e4 A068     		ldr	r0, [r4, #8]
 1635 00e6 FFF7FEFF 		bl	xTaskPriorityInherit
 1636 00ea 0646     		mov	r6, r0
 1637 00ec FFF7FEFF 		bl	vPortExitCritical
 1638 00f0 3BE0     		b	.L239
 1639              	.L238:
 1640 00f2 2046     		mov	r0, r4
 1641 00f4 FFF7FEFF 		bl	prvUnlockQueue
ARM GAS  /var/folders/0f/x4_g94q9649fs6s33cksjfb00000gn/T//ccBm5pLj.s 			page 29


 1642 00f8 FFF7FEFF 		bl	xTaskResumeAll
 1643 00fc 09E0     		b	.L226
 1644              	.L237:
 1645 00fe 2046     		mov	r0, r4
 1646 0100 FFF7FEFF 		bl	prvUnlockQueue
 1647 0104 FFF7FEFF 		bl	xTaskResumeAll
 1648 0108 2046     		mov	r0, r4
 1649 010a FFF7FEFF 		bl	prvIsQueueEmpty
 1650 010e 0028     		cmp	r0, #0
 1651 0110 42D1     		bne	.L248
 1652              	.L226:
 1653 0112 FFF7FEFF 		bl	vPortEnterCritical
 1654 0116 A36B     		ldr	r3, [r4, #56]
 1655 0118 002B     		cmp	r3, #0
 1656 011a A4D1     		bne	.L249
 1657 011c 019B     		ldr	r3, [sp, #4]
 1658 011e 002B     		cmp	r3, #0
 1659 0120 C2D0     		beq	.L250
 1660 0122 002D     		cmp	r5, #0
 1661 0124 CFD0     		beq	.L251
 1662              	.L234:
 1663 0126 FFF7FEFF 		bl	vPortExitCritical
 1664 012a FFF7FEFF 		bl	vTaskSuspendAll
 1665 012e FFF7FEFF 		bl	vPortEnterCritical
 1666 0132 94F84430 		ldrb	r3, [r4, #68]	@ zero_extendqisi2
 1667 0136 5BB2     		sxtb	r3, r3
 1668 0138 B3F1FF3F 		cmp	r3, #-1
 1669 013c C8D0     		beq	.L252
 1670              	.L235:
 1671 013e 94F84530 		ldrb	r3, [r4, #69]	@ zero_extendqisi2
 1672 0142 5BB2     		sxtb	r3, r3
 1673 0144 B3F1FF3F 		cmp	r3, #-1
 1674 0148 C6D0     		beq	.L253
 1675              	.L236:
 1676 014a FFF7FEFF 		bl	vPortExitCritical
 1677 014e 01A9     		add	r1, sp, #4
 1678 0150 02A8     		add	r0, sp, #8
 1679 0152 FFF7FEFF 		bl	xTaskCheckForTimeOut
 1680 0156 0028     		cmp	r0, #0
 1681 0158 D1D1     		bne	.L237
 1682 015a 2046     		mov	r0, r4
 1683 015c FFF7FEFF 		bl	prvIsQueueEmpty
 1684 0160 0028     		cmp	r0, #0
 1685 0162 C6D0     		beq	.L238
 1686 0164 2368     		ldr	r3, [r4]
 1687 0166 002B     		cmp	r3, #0
 1688 0168 BAD0     		beq	.L254
 1689              	.L239:
 1690 016a 0199     		ldr	r1, [sp, #4]
 1691 016c 04F12400 		add	r0, r4, #36
 1692 0170 FFF7FEFF 		bl	vTaskPlaceOnEventList
 1693 0174 2046     		mov	r0, r4
 1694 0176 FFF7FEFF 		bl	prvUnlockQueue
 1695 017a FFF7FEFF 		bl	xTaskResumeAll
 1696 017e 0028     		cmp	r0, #0
 1697 0180 C7D1     		bne	.L226
 1698 0182 4FF0E023 		mov	r3, #-536813568
ARM GAS  /var/folders/0f/x4_g94q9649fs6s33cksjfb00000gn/T//ccBm5pLj.s 			page 30


 1699 0186 4FF08052 		mov	r2, #268435456
 1700 018a C3F8042D 		str	r2, [r3, #3332]
 1701              		.syntax unified
 1702              	@ 1569 "Middlewares/Third_Party/FreeRTOS/Source/queue.c" 1
 1703 018e BFF34F8F 		dsb
 1704              	@ 0 "" 2
 1705              	@ 1569 "Middlewares/Third_Party/FreeRTOS/Source/queue.c" 1
 1706 0192 BFF36F8F 		isb
 1707              	@ 0 "" 2
 1708              		.thumb
 1709              		.syntax unified
 1710 0196 BCE7     		b	.L226
 1711              	.L248:
 1712 0198 0EB9     		cbnz	r6, .L255
 1713              	.L241:
 1714 019a 0026     		movs	r6, #0
 1715 019c 6CE7     		b	.L219
 1716              	.L255:
 1717 019e FFF7FEFF 		bl	vPortEnterCritical
 1718 01a2 2046     		mov	r0, r4
 1719 01a4 FFF7FEFF 		bl	prvGetDisinheritPriorityAfterTimeout
 1720 01a8 0146     		mov	r1, r0
 1721 01aa A068     		ldr	r0, [r4, #8]
 1722 01ac FFF7FEFF 		bl	vTaskPriorityDisinheritAfterTimeout
 1723 01b0 FFF7FEFF 		bl	vPortExitCritical
 1724 01b4 F1E7     		b	.L241
 1726              		.section	.text.xQueueTakeMutexRecursive,"ax",%progbits
 1727              		.align	1
 1728              		.global	xQueueTakeMutexRecursive
 1729              		.syntax unified
 1730              		.thumb
 1731              		.thumb_func
 1733              	xQueueTakeMutexRecursive:
 1734              		@ args = 0, pretend = 0, frame = 0
 1735              		@ frame_needed = 0, uses_anonymous_args = 0
 1736 0000 80B1     		cbz	r0, .L263
 1737 0002 70B5     		push	{r4, r5, r6, lr}
 1738 0004 0C46     		mov	r4, r1
 1739 0006 0546     		mov	r5, r0
 1740 0008 8668     		ldr	r6, [r0, #8]
 1741 000a FFF7FEFF 		bl	xTaskGetCurrentTaskHandle
 1742 000e 8642     		cmp	r6, r0
 1743 0010 13D0     		beq	.L264
 1744 0012 2146     		mov	r1, r4
 1745 0014 2846     		mov	r0, r5
 1746 0016 FFF7FEFF 		bl	xQueueSemaphoreTake
 1747 001a 90B1     		cbz	r0, .L256
 1748 001c EB68     		ldr	r3, [r5, #12]
 1749 001e 0133     		adds	r3, r3, #1
 1750 0020 EB60     		str	r3, [r5, #12]
 1751 0022 0EE0     		b	.L256
 1752              	.L263:
 1753              		.syntax unified
 1754              	@ 195 "Middlewares/Third_Party/FreeRTOS/Source/portable/GCC/ARM_CM7/r0p1/portmacro.h" 1
 1755 0024 4FF05003 			mov r3, #80												
 1756 0028 72B6     		cpsid i													
 1757 002a 83F31188 		msr basepri, r3											
ARM GAS  /var/folders/0f/x4_g94q9649fs6s33cksjfb00000gn/T//ccBm5pLj.s 			page 31


 1758 002e BFF36F8F 		isb														
 1759 0032 BFF34F8F 		dsb														
 1760 0036 62B6     		cpsie i													
 1761              	
 1762              	@ 0 "" 2
 1763              		.thumb
 1764              		.syntax unified
 1765              	.L258:
 1766 0038 FEE7     		b	.L258
 1767              	.L264:
 1768 003a EB68     		ldr	r3, [r5, #12]
 1769 003c 0133     		adds	r3, r3, #1
 1770 003e EB60     		str	r3, [r5, #12]
 1771 0040 0120     		movs	r0, #1
 1772              	.L256:
 1773 0042 70BD     		pop	{r4, r5, r6, pc}
 1775              		.section	.text.xQueuePeek,"ax",%progbits
 1776              		.align	1
 1777              		.global	xQueuePeek
 1778              		.syntax unified
 1779              		.thumb
 1780              		.thumb_func
 1782              	xQueuePeek:
 1783              		@ args = 0, pretend = 0, frame = 16
 1784              		@ frame_needed = 0, uses_anonymous_args = 0
 1785 0000 70B5     		push	{r4, r5, r6, lr}
 1786 0002 84B0     		sub	sp, sp, #16
 1787 0004 0192     		str	r2, [sp, #4]
 1788 0006 A0B1     		cbz	r0, .L285
 1789 0008 0E46     		mov	r6, r1
 1790 000a 0446     		mov	r4, r0
 1791 000c E1B1     		cbz	r1, .L286
 1792              	.L268:
 1793 000e FFF7FEFF 		bl	xTaskGetSchedulerState
 1794 0012 0546     		mov	r5, r0
 1795 0014 30BB     		cbnz	r0, .L283
 1796 0016 019B     		ldr	r3, [sp, #4]
 1797 0018 002B     		cmp	r3, #0
 1798 001a 64D0     		beq	.L272
 1799              		.syntax unified
 1800              	@ 195 "Middlewares/Third_Party/FreeRTOS/Source/portable/GCC/ARM_CM7/r0p1/portmacro.h" 1
 1801 001c 4FF05003 			mov r3, #80												
 1802 0020 72B6     		cpsid i													
 1803 0022 83F31188 		msr basepri, r3											
 1804 0026 BFF36F8F 		isb														
 1805 002a BFF34F8F 		dsb														
 1806 002e 62B6     		cpsie i													
 1807              	
 1808              	@ 0 "" 2
 1809              		.thumb
 1810              		.syntax unified
 1811              	.L271:
 1812 0030 FEE7     		b	.L271
 1813              	.L285:
 1814              		.syntax unified
 1815              	@ 195 "Middlewares/Third_Party/FreeRTOS/Source/portable/GCC/ARM_CM7/r0p1/portmacro.h" 1
 1816 0032 4FF05003 			mov r3, #80												
ARM GAS  /var/folders/0f/x4_g94q9649fs6s33cksjfb00000gn/T//ccBm5pLj.s 			page 32


 1817 0036 72B6     		cpsid i													
 1818 0038 83F31188 		msr basepri, r3											
 1819 003c BFF36F8F 		isb														
 1820 0040 BFF34F8F 		dsb														
 1821 0044 62B6     		cpsie i													
 1822              	
 1823              	@ 0 "" 2
 1824              		.thumb
 1825              		.syntax unified
 1826              	.L267:
 1827 0046 FEE7     		b	.L267
 1828              	.L286:
 1829 0048 036C     		ldr	r3, [r0, #64]
 1830 004a 002B     		cmp	r3, #0
 1831 004c DFD0     		beq	.L268
 1832              		.syntax unified
 1833              	@ 195 "Middlewares/Third_Party/FreeRTOS/Source/portable/GCC/ARM_CM7/r0p1/portmacro.h" 1
 1834 004e 4FF05003 			mov r3, #80												
 1835 0052 72B6     		cpsid i													
 1836 0054 83F31188 		msr basepri, r3											
 1837 0058 BFF36F8F 		isb														
 1838 005c BFF34F8F 		dsb														
 1839 0060 62B6     		cpsie i													
 1840              	
 1841              	@ 0 "" 2
 1842              		.thumb
 1843              		.syntax unified
 1844              	.L269:
 1845 0062 FEE7     		b	.L269
 1846              	.L283:
 1847 0064 0025     		movs	r5, #0
 1848 0066 3EE0     		b	.L272
 1849              	.L289:
 1850 0068 E568     		ldr	r5, [r4, #12]
 1851 006a 3146     		mov	r1, r6
 1852 006c 2046     		mov	r0, r4
 1853 006e FFF7FEFF 		bl	prvCopyDataFromQueue
 1854 0072 E560     		str	r5, [r4, #12]
 1855 0074 636A     		ldr	r3, [r4, #36]
 1856 0076 23B9     		cbnz	r3, .L287
 1857              	.L274:
 1858 0078 FFF7FEFF 		bl	vPortExitCritical
 1859 007c 0120     		movs	r0, #1
 1860              	.L265:
 1861 007e 04B0     		add	sp, sp, #16
 1862              		@ sp needed
 1863 0080 70BD     		pop	{r4, r5, r6, pc}
 1864              	.L287:
 1865 0082 04F12400 		add	r0, r4, #36
 1866 0086 FFF7FEFF 		bl	xTaskRemoveFromEventList
 1867 008a 0028     		cmp	r0, #0
 1868 008c F4D0     		beq	.L274
 1869 008e 4FF0E023 		mov	r3, #-536813568
 1870 0092 4FF08052 		mov	r2, #268435456
 1871 0096 C3F8042D 		str	r2, [r3, #3332]
 1872              		.syntax unified
 1873              	@ 1685 "Middlewares/Third_Party/FreeRTOS/Source/queue.c" 1
ARM GAS  /var/folders/0f/x4_g94q9649fs6s33cksjfb00000gn/T//ccBm5pLj.s 			page 33


 1874 009a BFF34F8F 		dsb
 1875              	@ 0 "" 2
 1876              	@ 1685 "Middlewares/Third_Party/FreeRTOS/Source/queue.c" 1
 1877 009e BFF36F8F 		isb
 1878              	@ 0 "" 2
 1879              		.thumb
 1880              		.syntax unified
 1881 00a2 E9E7     		b	.L274
 1882              	.L290:
 1883 00a4 FFF7FEFF 		bl	vPortExitCritical
 1884 00a8 0020     		movs	r0, #0
 1885 00aa E8E7     		b	.L265
 1886              	.L291:
 1887 00ac 02A8     		add	r0, sp, #8
 1888 00ae FFF7FEFF 		bl	vTaskInternalSetTimeOutState
 1889 00b2 0125     		movs	r5, #1
 1890 00b4 21E0     		b	.L277
 1891              	.L292:
 1892 00b6 0023     		movs	r3, #0
 1893 00b8 84F84430 		strb	r3, [r4, #68]
 1894 00bc 29E0     		b	.L278
 1895              	.L293:
 1896 00be 0023     		movs	r3, #0
 1897 00c0 84F84530 		strb	r3, [r4, #69]
 1898 00c4 2BE0     		b	.L279
 1899              	.L281:
 1900 00c6 2046     		mov	r0, r4
 1901 00c8 FFF7FEFF 		bl	prvUnlockQueue
 1902 00cc FFF7FEFF 		bl	xTaskResumeAll
 1903 00d0 09E0     		b	.L272
 1904              	.L280:
 1905 00d2 2046     		mov	r0, r4
 1906 00d4 FFF7FEFF 		bl	prvUnlockQueue
 1907 00d8 FFF7FEFF 		bl	xTaskResumeAll
 1908 00dc 2046     		mov	r0, r4
 1909 00de FFF7FEFF 		bl	prvIsQueueEmpty
 1910 00e2 0028     		cmp	r0, #0
 1911 00e4 3FD1     		bne	.L288
 1912              	.L272:
 1913 00e6 FFF7FEFF 		bl	vPortEnterCritical
 1914 00ea A36B     		ldr	r3, [r4, #56]
 1915 00ec 002B     		cmp	r3, #0
 1916 00ee BBD1     		bne	.L289
 1917 00f0 019B     		ldr	r3, [sp, #4]
 1918 00f2 002B     		cmp	r3, #0
 1919 00f4 D6D0     		beq	.L290
 1920 00f6 002D     		cmp	r5, #0
 1921 00f8 D8D0     		beq	.L291
 1922              	.L277:
 1923 00fa FFF7FEFF 		bl	vPortExitCritical
 1924 00fe FFF7FEFF 		bl	vTaskSuspendAll
 1925 0102 FFF7FEFF 		bl	vPortEnterCritical
 1926 0106 94F84430 		ldrb	r3, [r4, #68]	@ zero_extendqisi2
 1927 010a 5BB2     		sxtb	r3, r3
 1928 010c B3F1FF3F 		cmp	r3, #-1
 1929 0110 D1D0     		beq	.L292
 1930              	.L278:
ARM GAS  /var/folders/0f/x4_g94q9649fs6s33cksjfb00000gn/T//ccBm5pLj.s 			page 34


 1931 0112 94F84530 		ldrb	r3, [r4, #69]	@ zero_extendqisi2
 1932 0116 5BB2     		sxtb	r3, r3
 1933 0118 B3F1FF3F 		cmp	r3, #-1
 1934 011c CFD0     		beq	.L293
 1935              	.L279:
 1936 011e FFF7FEFF 		bl	vPortExitCritical
 1937 0122 01A9     		add	r1, sp, #4
 1938 0124 02A8     		add	r0, sp, #8
 1939 0126 FFF7FEFF 		bl	xTaskCheckForTimeOut
 1940 012a 0028     		cmp	r0, #0
 1941 012c D1D1     		bne	.L280
 1942 012e 2046     		mov	r0, r4
 1943 0130 FFF7FEFF 		bl	prvIsQueueEmpty
 1944 0134 0028     		cmp	r0, #0
 1945 0136 C6D0     		beq	.L281
 1946 0138 0199     		ldr	r1, [sp, #4]
 1947 013a 04F12400 		add	r0, r4, #36
 1948 013e FFF7FEFF 		bl	vTaskPlaceOnEventList
 1949 0142 2046     		mov	r0, r4
 1950 0144 FFF7FEFF 		bl	prvUnlockQueue
 1951 0148 FFF7FEFF 		bl	xTaskResumeAll
 1952 014c 0028     		cmp	r0, #0
 1953 014e CAD1     		bne	.L272
 1954 0150 4FF0E023 		mov	r3, #-536813568
 1955 0154 4FF08052 		mov	r2, #268435456
 1956 0158 C3F8042D 		str	r2, [r3, #3332]
 1957              		.syntax unified
 1958              	@ 1745 "Middlewares/Third_Party/FreeRTOS/Source/queue.c" 1
 1959 015c BFF34F8F 		dsb
 1960              	@ 0 "" 2
 1961              	@ 1745 "Middlewares/Third_Party/FreeRTOS/Source/queue.c" 1
 1962 0160 BFF36F8F 		isb
 1963              	@ 0 "" 2
 1964              		.thumb
 1965              		.syntax unified
 1966 0164 BFE7     		b	.L272
 1967              	.L288:
 1968 0166 0020     		movs	r0, #0
 1969 0168 89E7     		b	.L265
 1971              		.section	.text.xQueueReceiveFromISR,"ax",%progbits
 1972              		.align	1
 1973              		.global	xQueueReceiveFromISR
 1974              		.syntax unified
 1975              		.thumb
 1976              		.thumb_func
 1978              	xQueueReceiveFromISR:
 1979              		@ args = 0, pretend = 0, frame = 0
 1980              		@ frame_needed = 0, uses_anonymous_args = 0
 1981 0000 2DE9F843 		push	{r3, r4, r5, r6, r7, r8, r9, lr}
 1982 0004 C0B1     		cbz	r0, .L306
 1983 0006 0D46     		mov	r5, r1
 1984 0008 9046     		mov	r8, r2
 1985 000a 0446     		mov	r4, r0
 1986 000c F9B1     		cbz	r1, .L307
 1987              	.L297:
 1988 000e FFF7FEFF 		bl	vPortValidateInterruptPriority
 1989              		.syntax unified
ARM GAS  /var/folders/0f/x4_g94q9649fs6s33cksjfb00000gn/T//ccBm5pLj.s 			page 35


 1990              	@ 213 "Middlewares/Third_Party/FreeRTOS/Source/portable/GCC/ARM_CM7/r0p1/portmacro.h" 1
 1991 0012 EFF31187 			mrs r7, basepri											
 1992 0016 4FF05003 		mov r3, #80												
 1993 001a 72B6     		cpsid i													
 1994 001c 83F31188 		msr basepri, r3											
 1995 0020 BFF36F8F 		isb														
 1996 0024 BFF34F8F 		dsb														
 1997 0028 62B6     		cpsie i													
 1998              	
 1999              	@ 0 "" 2
 2000              		.thumb
 2001              		.syntax unified
 2002 002a A66B     		ldr	r6, [r4, #56]
 2003 002c EEB9     		cbnz	r6, .L308
 2004 002e 0020     		movs	r0, #0
 2005              	.L299:
 2006              		.syntax unified
 2007              	@ 233 "Middlewares/Third_Party/FreeRTOS/Source/portable/GCC/ARM_CM7/r0p1/portmacro.h" 1
 2008 0030 87F31188 			msr basepri, r7	
 2009              	@ 0 "" 2
 2010              		.thumb
 2011              		.syntax unified
 2012 0034 BDE8F883 		pop	{r3, r4, r5, r6, r7, r8, r9, pc}
 2013              	.L306:
 2014              		.syntax unified
 2015              	@ 195 "Middlewares/Third_Party/FreeRTOS/Source/portable/GCC/ARM_CM7/r0p1/portmacro.h" 1
 2016 0038 4FF05003 			mov r3, #80												
 2017 003c 72B6     		cpsid i													
 2018 003e 83F31188 		msr basepri, r3											
 2019 0042 BFF36F8F 		isb														
 2020 0046 BFF34F8F 		dsb														
 2021 004a 62B6     		cpsie i													
 2022              	
 2023              	@ 0 "" 2
 2024              		.thumb
 2025              		.syntax unified
 2026              	.L296:
 2027 004c FEE7     		b	.L296
 2028              	.L307:
 2029 004e 036C     		ldr	r3, [r0, #64]
 2030 0050 002B     		cmp	r3, #0
 2031 0052 DCD0     		beq	.L297
 2032              		.syntax unified
 2033              	@ 195 "Middlewares/Third_Party/FreeRTOS/Source/portable/GCC/ARM_CM7/r0p1/portmacro.h" 1
 2034 0054 4FF05003 			mov r3, #80												
 2035 0058 72B6     		cpsid i													
 2036 005a 83F31188 		msr basepri, r3											
 2037 005e BFF36F8F 		isb														
 2038 0062 BFF34F8F 		dsb														
 2039 0066 62B6     		cpsie i													
 2040              	
 2041              	@ 0 "" 2
 2042              		.thumb
 2043              		.syntax unified
 2044              	.L298:
 2045 0068 FEE7     		b	.L298
 2046              	.L308:
ARM GAS  /var/folders/0f/x4_g94q9649fs6s33cksjfb00000gn/T//ccBm5pLj.s 			page 36


 2047 006a 94F84490 		ldrb	r9, [r4, #68]	@ zero_extendqisi2
 2048 006e 4FFA89F9 		sxtb	r9, r9
 2049 0072 2946     		mov	r1, r5
 2050 0074 2046     		mov	r0, r4
 2051 0076 FFF7FEFF 		bl	prvCopyDataFromQueue
 2052 007a 731E     		subs	r3, r6, #1
 2053 007c A363     		str	r3, [r4, #56]
 2054 007e B9F1FF3F 		cmp	r9, #-1
 2055 0082 06D0     		beq	.L309
 2056 0084 09F10103 		add	r3, r9, #1
 2057 0088 5BB2     		sxtb	r3, r3
 2058 008a 84F84430 		strb	r3, [r4, #68]
 2059 008e 0120     		movs	r0, #1
 2060 0090 CEE7     		b	.L299
 2061              	.L309:
 2062 0092 2369     		ldr	r3, [r4, #16]
 2063 0094 0BB9     		cbnz	r3, .L310
 2064 0096 0120     		movs	r0, #1
 2065 0098 CAE7     		b	.L299
 2066              	.L310:
 2067 009a 04F11000 		add	r0, r4, #16
 2068 009e FFF7FEFF 		bl	xTaskRemoveFromEventList
 2069 00a2 30B1     		cbz	r0, .L303
 2070 00a4 B8F1000F 		cmp	r8, #0
 2071 00a8 05D0     		beq	.L304
 2072 00aa 0120     		movs	r0, #1
 2073 00ac C8F80000 		str	r0, [r8]
 2074 00b0 BEE7     		b	.L299
 2075              	.L303:
 2076 00b2 0120     		movs	r0, #1
 2077 00b4 BCE7     		b	.L299
 2078              	.L304:
 2079 00b6 0120     		movs	r0, #1
 2080 00b8 BAE7     		b	.L299
 2082              		.section	.text.xQueuePeekFromISR,"ax",%progbits
 2083              		.align	1
 2084              		.global	xQueuePeekFromISR
 2085              		.syntax unified
 2086              		.thumb
 2087              		.thumb_func
 2089              	xQueuePeekFromISR:
 2090              		@ args = 0, pretend = 0, frame = 0
 2091              		@ frame_needed = 0, uses_anonymous_args = 0
 2092 0000 F8B5     		push	{r3, r4, r5, r6, r7, lr}
 2093 0002 78B1     		cbz	r0, .L321
 2094 0004 0D46     		mov	r5, r1
 2095 0006 0446     		mov	r4, r0
 2096 0008 B9B1     		cbz	r1, .L322
 2097              	.L314:
 2098 000a 236C     		ldr	r3, [r4, #64]
 2099 000c 1BBB     		cbnz	r3, .L316
 2100              		.syntax unified
 2101              	@ 195 "Middlewares/Third_Party/FreeRTOS/Source/portable/GCC/ARM_CM7/r0p1/portmacro.h" 1
 2102 000e 4FF05003 			mov r3, #80												
 2103 0012 72B6     		cpsid i													
 2104 0014 83F31188 		msr basepri, r3											
 2105 0018 BFF36F8F 		isb														
ARM GAS  /var/folders/0f/x4_g94q9649fs6s33cksjfb00000gn/T//ccBm5pLj.s 			page 37


 2106 001c BFF34F8F 		dsb														
 2107 0020 62B6     		cpsie i													
 2108              	
 2109              	@ 0 "" 2
 2110              		.thumb
 2111              		.syntax unified
 2112              	.L317:
 2113 0022 FEE7     		b	.L317
 2114              	.L321:
 2115              		.syntax unified
 2116              	@ 195 "Middlewares/Third_Party/FreeRTOS/Source/portable/GCC/ARM_CM7/r0p1/portmacro.h" 1
 2117 0024 4FF05003 			mov r3, #80												
 2118 0028 72B6     		cpsid i													
 2119 002a 83F31188 		msr basepri, r3											
 2120 002e BFF36F8F 		isb														
 2121 0032 BFF34F8F 		dsb														
 2122 0036 62B6     		cpsie i													
 2123              	
 2124              	@ 0 "" 2
 2125              		.thumb
 2126              		.syntax unified
 2127              	.L313:
 2128 0038 FEE7     		b	.L313
 2129              	.L322:
 2130 003a 036C     		ldr	r3, [r0, #64]
 2131 003c 002B     		cmp	r3, #0
 2132 003e E4D0     		beq	.L314
 2133              		.syntax unified
 2134              	@ 195 "Middlewares/Third_Party/FreeRTOS/Source/portable/GCC/ARM_CM7/r0p1/portmacro.h" 1
 2135 0040 4FF05003 			mov r3, #80												
 2136 0044 72B6     		cpsid i													
 2137 0046 83F31188 		msr basepri, r3											
 2138 004a BFF36F8F 		isb														
 2139 004e BFF34F8F 		dsb														
 2140 0052 62B6     		cpsie i													
 2141              	
 2142              	@ 0 "" 2
 2143              		.thumb
 2144              		.syntax unified
 2145              	.L315:
 2146 0054 FEE7     		b	.L315
 2147              	.L316:
 2148 0056 FFF7FEFF 		bl	vPortValidateInterruptPriority
 2149              		.syntax unified
 2150              	@ 213 "Middlewares/Third_Party/FreeRTOS/Source/portable/GCC/ARM_CM7/r0p1/portmacro.h" 1
 2151 005a EFF31186 			mrs r6, basepri											
 2152 005e 4FF05003 		mov r3, #80												
 2153 0062 72B6     		cpsid i													
 2154 0064 83F31188 		msr basepri, r3											
 2155 0068 BFF36F8F 		isb														
 2156 006c BFF34F8F 		dsb														
 2157 0070 62B6     		cpsie i													
 2158              	
 2159              	@ 0 "" 2
 2160              		.thumb
 2161              		.syntax unified
 2162 0072 A36B     		ldr	r3, [r4, #56]
ARM GAS  /var/folders/0f/x4_g94q9649fs6s33cksjfb00000gn/T//ccBm5pLj.s 			page 38


 2163 0074 1BB9     		cbnz	r3, .L323
 2164 0076 0020     		movs	r0, #0
 2165              	.L318:
 2166              		.syntax unified
 2167              	@ 233 "Middlewares/Third_Party/FreeRTOS/Source/portable/GCC/ARM_CM7/r0p1/portmacro.h" 1
 2168 0078 86F31188 			msr basepri, r6	
 2169              	@ 0 "" 2
 2170              		.thumb
 2171              		.syntax unified
 2172 007c F8BD     		pop	{r3, r4, r5, r6, r7, pc}
 2173              	.L323:
 2174 007e E768     		ldr	r7, [r4, #12]
 2175 0080 2946     		mov	r1, r5
 2176 0082 2046     		mov	r0, r4
 2177 0084 FFF7FEFF 		bl	prvCopyDataFromQueue
 2178 0088 E760     		str	r7, [r4, #12]
 2179 008a 0120     		movs	r0, #1
 2180 008c F4E7     		b	.L318
 2182              		.section	.text.uxQueueMessagesWaiting,"ax",%progbits
 2183              		.align	1
 2184              		.global	uxQueueMessagesWaiting
 2185              		.syntax unified
 2186              		.thumb
 2187              		.thumb_func
 2189              	uxQueueMessagesWaiting:
 2190              		@ args = 0, pretend = 0, frame = 0
 2191              		@ frame_needed = 0, uses_anonymous_args = 0
 2192 0000 40B1     		cbz	r0, .L329
 2193 0002 10B5     		push	{r4, lr}
 2194 0004 0446     		mov	r4, r0
 2195 0006 FFF7FEFF 		bl	vPortEnterCritical
 2196 000a A46B     		ldr	r4, [r4, #56]
 2197 000c FFF7FEFF 		bl	vPortExitCritical
 2198 0010 2046     		mov	r0, r4
 2199 0012 10BD     		pop	{r4, pc}
 2200              	.L329:
 2201              		.syntax unified
 2202              	@ 195 "Middlewares/Third_Party/FreeRTOS/Source/portable/GCC/ARM_CM7/r0p1/portmacro.h" 1
 2203 0014 4FF05003 			mov r3, #80												
 2204 0018 72B6     		cpsid i													
 2205 001a 83F31188 		msr basepri, r3											
 2206 001e BFF36F8F 		isb														
 2207 0022 BFF34F8F 		dsb														
 2208 0026 62B6     		cpsie i													
 2209              	
 2210              	@ 0 "" 2
 2211              		.thumb
 2212              		.syntax unified
 2213              	.L326:
 2214 0028 FEE7     		b	.L326
 2216              		.section	.text.uxQueueSpacesAvailable,"ax",%progbits
 2217              		.align	1
 2218              		.global	uxQueueSpacesAvailable
 2219              		.syntax unified
 2220              		.thumb
 2221              		.thumb_func
 2223              	uxQueueSpacesAvailable:
ARM GAS  /var/folders/0f/x4_g94q9649fs6s33cksjfb00000gn/T//ccBm5pLj.s 			page 39


 2224              		@ args = 0, pretend = 0, frame = 0
 2225              		@ frame_needed = 0, uses_anonymous_args = 0
 2226 0000 38B5     		push	{r3, r4, r5, lr}
 2227 0002 48B1     		cbz	r0, .L334
 2228 0004 0546     		mov	r5, r0
 2229 0006 FFF7FEFF 		bl	vPortEnterCritical
 2230 000a EC6B     		ldr	r4, [r5, #60]
 2231 000c AB6B     		ldr	r3, [r5, #56]
 2232 000e E41A     		subs	r4, r4, r3
 2233 0010 FFF7FEFF 		bl	vPortExitCritical
 2234 0014 2046     		mov	r0, r4
 2235 0016 38BD     		pop	{r3, r4, r5, pc}
 2236              	.L334:
 2237              		.syntax unified
 2238              	@ 195 "Middlewares/Third_Party/FreeRTOS/Source/portable/GCC/ARM_CM7/r0p1/portmacro.h" 1
 2239 0018 4FF05003 			mov r3, #80												
 2240 001c 72B6     		cpsid i													
 2241 001e 83F31188 		msr basepri, r3											
 2242 0022 BFF36F8F 		isb														
 2243 0026 BFF34F8F 		dsb														
 2244 002a 62B6     		cpsie i													
 2245              	
 2246              	@ 0 "" 2
 2247              		.thumb
 2248              		.syntax unified
 2249              	.L332:
 2250 002c FEE7     		b	.L332
 2252              		.section	.text.uxQueueMessagesWaitingFromISR,"ax",%progbits
 2253              		.align	1
 2254              		.global	uxQueueMessagesWaitingFromISR
 2255              		.syntax unified
 2256              		.thumb
 2257              		.thumb_func
 2259              	uxQueueMessagesWaitingFromISR:
 2260              		@ args = 0, pretend = 0, frame = 0
 2261              		@ frame_needed = 0, uses_anonymous_args = 0
 2262              		@ link register save eliminated.
 2263 0000 08B1     		cbz	r0, .L338
 2264 0002 806B     		ldr	r0, [r0, #56]
 2265 0004 7047     		bx	lr
 2266              	.L338:
 2267              		.syntax unified
 2268              	@ 195 "Middlewares/Third_Party/FreeRTOS/Source/portable/GCC/ARM_CM7/r0p1/portmacro.h" 1
 2269 0006 4FF05003 			mov r3, #80												
 2270 000a 72B6     		cpsid i													
 2271 000c 83F31188 		msr basepri, r3											
 2272 0010 BFF36F8F 		isb														
 2273 0014 BFF34F8F 		dsb														
 2274 0018 62B6     		cpsie i													
 2275              	
 2276              	@ 0 "" 2
 2277              		.thumb
 2278              		.syntax unified
 2279              	.L337:
 2280 001a FEE7     		b	.L337
 2282              		.section	.text.uxQueueGetQueueNumber,"ax",%progbits
 2283              		.align	1
ARM GAS  /var/folders/0f/x4_g94q9649fs6s33cksjfb00000gn/T//ccBm5pLj.s 			page 40


 2284              		.global	uxQueueGetQueueNumber
 2285              		.syntax unified
 2286              		.thumb
 2287              		.thumb_func
 2289              	uxQueueGetQueueNumber:
 2290              		@ args = 0, pretend = 0, frame = 0
 2291              		@ frame_needed = 0, uses_anonymous_args = 0
 2292              		@ link register save eliminated.
 2293 0000 806C     		ldr	r0, [r0, #72]
 2294 0002 7047     		bx	lr
 2296              		.section	.text.vQueueSetQueueNumber,"ax",%progbits
 2297              		.align	1
 2298              		.global	vQueueSetQueueNumber
 2299              		.syntax unified
 2300              		.thumb
 2301              		.thumb_func
 2303              	vQueueSetQueueNumber:
 2304              		@ args = 0, pretend = 0, frame = 0
 2305              		@ frame_needed = 0, uses_anonymous_args = 0
 2306              		@ link register save eliminated.
 2307 0000 8164     		str	r1, [r0, #72]
 2308 0002 7047     		bx	lr
 2310              		.section	.text.ucQueueGetQueueType,"ax",%progbits
 2311              		.align	1
 2312              		.global	ucQueueGetQueueType
 2313              		.syntax unified
 2314              		.thumb
 2315              		.thumb_func
 2317              	ucQueueGetQueueType:
 2318              		@ args = 0, pretend = 0, frame = 0
 2319              		@ frame_needed = 0, uses_anonymous_args = 0
 2320              		@ link register save eliminated.
 2321 0000 90F84C00 		ldrb	r0, [r0, #76]	@ zero_extendqisi2
 2322 0004 7047     		bx	lr
 2324              		.section	.text.xQueueIsQueueEmptyFromISR,"ax",%progbits
 2325              		.align	1
 2326              		.global	xQueueIsQueueEmptyFromISR
 2327              		.syntax unified
 2328              		.thumb
 2329              		.thumb_func
 2331              	xQueueIsQueueEmptyFromISR:
 2332              		@ args = 0, pretend = 0, frame = 0
 2333              		@ frame_needed = 0, uses_anonymous_args = 0
 2334              		@ link register save eliminated.
 2335 0000 18B1     		cbz	r0, .L347
 2336 0002 836B     		ldr	r3, [r0, #56]
 2337 0004 63B9     		cbnz	r3, .L346
 2338 0006 0120     		movs	r0, #1
 2339 0008 7047     		bx	lr
 2340              	.L347:
 2341              		.syntax unified
 2342              	@ 195 "Middlewares/Third_Party/FreeRTOS/Source/portable/GCC/ARM_CM7/r0p1/portmacro.h" 1
 2343 000a 4FF05003 			mov r3, #80												
 2344 000e 72B6     		cpsid i													
 2345 0010 83F31188 		msr basepri, r3											
 2346 0014 BFF36F8F 		isb														
 2347 0018 BFF34F8F 		dsb														
ARM GAS  /var/folders/0f/x4_g94q9649fs6s33cksjfb00000gn/T//ccBm5pLj.s 			page 41


 2348 001c 62B6     		cpsie i													
 2349              	
 2350              	@ 0 "" 2
 2351              		.thumb
 2352              		.syntax unified
 2353              	.L344:
 2354 001e FEE7     		b	.L344
 2355              	.L346:
 2356 0020 0020     		movs	r0, #0
 2357 0022 7047     		bx	lr
 2359              		.section	.text.xQueueIsQueueFullFromISR,"ax",%progbits
 2360              		.align	1
 2361              		.global	xQueueIsQueueFullFromISR
 2362              		.syntax unified
 2363              		.thumb
 2364              		.thumb_func
 2366              	xQueueIsQueueFullFromISR:
 2367              		@ args = 0, pretend = 0, frame = 0
 2368              		@ frame_needed = 0, uses_anonymous_args = 0
 2369              		@ link register save eliminated.
 2370 0000 28B1     		cbz	r0, .L353
 2371 0002 826B     		ldr	r2, [r0, #56]
 2372 0004 C36B     		ldr	r3, [r0, #60]
 2373 0006 9A42     		cmp	r2, r3
 2374 0008 0CD0     		beq	.L354
 2375 000a 0020     		movs	r0, #0
 2376 000c 7047     		bx	lr
 2377              	.L353:
 2378              		.syntax unified
 2379              	@ 195 "Middlewares/Third_Party/FreeRTOS/Source/portable/GCC/ARM_CM7/r0p1/portmacro.h" 1
 2380 000e 4FF05003 			mov r3, #80												
 2381 0012 72B6     		cpsid i													
 2382 0014 83F31188 		msr basepri, r3											
 2383 0018 BFF36F8F 		isb														
 2384 001c BFF34F8F 		dsb														
 2385 0020 62B6     		cpsie i													
 2386              	
 2387              	@ 0 "" 2
 2388              		.thumb
 2389              		.syntax unified
 2390              	.L350:
 2391 0022 FEE7     		b	.L350
 2392              	.L354:
 2393 0024 0120     		movs	r0, #1
 2394 0026 7047     		bx	lr
 2396              		.section	.text.vQueueAddToRegistry,"ax",%progbits
 2397              		.align	1
 2398              		.global	vQueueAddToRegistry
 2399              		.syntax unified
 2400              		.thumb
 2401              		.thumb_func
 2403              	vQueueAddToRegistry:
 2404              		@ args = 0, pretend = 0, frame = 0
 2405              		@ frame_needed = 0, uses_anonymous_args = 0
 2406              		@ link register save eliminated.
 2407 0000 0023     		movs	r3, #0
 2408              	.L356:
ARM GAS  /var/folders/0f/x4_g94q9649fs6s33cksjfb00000gn/T//ccBm5pLj.s 			page 42


 2409 0002 072B     		cmp	r3, #7
 2410 0004 0CD8     		bhi	.L360
 2411 0006 074A     		ldr	r2, .L362
 2412 0008 52F83320 		ldr	r2, [r2, r3, lsl #3]
 2413 000c 0AB1     		cbz	r2, .L361
 2414 000e 0133     		adds	r3, r3, #1
 2415 0010 F7E7     		b	.L356
 2416              	.L361:
 2417 0012 044A     		ldr	r2, .L362
 2418 0014 42F83310 		str	r1, [r2, r3, lsl #3]
 2419 0018 02EBC302 		add	r2, r2, r3, lsl #3
 2420 001c 5060     		str	r0, [r2, #4]
 2421 001e 7047     		bx	lr
 2422              	.L360:
 2423 0020 7047     		bx	lr
 2424              	.L363:
 2425 0022 00BF     		.align	2
 2426              	.L362:
 2427 0024 00000000 		.word	xQueueRegistry
 2429              		.section	.text.pcQueueGetName,"ax",%progbits
 2430              		.align	1
 2431              		.global	pcQueueGetName
 2432              		.syntax unified
 2433              		.thumb
 2434              		.thumb_func
 2436              	pcQueueGetName:
 2437              		@ args = 0, pretend = 0, frame = 0
 2438              		@ frame_needed = 0, uses_anonymous_args = 0
 2439              		@ link register save eliminated.
 2440 0000 0023     		movs	r3, #0
 2441              	.L365:
 2442 0002 072B     		cmp	r3, #7
 2443 0004 0BD8     		bhi	.L369
 2444 0006 074A     		ldr	r2, .L371
 2445 0008 02EBC302 		add	r2, r2, r3, lsl #3
 2446 000c 5268     		ldr	r2, [r2, #4]
 2447 000e 8242     		cmp	r2, r0
 2448 0010 01D0     		beq	.L370
 2449 0012 0133     		adds	r3, r3, #1
 2450 0014 F5E7     		b	.L365
 2451              	.L370:
 2452 0016 034A     		ldr	r2, .L371
 2453 0018 52F83300 		ldr	r0, [r2, r3, lsl #3]
 2454 001c 7047     		bx	lr
 2455              	.L369:
 2456 001e 0020     		movs	r0, #0
 2457 0020 7047     		bx	lr
 2458              	.L372:
 2459 0022 00BF     		.align	2
 2460              	.L371:
 2461 0024 00000000 		.word	xQueueRegistry
 2463              		.section	.text.vQueueUnregisterQueue,"ax",%progbits
 2464              		.align	1
 2465              		.global	vQueueUnregisterQueue
 2466              		.syntax unified
 2467              		.thumb
 2468              		.thumb_func
ARM GAS  /var/folders/0f/x4_g94q9649fs6s33cksjfb00000gn/T//ccBm5pLj.s 			page 43


 2470              	vQueueUnregisterQueue:
 2471              		@ args = 0, pretend = 0, frame = 0
 2472              		@ frame_needed = 0, uses_anonymous_args = 0
 2473              		@ link register save eliminated.
 2474 0000 0023     		movs	r3, #0
 2475              	.L374:
 2476 0002 072B     		cmp	r3, #7
 2477 0004 0FD8     		bhi	.L378
 2478 0006 084A     		ldr	r2, .L380
 2479 0008 02EBC302 		add	r2, r2, r3, lsl #3
 2480 000c 5268     		ldr	r2, [r2, #4]
 2481 000e 8242     		cmp	r2, r0
 2482 0010 01D0     		beq	.L379
 2483 0012 0133     		adds	r3, r3, #1
 2484 0014 F5E7     		b	.L374
 2485              	.L379:
 2486 0016 044A     		ldr	r2, .L380
 2487 0018 0021     		movs	r1, #0
 2488 001a 42F83310 		str	r1, [r2, r3, lsl #3]
 2489 001e 02EBC302 		add	r2, r2, r3, lsl #3
 2490 0022 5160     		str	r1, [r2, #4]
 2491 0024 7047     		bx	lr
 2492              	.L378:
 2493 0026 7047     		bx	lr
 2494              	.L381:
 2495              		.align	2
 2496              	.L380:
 2497 0028 00000000 		.word	xQueueRegistry
 2499              		.section	.text.vQueueDelete,"ax",%progbits
 2500              		.align	1
 2501              		.global	vQueueDelete
 2502              		.syntax unified
 2503              		.thumb
 2504              		.thumb_func
 2506              	vQueueDelete:
 2507              		@ args = 0, pretend = 0, frame = 0
 2508              		@ frame_needed = 0, uses_anonymous_args = 0
 2509 0000 38B1     		cbz	r0, .L388
 2510 0002 10B5     		push	{r4, lr}
 2511 0004 0446     		mov	r4, r0
 2512 0006 FFF7FEFF 		bl	vQueueUnregisterQueue
 2513 000a 94F84630 		ldrb	r3, [r4, #70]	@ zero_extendqisi2
 2514 000e 5BB1     		cbz	r3, .L389
 2515              	.L382:
 2516 0010 10BD     		pop	{r4, pc}
 2517              	.L388:
 2518              		.syntax unified
 2519              	@ 195 "Middlewares/Third_Party/FreeRTOS/Source/portable/GCC/ARM_CM7/r0p1/portmacro.h" 1
 2520 0012 4FF05003 			mov r3, #80												
 2521 0016 72B6     		cpsid i													
 2522 0018 83F31188 		msr basepri, r3											
 2523 001c BFF36F8F 		isb														
 2524 0020 BFF34F8F 		dsb														
 2525 0024 62B6     		cpsie i													
 2526              	
 2527              	@ 0 "" 2
 2528              		.thumb
ARM GAS  /var/folders/0f/x4_g94q9649fs6s33cksjfb00000gn/T//ccBm5pLj.s 			page 44


 2529              		.syntax unified
 2530              	.L384:
 2531 0026 FEE7     		b	.L384
 2532              	.L389:
 2533 0028 2046     		mov	r0, r4
 2534 002a FFF7FEFF 		bl	vPortFree
 2535 002e EFE7     		b	.L382
 2537              		.section	.text.vQueueWaitForMessageRestricted,"ax",%progbits
 2538              		.align	1
 2539              		.global	vQueueWaitForMessageRestricted
 2540              		.syntax unified
 2541              		.thumb
 2542              		.thumb_func
 2544              	vQueueWaitForMessageRestricted:
 2545              		@ args = 0, pretend = 0, frame = 0
 2546              		@ frame_needed = 0, uses_anonymous_args = 0
 2547 0000 70B5     		push	{r4, r5, r6, lr}
 2548 0002 0446     		mov	r4, r0
 2549 0004 0D46     		mov	r5, r1
 2550 0006 1646     		mov	r6, r2
 2551 0008 FFF7FEFF 		bl	vPortEnterCritical
 2552 000c 94F84430 		ldrb	r3, [r4, #68]	@ zero_extendqisi2
 2553 0010 5BB2     		sxtb	r3, r3
 2554 0012 B3F1FF3F 		cmp	r3, #-1
 2555 0016 0DD0     		beq	.L395
 2556              	.L391:
 2557 0018 94F84530 		ldrb	r3, [r4, #69]	@ zero_extendqisi2
 2558 001c 5BB2     		sxtb	r3, r3
 2559 001e B3F1FF3F 		cmp	r3, #-1
 2560 0022 0BD0     		beq	.L396
 2561              	.L392:
 2562 0024 FFF7FEFF 		bl	vPortExitCritical
 2563 0028 A36B     		ldr	r3, [r4, #56]
 2564 002a 5BB1     		cbz	r3, .L397
 2565              	.L393:
 2566 002c 2046     		mov	r0, r4
 2567 002e FFF7FEFF 		bl	prvUnlockQueue
 2568 0032 70BD     		pop	{r4, r5, r6, pc}
 2569              	.L395:
 2570 0034 0023     		movs	r3, #0
 2571 0036 84F84430 		strb	r3, [r4, #68]
 2572 003a EDE7     		b	.L391
 2573              	.L396:
 2574 003c 0023     		movs	r3, #0
 2575 003e 84F84530 		strb	r3, [r4, #69]
 2576 0042 EFE7     		b	.L392
 2577              	.L397:
 2578 0044 3246     		mov	r2, r6
 2579 0046 2946     		mov	r1, r5
 2580 0048 04F12400 		add	r0, r4, #36
 2581 004c FFF7FEFF 		bl	vTaskPlaceOnEventListRestricted
 2582 0050 ECE7     		b	.L393
 2584              		.global	xQueueRegistry
 2585              		.section	.bss.xQueueRegistry,"aw",%nobits
 2586              		.align	2
 2589              	xQueueRegistry:
 2590 0000 00000000 		.space	64
ARM GAS  /var/folders/0f/x4_g94q9649fs6s33cksjfb00000gn/T//ccBm5pLj.s 			page 45


 2590      00000000 
 2590      00000000 
 2590      00000000 
 2590      00000000 
 2591              		.ident	"GCC: (Arm GNU Toolchain 14.2.Rel1 (Build arm-14.52)) 14.2.1 20241119"
ARM GAS  /var/folders/0f/x4_g94q9649fs6s33cksjfb00000gn/T//ccBm5pLj.s 			page 46

