ARM GAS  /var/folders/0f/x4_g94q9649fs6s33cksjfb00000gn/T//ccVGBTVs.s 			page 1


   1              		.cpu cortex-m7
   2              		.arch armv7e-m
   3              		.fpu fpv5-d16
   4              		.eabi_attribute 28, 1
   5              		.eabi_attribute 20, 1
   6              		.eabi_attribute 21, 1
   7              		.eabi_attribute 23, 3
   8              		.eabi_attribute 24, 1
   9              		.eabi_attribute 25, 1
  10              		.eabi_attribute 26, 1
  11              		.eabi_attribute 30, 1
  12              		.eabi_attribute 34, 1
  13              		.eabi_attribute 18, 4
  14              		.file	"stm32f7xx_hal_dma_ex.c"
  15              		.text
  16              		.section	.text.DMA_MultiBufferSetConfig,"ax",%progbits
  17              		.align	1
  18              		.syntax unified
  19              		.thumb
  20              		.thumb_func
  22              	DMA_MultiBufferSetConfig:
  23              		@ args = 0, pretend = 0, frame = 0
  24              		@ frame_needed = 0, uses_anonymous_args = 0
  25              		@ link register save eliminated.
  26 0000 10B4     		push	{r4}
  27 0002 0468     		ldr	r4, [r0]
  28 0004 6360     		str	r3, [r4, #4]
  29 0006 8368     		ldr	r3, [r0, #8]
  30 0008 402B     		cmp	r3, #64
  31 000a 06D0     		beq	.L5
  32 000c 0368     		ldr	r3, [r0]
  33 000e 9960     		str	r1, [r3, #8]
  34 0010 0368     		ldr	r3, [r0]
  35 0012 DA60     		str	r2, [r3, #12]
  36              	.L1:
  37 0014 5DF8044B 		ldr	r4, [sp], #4
  38 0018 7047     		bx	lr
  39              	.L5:
  40 001a 0368     		ldr	r3, [r0]
  41 001c 9A60     		str	r2, [r3, #8]
  42 001e 0368     		ldr	r3, [r0]
  43 0020 D960     		str	r1, [r3, #12]
  44 0022 F7E7     		b	.L1
  46              		.section	.text.HAL_DMAEx_MultiBufferStart,"ax",%progbits
  47              		.align	1
  48              		.global	HAL_DMAEx_MultiBufferStart
  49              		.syntax unified
  50              		.thumb
  51              		.thumb_func
  53              	HAL_DMAEx_MultiBufferStart:
  54              		@ args = 4, pretend = 0, frame = 0
  55              		@ frame_needed = 0, uses_anonymous_args = 0
  56 0000 38B5     		push	{r3, r4, r5, lr}
  57 0002 0446     		mov	r4, r0
  58 0004 8068     		ldr	r0, [r0, #8]
  59 0006 8028     		cmp	r0, #128
  60 0008 0CD0     		beq	.L12
ARM GAS  /var/folders/0f/x4_g94q9649fs6s33cksjfb00000gn/T//ccVGBTVs.s 			page 2


  61 000a 94F83400 		ldrb	r0, [r4, #52]	@ zero_extendqisi2
  62 000e 0128     		cmp	r0, #1
  63 0010 22D0     		beq	.L9
  64 0012 0120     		movs	r0, #1
  65 0014 84F83400 		strb	r0, [r4, #52]
  66 0018 94F83500 		ldrb	r0, [r4, #53]	@ zero_extendqisi2
  67 001c 0128     		cmp	r0, #1
  68 001e 06D0     		beq	.L13
  69 0020 0220     		movs	r0, #2
  70              	.L8:
  71 0022 38BD     		pop	{r3, r4, r5, pc}
  72              	.L12:
  73 0024 4FF48073 		mov	r3, #256
  74 0028 6365     		str	r3, [r4, #84]
  75 002a 0120     		movs	r0, #1
  76 002c F9E7     		b	.L8
  77              	.L13:
  78 002e 0220     		movs	r0, #2
  79 0030 84F83500 		strb	r0, [r4, #53]
  80 0034 2568     		ldr	r5, [r4]
  81 0036 2868     		ldr	r0, [r5]
  82 0038 40F48020 		orr	r0, r0, #262144
  83 003c 2860     		str	r0, [r5]
  84 003e 2068     		ldr	r0, [r4]
  85 0040 0361     		str	r3, [r0, #16]
  86 0042 049B     		ldr	r3, [sp, #16]
  87 0044 2046     		mov	r0, r4
  88 0046 FFF7FEFF 		bl	DMA_MultiBufferSetConfig
  89 004a 2268     		ldr	r2, [r4]
  90 004c 1368     		ldr	r3, [r2]
  91 004e 43F00103 		orr	r3, r3, #1
  92 0052 1360     		str	r3, [r2]
  93 0054 0020     		movs	r0, #0
  94 0056 E4E7     		b	.L8
  95              	.L9:
  96 0058 0220     		movs	r0, #2
  97 005a E2E7     		b	.L8
  99              		.section	.text.HAL_DMAEx_MultiBufferStart_IT,"ax",%progbits
 100              		.align	1
 101              		.global	HAL_DMAEx_MultiBufferStart_IT
 102              		.syntax unified
 103              		.thumb
 104              		.thumb_func
 106              	HAL_DMAEx_MultiBufferStart_IT:
 107              		@ args = 4, pretend = 0, frame = 0
 108              		@ frame_needed = 0, uses_anonymous_args = 0
 109 0000 38B5     		push	{r3, r4, r5, lr}
 110 0002 0446     		mov	r4, r0
 111 0004 8068     		ldr	r0, [r0, #8]
 112 0006 8028     		cmp	r0, #128
 113 0008 10D0     		beq	.L302
 114 000a 94F83400 		ldrb	r0, [r4, #52]	@ zero_extendqisi2
 115 000e 0128     		cmp	r0, #1
 116 0010 00F06387 		beq	.L60
 117 0014 0120     		movs	r0, #1
 118 0016 84F83400 		strb	r0, [r4, #52]
 119 001a 94F83500 		ldrb	r0, [r4, #53]	@ zero_extendqisi2
ARM GAS  /var/folders/0f/x4_g94q9649fs6s33cksjfb00000gn/T//ccVGBTVs.s 			page 3


 120 001e 0128     		cmp	r0, #1
 121 0020 09D0     		beq	.L303
 122 0022 0023     		movs	r3, #0
 123 0024 84F83430 		strb	r3, [r4, #52]
 124 0028 0220     		movs	r0, #2
 125              	.L16:
 126 002a 38BD     		pop	{r3, r4, r5, pc}
 127              	.L302:
 128 002c 4FF48073 		mov	r3, #256
 129 0030 6365     		str	r3, [r4, #84]
 130 0032 0120     		movs	r0, #1
 131 0034 F9E7     		b	.L16
 132              	.L303:
 133 0036 0220     		movs	r0, #2
 134 0038 84F83500 		strb	r0, [r4, #53]
 135 003c 0020     		movs	r0, #0
 136 003e 6065     		str	r0, [r4, #84]
 137 0040 2568     		ldr	r5, [r4]
 138 0042 2868     		ldr	r0, [r5]
 139 0044 40F48020 		orr	r0, r0, #262144
 140 0048 2860     		str	r0, [r5]
 141 004a 2068     		ldr	r0, [r4]
 142 004c 0361     		str	r3, [r0, #16]
 143 004e 049B     		ldr	r3, [sp, #16]
 144 0050 2046     		mov	r0, r4
 145 0052 FFF7FEFF 		bl	DMA_MultiBufferSetConfig
 146 0056 2368     		ldr	r3, [r4]
 147 0058 A44A     		ldr	r2, .L325
 148 005a 9342     		cmp	r3, r2
 149 005c 40F29880 		bls	.L18
 150 0060 A2F58962 		sub	r2, r2, #1096
 151 0064 9342     		cmp	r3, r2
 152 0066 31D0     		beq	.L61
 153 0068 02F58062 		add	r2, r2, #1024
 154 006c 9342     		cmp	r3, r2
 155 006e 74D0     		beq	.L62
 156 0070 A2F56872 		sub	r2, r2, #928
 157 0074 9342     		cmp	r3, r2
 158 0076 72D0     		beq	.L63
 159 0078 02F58062 		add	r2, r2, #1024
 160 007c 9342     		cmp	r3, r2
 161 007e 70D0     		beq	.L64
 162 0080 A2F58962 		sub	r2, r2, #1096
 163 0084 9342     		cmp	r3, r2
 164 0086 6ED0     		beq	.L65
 165 0088 02F58062 		add	r2, r2, #1024
 166 008c 9342     		cmp	r3, r2
 167 008e 6DD0     		beq	.L66
 168 0090 A2F56872 		sub	r2, r2, #928
 169 0094 9342     		cmp	r3, r2
 170 0096 6CD0     		beq	.L67
 171 0098 02F58062 		add	r2, r2, #1024
 172 009c 9342     		cmp	r3, r2
 173 009e 6BD0     		beq	.L68
 174 00a0 A2F58962 		sub	r2, r2, #1096
 175 00a4 9342     		cmp	r3, r2
 176 00a6 6AD0     		beq	.L69
ARM GAS  /var/folders/0f/x4_g94q9649fs6s33cksjfb00000gn/T//ccVGBTVs.s 			page 4


 177 00a8 02F58062 		add	r2, r2, #1024
 178 00ac 9342     		cmp	r3, r2
 179 00ae 69D0     		beq	.L70
 180 00b0 A2F56872 		sub	r2, r2, #928
 181 00b4 9342     		cmp	r3, r2
 182 00b6 68D0     		beq	.L71
 183 00b8 02F58062 		add	r2, r2, #1024
 184 00bc 9342     		cmp	r3, r2
 185 00be 02D0     		beq	.L304
 186 00c0 4FF00062 		mov	r2, #134217728
 187 00c4 03E0     		b	.L19
 188              	.L304:
 189 00c6 4FF40012 		mov	r2, #2097152
 190 00ca 00E0     		b	.L19
 191              	.L61:
 192 00cc 2022     		movs	r2, #32
 193              	.L19:
 194 00ce 884B     		ldr	r3, .L325+4
 195 00d0 DA60     		str	r2, [r3, #12]
 196              	.L20:
 197 00d2 2368     		ldr	r3, [r4]
 198 00d4 854A     		ldr	r2, .L325
 199 00d6 9342     		cmp	r3, r2
 200 00d8 40F2CB81 		bls	.L26
 201 00dc A2F58962 		sub	r2, r2, #1096
 202 00e0 9342     		cmp	r3, r2
 203 00e2 00F06481 		beq	.L109
 204 00e6 02F58062 		add	r2, r2, #1024
 205 00ea 9342     		cmp	r3, r2
 206 00ec 00F0A681 		beq	.L110
 207 00f0 A2F56872 		sub	r2, r2, #928
 208 00f4 9342     		cmp	r3, r2
 209 00f6 00F0A381 		beq	.L111
 210 00fa 02F58062 		add	r2, r2, #1024
 211 00fe 9342     		cmp	r3, r2
 212 0100 00F0A081 		beq	.L112
 213 0104 A2F58962 		sub	r2, r2, #1096
 214 0108 9342     		cmp	r3, r2
 215 010a 00F09D81 		beq	.L113
 216 010e 02F58062 		add	r2, r2, #1024
 217 0112 9342     		cmp	r3, r2
 218 0114 00F09B81 		beq	.L114
 219 0118 A2F56872 		sub	r2, r2, #928
 220 011c 9342     		cmp	r3, r2
 221 011e 00F09981 		beq	.L115
 222 0122 02F58062 		add	r2, r2, #1024
 223 0126 9342     		cmp	r3, r2
 224 0128 00F09781 		beq	.L116
 225 012c A2F58962 		sub	r2, r2, #1096
 226 0130 9342     		cmp	r3, r2
 227 0132 00F09581 		beq	.L117
 228 0136 02F58062 		add	r2, r2, #1024
 229 013a 9342     		cmp	r3, r2
 230 013c 00F09381 		beq	.L118
 231 0140 A2F56872 		sub	r2, r2, #928
 232 0144 9342     		cmp	r3, r2
 233 0146 00F09181 		beq	.L119
ARM GAS  /var/folders/0f/x4_g94q9649fs6s33cksjfb00000gn/T//ccVGBTVs.s 			page 5


 234 014a 02F58062 		add	r2, r2, #1024
 235 014e 9342     		cmp	r3, r2
 236 0150 00F02A81 		beq	.L305
 237 0154 4FF08062 		mov	r2, #67108864
 238 0158 2AE1     		b	.L27
 239              	.L62:
 240 015a 2022     		movs	r2, #32
 241 015c B7E7     		b	.L19
 242              	.L63:
 243 015e 2022     		movs	r2, #32
 244 0160 B5E7     		b	.L19
 245              	.L64:
 246 0162 2022     		movs	r2, #32
 247 0164 B3E7     		b	.L19
 248              	.L65:
 249 0166 4FF40062 		mov	r2, #2048
 250 016a B0E7     		b	.L19
 251              	.L66:
 252 016c 4FF40062 		mov	r2, #2048
 253 0170 ADE7     		b	.L19
 254              	.L67:
 255 0172 4FF40062 		mov	r2, #2048
 256 0176 AAE7     		b	.L19
 257              	.L68:
 258 0178 4FF40062 		mov	r2, #2048
 259 017c A7E7     		b	.L19
 260              	.L69:
 261 017e 4FF40012 		mov	r2, #2097152
 262 0182 A4E7     		b	.L19
 263              	.L70:
 264 0184 4FF40012 		mov	r2, #2097152
 265 0188 A1E7     		b	.L19
 266              	.L71:
 267 018a 4FF40012 		mov	r2, #2097152
 268 018e 9EE7     		b	.L19
 269              	.L18:
 270 0190 584A     		ldr	r2, .L325+8
 271 0192 9342     		cmp	r3, r2
 272 0194 53D9     		bls	.L21
 273 0196 A83A     		subs	r2, r2, #168
 274 0198 9342     		cmp	r3, r2
 275 019a 31D0     		beq	.L73
 276 019c 02F58062 		add	r2, r2, #1024
 277 01a0 9342     		cmp	r3, r2
 278 01a2 31D0     		beq	.L74
 279 01a4 A2F56872 		sub	r2, r2, #928
 280 01a8 9342     		cmp	r3, r2
 281 01aa 2FD0     		beq	.L75
 282 01ac 02F58062 		add	r2, r2, #1024
 283 01b0 9342     		cmp	r3, r2
 284 01b2 2DD0     		beq	.L76
 285 01b4 A2F58962 		sub	r2, r2, #1096
 286 01b8 9342     		cmp	r3, r2
 287 01ba 2BD0     		beq	.L77
 288 01bc 02F58062 		add	r2, r2, #1024
 289 01c0 9342     		cmp	r3, r2
 290 01c2 2AD0     		beq	.L78
ARM GAS  /var/folders/0f/x4_g94q9649fs6s33cksjfb00000gn/T//ccVGBTVs.s 			page 6


 291 01c4 A2F56872 		sub	r2, r2, #928
 292 01c8 9342     		cmp	r3, r2
 293 01ca 29D0     		beq	.L79
 294 01cc 02F58062 		add	r2, r2, #1024
 295 01d0 9342     		cmp	r3, r2
 296 01d2 28D0     		beq	.L80
 297 01d4 A2F58962 		sub	r2, r2, #1096
 298 01d8 9342     		cmp	r3, r2
 299 01da 27D0     		beq	.L81
 300 01dc 02F58062 		add	r2, r2, #1024
 301 01e0 9342     		cmp	r3, r2
 302 01e2 26D0     		beq	.L82
 303 01e4 A2F56872 		sub	r2, r2, #928
 304 01e8 9342     		cmp	r3, r2
 305 01ea 25D0     		beq	.L83
 306 01ec 02F58062 		add	r2, r2, #1024
 307 01f0 9342     		cmp	r3, r2
 308 01f2 02D0     		beq	.L306
 309 01f4 4FF00062 		mov	r2, #134217728
 310 01f8 03E0     		b	.L22
 311              	.L306:
 312 01fa 4FF40012 		mov	r2, #2097152
 313 01fe 00E0     		b	.L22
 314              	.L73:
 315 0200 2022     		movs	r2, #32
 316              	.L22:
 317 0202 3B4B     		ldr	r3, .L325+4
 318 0204 9A60     		str	r2, [r3, #8]
 319 0206 64E7     		b	.L20
 320              	.L74:
 321 0208 2022     		movs	r2, #32
 322 020a FAE7     		b	.L22
 323              	.L75:
 324 020c 2022     		movs	r2, #32
 325 020e F8E7     		b	.L22
 326              	.L76:
 327 0210 2022     		movs	r2, #32
 328 0212 F6E7     		b	.L22
 329              	.L77:
 330 0214 4FF40062 		mov	r2, #2048
 331 0218 F3E7     		b	.L22
 332              	.L78:
 333 021a 4FF40062 		mov	r2, #2048
 334 021e F0E7     		b	.L22
 335              	.L79:
 336 0220 4FF40062 		mov	r2, #2048
 337 0224 EDE7     		b	.L22
 338              	.L80:
 339 0226 4FF40062 		mov	r2, #2048
 340 022a EAE7     		b	.L22
 341              	.L81:
 342 022c 4FF40012 		mov	r2, #2097152
 343 0230 E7E7     		b	.L22
 344              	.L82:
 345 0232 4FF40012 		mov	r2, #2097152
 346 0236 E4E7     		b	.L22
 347              	.L83:
ARM GAS  /var/folders/0f/x4_g94q9649fs6s33cksjfb00000gn/T//ccVGBTVs.s 			page 7


 348 0238 4FF40012 		mov	r2, #2097152
 349 023c E1E7     		b	.L22
 350              	.L21:
 351 023e 2E4A     		ldr	r2, .L325+12
 352 0240 9342     		cmp	r3, r2
 353 0242 5DD9     		bls	.L23
 354 0244 483A     		subs	r2, r2, #72
 355 0246 9342     		cmp	r3, r2
 356 0248 31D0     		beq	.L85
 357 024a 02F58062 		add	r2, r2, #1024
 358 024e 9342     		cmp	r3, r2
 359 0250 31D0     		beq	.L86
 360 0252 A2F56872 		sub	r2, r2, #928
 361 0256 9342     		cmp	r3, r2
 362 0258 2FD0     		beq	.L87
 363 025a 02F58062 		add	r2, r2, #1024
 364 025e 9342     		cmp	r3, r2
 365 0260 2DD0     		beq	.L88
 366 0262 A2F58962 		sub	r2, r2, #1096
 367 0266 9342     		cmp	r3, r2
 368 0268 2BD0     		beq	.L89
 369 026a 02F58062 		add	r2, r2, #1024
 370 026e 9342     		cmp	r3, r2
 371 0270 2AD0     		beq	.L90
 372 0272 A2F56872 		sub	r2, r2, #928
 373 0276 9342     		cmp	r3, r2
 374 0278 29D0     		beq	.L91
 375 027a 02F58062 		add	r2, r2, #1024
 376 027e 9342     		cmp	r3, r2
 377 0280 28D0     		beq	.L92
 378 0282 A2F58962 		sub	r2, r2, #1096
 379 0286 9342     		cmp	r3, r2
 380 0288 27D0     		beq	.L93
 381 028a 02F58062 		add	r2, r2, #1024
 382 028e 9342     		cmp	r3, r2
 383 0290 26D0     		beq	.L94
 384 0292 A2F56872 		sub	r2, r2, #928
 385 0296 9342     		cmp	r3, r2
 386 0298 25D0     		beq	.L95
 387 029a 02F58062 		add	r2, r2, #1024
 388 029e 9342     		cmp	r3, r2
 389 02a0 02D0     		beq	.L307
 390 02a2 4FF00063 		mov	r3, #134217728
 391 02a6 03E0     		b	.L24
 392              	.L307:
 393 02a8 4FF40013 		mov	r3, #2097152
 394 02ac 00E0     		b	.L24
 395              	.L85:
 396 02ae 2023     		movs	r3, #32
 397              	.L24:
 398 02b0 124A     		ldr	r2, .L325+16
 399 02b2 D360     		str	r3, [r2, #12]
 400 02b4 0DE7     		b	.L20
 401              	.L86:
 402 02b6 2023     		movs	r3, #32
 403 02b8 FAE7     		b	.L24
 404              	.L87:
ARM GAS  /var/folders/0f/x4_g94q9649fs6s33cksjfb00000gn/T//ccVGBTVs.s 			page 8


 405 02ba 2023     		movs	r3, #32
 406 02bc F8E7     		b	.L24
 407              	.L88:
 408 02be 2023     		movs	r3, #32
 409 02c0 F6E7     		b	.L24
 410              	.L89:
 411 02c2 4FF40063 		mov	r3, #2048
 412 02c6 F3E7     		b	.L24
 413              	.L90:
 414 02c8 4FF40063 		mov	r3, #2048
 415 02cc F0E7     		b	.L24
 416              	.L91:
 417 02ce 4FF40063 		mov	r3, #2048
 418 02d2 EDE7     		b	.L24
 419              	.L92:
 420 02d4 4FF40063 		mov	r3, #2048
 421 02d8 EAE7     		b	.L24
 422              	.L93:
 423 02da 4FF40013 		mov	r3, #2097152
 424 02de E7E7     		b	.L24
 425              	.L94:
 426 02e0 4FF40013 		mov	r3, #2097152
 427 02e4 E4E7     		b	.L24
 428              	.L95:
 429 02e6 4FF40013 		mov	r3, #2097152
 430 02ea E1E7     		b	.L24
 431              	.L326:
 432              		.align	2
 433              	.L325:
 434 02ec 58640240 		.word	1073898584
 435 02f0 00640240 		.word	1073898496
 436 02f4 B8600240 		.word	1073897656
 437 02f8 58600240 		.word	1073897560
 438 02fc 00600240 		.word	1073897472
 439              	.L23:
 440 0300 B14A     		ldr	r2, .L327
 441 0302 9342     		cmp	r3, r2
 442 0304 31D0     		beq	.L97
 443 0306 02F58062 		add	r2, r2, #1024
 444 030a 9342     		cmp	r3, r2
 445 030c 31D0     		beq	.L98
 446 030e A2F56872 		sub	r2, r2, #928
 447 0312 9342     		cmp	r3, r2
 448 0314 2FD0     		beq	.L99
 449 0316 02F58062 		add	r2, r2, #1024
 450 031a 9342     		cmp	r3, r2
 451 031c 2DD0     		beq	.L100
 452 031e A2F58962 		sub	r2, r2, #1096
 453 0322 9342     		cmp	r3, r2
 454 0324 2BD0     		beq	.L101
 455 0326 02F58062 		add	r2, r2, #1024
 456 032a 9342     		cmp	r3, r2
 457 032c 2AD0     		beq	.L102
 458 032e A2F56872 		sub	r2, r2, #928
 459 0332 9342     		cmp	r3, r2
 460 0334 29D0     		beq	.L103
 461 0336 02F58062 		add	r2, r2, #1024
ARM GAS  /var/folders/0f/x4_g94q9649fs6s33cksjfb00000gn/T//ccVGBTVs.s 			page 9


 462 033a 9342     		cmp	r3, r2
 463 033c 28D0     		beq	.L104
 464 033e A2F58962 		sub	r2, r2, #1096
 465 0342 9342     		cmp	r3, r2
 466 0344 27D0     		beq	.L105
 467 0346 02F58062 		add	r2, r2, #1024
 468 034a 9342     		cmp	r3, r2
 469 034c 26D0     		beq	.L106
 470 034e A2F56872 		sub	r2, r2, #928
 471 0352 9342     		cmp	r3, r2
 472 0354 25D0     		beq	.L107
 473 0356 02F58062 		add	r2, r2, #1024
 474 035a 9342     		cmp	r3, r2
 475 035c 02D0     		beq	.L308
 476 035e 4FF00063 		mov	r3, #134217728
 477 0362 03E0     		b	.L25
 478              	.L308:
 479 0364 4FF40013 		mov	r3, #2097152
 480 0368 00E0     		b	.L25
 481              	.L97:
 482 036a 2023     		movs	r3, #32
 483              	.L25:
 484 036c 974A     		ldr	r2, .L327+4
 485 036e 9360     		str	r3, [r2, #8]
 486 0370 AFE6     		b	.L20
 487              	.L98:
 488 0372 2023     		movs	r3, #32
 489 0374 FAE7     		b	.L25
 490              	.L99:
 491 0376 2023     		movs	r3, #32
 492 0378 F8E7     		b	.L25
 493              	.L100:
 494 037a 2023     		movs	r3, #32
 495 037c F6E7     		b	.L25
 496              	.L101:
 497 037e 4FF40063 		mov	r3, #2048
 498 0382 F3E7     		b	.L25
 499              	.L102:
 500 0384 4FF40063 		mov	r3, #2048
 501 0388 F0E7     		b	.L25
 502              	.L103:
 503 038a 4FF40063 		mov	r3, #2048
 504 038e EDE7     		b	.L25
 505              	.L104:
 506 0390 4FF40063 		mov	r3, #2048
 507 0394 EAE7     		b	.L25
 508              	.L105:
 509 0396 4FF40013 		mov	r3, #2097152
 510 039a E7E7     		b	.L25
 511              	.L106:
 512 039c 4FF40013 		mov	r3, #2097152
 513 03a0 E4E7     		b	.L25
 514              	.L107:
 515 03a2 4FF40013 		mov	r3, #2097152
 516 03a6 E1E7     		b	.L25
 517              	.L305:
 518 03a8 4FF48012 		mov	r2, #1048576
ARM GAS  /var/folders/0f/x4_g94q9649fs6s33cksjfb00000gn/T//ccVGBTVs.s 			page 10


 519 03ac 00E0     		b	.L27
 520              	.L109:
 521 03ae 1022     		movs	r2, #16
 522              	.L27:
 523 03b0 874B     		ldr	r3, .L327+8
 524 03b2 DA60     		str	r2, [r3, #12]
 525              	.L28:
 526 03b4 2368     		ldr	r3, [r4]
 527 03b6 874A     		ldr	r2, .L327+12
 528 03b8 9342     		cmp	r3, r2
 529 03ba 40F2CD81 		bls	.L34
 530 03be A2F58962 		sub	r2, r2, #1096
 531 03c2 9342     		cmp	r3, r2
 532 03c4 00F06681 		beq	.L157
 533 03c8 02F58062 		add	r2, r2, #1024
 534 03cc 9342     		cmp	r3, r2
 535 03ce 00F0A881 		beq	.L158
 536 03d2 A2F56872 		sub	r2, r2, #928
 537 03d6 9342     		cmp	r3, r2
 538 03d8 00F0A581 		beq	.L159
 539 03dc 02F58062 		add	r2, r2, #1024
 540 03e0 9342     		cmp	r3, r2
 541 03e2 00F0A281 		beq	.L160
 542 03e6 A2F58962 		sub	r2, r2, #1096
 543 03ea 9342     		cmp	r3, r2
 544 03ec 00F09F81 		beq	.L161
 545 03f0 02F58062 		add	r2, r2, #1024
 546 03f4 9342     		cmp	r3, r2
 547 03f6 00F09D81 		beq	.L162
 548 03fa A2F56872 		sub	r2, r2, #928
 549 03fe 9342     		cmp	r3, r2
 550 0400 00F09B81 		beq	.L163
 551 0404 02F58062 		add	r2, r2, #1024
 552 0408 9342     		cmp	r3, r2
 553 040a 00F09981 		beq	.L164
 554 040e A2F58962 		sub	r2, r2, #1096
 555 0412 9342     		cmp	r3, r2
 556 0414 00F09781 		beq	.L165
 557 0418 02F58062 		add	r2, r2, #1024
 558 041c 9342     		cmp	r3, r2
 559 041e 00F09581 		beq	.L166
 560 0422 A2F56872 		sub	r2, r2, #928
 561 0426 9342     		cmp	r3, r2
 562 0428 00F09381 		beq	.L167
 563 042c 02F58062 		add	r2, r2, #1024
 564 0430 9342     		cmp	r3, r2
 565 0432 00F02C81 		beq	.L309
 566 0436 4FF00072 		mov	r2, #33554432
 567 043a 2CE1     		b	.L35
 568              	.L110:
 569 043c 1022     		movs	r2, #16
 570 043e B7E7     		b	.L27
 571              	.L111:
 572 0440 1022     		movs	r2, #16
 573 0442 B5E7     		b	.L27
 574              	.L112:
 575 0444 1022     		movs	r2, #16
ARM GAS  /var/folders/0f/x4_g94q9649fs6s33cksjfb00000gn/T//ccVGBTVs.s 			page 11


 576 0446 B3E7     		b	.L27
 577              	.L113:
 578 0448 4FF48062 		mov	r2, #1024
 579 044c B0E7     		b	.L27
 580              	.L114:
 581 044e 4FF48062 		mov	r2, #1024
 582 0452 ADE7     		b	.L27
 583              	.L115:
 584 0454 4FF48062 		mov	r2, #1024
 585 0458 AAE7     		b	.L27
 586              	.L116:
 587 045a 4FF48062 		mov	r2, #1024
 588 045e A7E7     		b	.L27
 589              	.L117:
 590 0460 4FF48012 		mov	r2, #1048576
 591 0464 A4E7     		b	.L27
 592              	.L118:
 593 0466 4FF48012 		mov	r2, #1048576
 594 046a A1E7     		b	.L27
 595              	.L119:
 596 046c 4FF48012 		mov	r2, #1048576
 597 0470 9EE7     		b	.L27
 598              	.L26:
 599 0472 594A     		ldr	r2, .L327+16
 600 0474 9342     		cmp	r3, r2
 601 0476 53D9     		bls	.L29
 602 0478 A83A     		subs	r2, r2, #168
 603 047a 9342     		cmp	r3, r2
 604 047c 31D0     		beq	.L121
 605 047e 02F58062 		add	r2, r2, #1024
 606 0482 9342     		cmp	r3, r2
 607 0484 31D0     		beq	.L122
 608 0486 A2F56872 		sub	r2, r2, #928
 609 048a 9342     		cmp	r3, r2
 610 048c 2FD0     		beq	.L123
 611 048e 02F58062 		add	r2, r2, #1024
 612 0492 9342     		cmp	r3, r2
 613 0494 2DD0     		beq	.L124
 614 0496 A2F58962 		sub	r2, r2, #1096
 615 049a 9342     		cmp	r3, r2
 616 049c 2BD0     		beq	.L125
 617 049e 02F58062 		add	r2, r2, #1024
 618 04a2 9342     		cmp	r3, r2
 619 04a4 2AD0     		beq	.L126
 620 04a6 A2F56872 		sub	r2, r2, #928
 621 04aa 9342     		cmp	r3, r2
 622 04ac 29D0     		beq	.L127
 623 04ae 02F58062 		add	r2, r2, #1024
 624 04b2 9342     		cmp	r3, r2
 625 04b4 28D0     		beq	.L128
 626 04b6 A2F58962 		sub	r2, r2, #1096
 627 04ba 9342     		cmp	r3, r2
 628 04bc 27D0     		beq	.L129
 629 04be 02F58062 		add	r2, r2, #1024
 630 04c2 9342     		cmp	r3, r2
 631 04c4 26D0     		beq	.L130
 632 04c6 A2F56872 		sub	r2, r2, #928
ARM GAS  /var/folders/0f/x4_g94q9649fs6s33cksjfb00000gn/T//ccVGBTVs.s 			page 12


 633 04ca 9342     		cmp	r3, r2
 634 04cc 25D0     		beq	.L131
 635 04ce 02F58062 		add	r2, r2, #1024
 636 04d2 9342     		cmp	r3, r2
 637 04d4 02D0     		beq	.L310
 638 04d6 4FF08062 		mov	r2, #67108864
 639 04da 03E0     		b	.L30
 640              	.L310:
 641 04dc 4FF48012 		mov	r2, #1048576
 642 04e0 00E0     		b	.L30
 643              	.L121:
 644 04e2 1022     		movs	r2, #16
 645              	.L30:
 646 04e4 3A4B     		ldr	r3, .L327+8
 647 04e6 9A60     		str	r2, [r3, #8]
 648 04e8 64E7     		b	.L28
 649              	.L122:
 650 04ea 1022     		movs	r2, #16
 651 04ec FAE7     		b	.L30
 652              	.L123:
 653 04ee 1022     		movs	r2, #16
 654 04f0 F8E7     		b	.L30
 655              	.L124:
 656 04f2 1022     		movs	r2, #16
 657 04f4 F6E7     		b	.L30
 658              	.L125:
 659 04f6 4FF48062 		mov	r2, #1024
 660 04fa F3E7     		b	.L30
 661              	.L126:
 662 04fc 4FF48062 		mov	r2, #1024
 663 0500 F0E7     		b	.L30
 664              	.L127:
 665 0502 4FF48062 		mov	r2, #1024
 666 0506 EDE7     		b	.L30
 667              	.L128:
 668 0508 4FF48062 		mov	r2, #1024
 669 050c EAE7     		b	.L30
 670              	.L129:
 671 050e 4FF48012 		mov	r2, #1048576
 672 0512 E7E7     		b	.L30
 673              	.L130:
 674 0514 4FF48012 		mov	r2, #1048576
 675 0518 E4E7     		b	.L30
 676              	.L131:
 677 051a 4FF48012 		mov	r2, #1048576
 678 051e E1E7     		b	.L30
 679              	.L29:
 680 0520 2E4A     		ldr	r2, .L327+20
 681 0522 9342     		cmp	r3, r2
 682 0524 5FD9     		bls	.L31
 683 0526 483A     		subs	r2, r2, #72
 684 0528 9342     		cmp	r3, r2
 685 052a 31D0     		beq	.L133
 686 052c 02F58062 		add	r2, r2, #1024
 687 0530 9342     		cmp	r3, r2
 688 0532 31D0     		beq	.L134
 689 0534 A2F56872 		sub	r2, r2, #928
ARM GAS  /var/folders/0f/x4_g94q9649fs6s33cksjfb00000gn/T//ccVGBTVs.s 			page 13


 690 0538 9342     		cmp	r3, r2
 691 053a 2FD0     		beq	.L135
 692 053c 02F58062 		add	r2, r2, #1024
 693 0540 9342     		cmp	r3, r2
 694 0542 2DD0     		beq	.L136
 695 0544 A2F58962 		sub	r2, r2, #1096
 696 0548 9342     		cmp	r3, r2
 697 054a 2BD0     		beq	.L137
 698 054c 02F58062 		add	r2, r2, #1024
 699 0550 9342     		cmp	r3, r2
 700 0552 2AD0     		beq	.L138
 701 0554 A2F56872 		sub	r2, r2, #928
 702 0558 9342     		cmp	r3, r2
 703 055a 29D0     		beq	.L139
 704 055c 02F58062 		add	r2, r2, #1024
 705 0560 9342     		cmp	r3, r2
 706 0562 28D0     		beq	.L140
 707 0564 A2F58962 		sub	r2, r2, #1096
 708 0568 9342     		cmp	r3, r2
 709 056a 27D0     		beq	.L141
 710 056c 02F58062 		add	r2, r2, #1024
 711 0570 9342     		cmp	r3, r2
 712 0572 26D0     		beq	.L142
 713 0574 A2F56872 		sub	r2, r2, #928
 714 0578 9342     		cmp	r3, r2
 715 057a 31D0     		beq	.L143
 716 057c 02F58062 		add	r2, r2, #1024
 717 0580 9342     		cmp	r3, r2
 718 0582 02D0     		beq	.L311
 719 0584 4FF08063 		mov	r3, #67108864
 720 0588 03E0     		b	.L32
 721              	.L311:
 722 058a 4FF48013 		mov	r3, #1048576
 723 058e 00E0     		b	.L32
 724              	.L133:
 725 0590 1023     		movs	r3, #16
 726              	.L32:
 727 0592 0E4A     		ldr	r2, .L327+4
 728 0594 D360     		str	r3, [r2, #12]
 729 0596 0DE7     		b	.L28
 730              	.L134:
 731 0598 1023     		movs	r3, #16
 732 059a FAE7     		b	.L32
 733              	.L135:
 734 059c 1023     		movs	r3, #16
 735 059e F8E7     		b	.L32
 736              	.L136:
 737 05a0 1023     		movs	r3, #16
 738 05a2 F6E7     		b	.L32
 739              	.L137:
 740 05a4 4FF48063 		mov	r3, #1024
 741 05a8 F3E7     		b	.L32
 742              	.L138:
 743 05aa 4FF48063 		mov	r3, #1024
 744 05ae F0E7     		b	.L32
 745              	.L139:
 746 05b0 4FF48063 		mov	r3, #1024
ARM GAS  /var/folders/0f/x4_g94q9649fs6s33cksjfb00000gn/T//ccVGBTVs.s 			page 14


 747 05b4 EDE7     		b	.L32
 748              	.L140:
 749 05b6 4FF48063 		mov	r3, #1024
 750 05ba EAE7     		b	.L32
 751              	.L141:
 752 05bc 4FF48013 		mov	r3, #1048576
 753 05c0 E7E7     		b	.L32
 754              	.L142:
 755 05c2 4FF48013 		mov	r3, #1048576
 756 05c6 E4E7     		b	.L32
 757              	.L328:
 758              		.align	2
 759              	.L327:
 760 05c8 10600240 		.word	1073897488
 761 05cc 00600240 		.word	1073897472
 762 05d0 00640240 		.word	1073898496
 763 05d4 58640240 		.word	1073898584
 764 05d8 B8600240 		.word	1073897656
 765 05dc 58600240 		.word	1073897560
 766              	.L143:
 767 05e0 4FF48013 		mov	r3, #1048576
 768 05e4 D5E7     		b	.L32
 769              	.L31:
 770 05e6 B24A     		ldr	r2, .L329
 771 05e8 9342     		cmp	r3, r2
 772 05ea 31D0     		beq	.L145
 773 05ec 02F58062 		add	r2, r2, #1024
 774 05f0 9342     		cmp	r3, r2
 775 05f2 31D0     		beq	.L146
 776 05f4 A2F56872 		sub	r2, r2, #928
 777 05f8 9342     		cmp	r3, r2
 778 05fa 2FD0     		beq	.L147
 779 05fc 02F58062 		add	r2, r2, #1024
 780 0600 9342     		cmp	r3, r2
 781 0602 2DD0     		beq	.L148
 782 0604 A2F58962 		sub	r2, r2, #1096
 783 0608 9342     		cmp	r3, r2
 784 060a 2BD0     		beq	.L149
 785 060c 02F58062 		add	r2, r2, #1024
 786 0610 9342     		cmp	r3, r2
 787 0612 2AD0     		beq	.L150
 788 0614 A2F56872 		sub	r2, r2, #928
 789 0618 9342     		cmp	r3, r2
 790 061a 29D0     		beq	.L151
 791 061c 02F58062 		add	r2, r2, #1024
 792 0620 9342     		cmp	r3, r2
 793 0622 28D0     		beq	.L152
 794 0624 A2F58962 		sub	r2, r2, #1096
 795 0628 9342     		cmp	r3, r2
 796 062a 27D0     		beq	.L153
 797 062c 02F58062 		add	r2, r2, #1024
 798 0630 9342     		cmp	r3, r2
 799 0632 26D0     		beq	.L154
 800 0634 A2F56872 		sub	r2, r2, #928
 801 0638 9342     		cmp	r3, r2
 802 063a 25D0     		beq	.L155
 803 063c 02F58062 		add	r2, r2, #1024
ARM GAS  /var/folders/0f/x4_g94q9649fs6s33cksjfb00000gn/T//ccVGBTVs.s 			page 15


 804 0640 9342     		cmp	r3, r2
 805 0642 02D0     		beq	.L312
 806 0644 4FF08063 		mov	r3, #67108864
 807 0648 03E0     		b	.L33
 808              	.L312:
 809 064a 4FF48013 		mov	r3, #1048576
 810 064e 00E0     		b	.L33
 811              	.L145:
 812 0650 1023     		movs	r3, #16
 813              	.L33:
 814 0652 984A     		ldr	r2, .L329+4
 815 0654 9360     		str	r3, [r2, #8]
 816 0656 ADE6     		b	.L28
 817              	.L146:
 818 0658 1023     		movs	r3, #16
 819 065a FAE7     		b	.L33
 820              	.L147:
 821 065c 1023     		movs	r3, #16
 822 065e F8E7     		b	.L33
 823              	.L148:
 824 0660 1023     		movs	r3, #16
 825 0662 F6E7     		b	.L33
 826              	.L149:
 827 0664 4FF48063 		mov	r3, #1024
 828 0668 F3E7     		b	.L33
 829              	.L150:
 830 066a 4FF48063 		mov	r3, #1024
 831 066e F0E7     		b	.L33
 832              	.L151:
 833 0670 4FF48063 		mov	r3, #1024
 834 0674 EDE7     		b	.L33
 835              	.L152:
 836 0676 4FF48063 		mov	r3, #1024
 837 067a EAE7     		b	.L33
 838              	.L153:
 839 067c 4FF48013 		mov	r3, #1048576
 840 0680 E7E7     		b	.L33
 841              	.L154:
 842 0682 4FF48013 		mov	r3, #1048576
 843 0686 E4E7     		b	.L33
 844              	.L155:
 845 0688 4FF48013 		mov	r3, #1048576
 846 068c E1E7     		b	.L33
 847              	.L309:
 848 068e 4FF40022 		mov	r2, #524288
 849 0692 00E0     		b	.L35
 850              	.L157:
 851 0694 0822     		movs	r2, #8
 852              	.L35:
 853 0696 884B     		ldr	r3, .L329+8
 854 0698 DA60     		str	r2, [r3, #12]
 855              	.L36:
 856 069a 2368     		ldr	r3, [r4]
 857 069c 874A     		ldr	r2, .L329+12
 858 069e 9342     		cmp	r3, r2
 859 06a0 40F2CE81 		bls	.L42
 860 06a4 A2F58962 		sub	r2, r2, #1096
ARM GAS  /var/folders/0f/x4_g94q9649fs6s33cksjfb00000gn/T//ccVGBTVs.s 			page 16


 861 06a8 9342     		cmp	r3, r2
 862 06aa 00F06781 		beq	.L205
 863 06ae 02F58062 		add	r2, r2, #1024
 864 06b2 9342     		cmp	r3, r2
 865 06b4 00F0A981 		beq	.L206
 866 06b8 A2F56872 		sub	r2, r2, #928
 867 06bc 9342     		cmp	r3, r2
 868 06be 00F0A681 		beq	.L207
 869 06c2 02F58062 		add	r2, r2, #1024
 870 06c6 9342     		cmp	r3, r2
 871 06c8 00F0A381 		beq	.L208
 872 06cc A2F58962 		sub	r2, r2, #1096
 873 06d0 9342     		cmp	r3, r2
 874 06d2 00F0A081 		beq	.L209
 875 06d6 02F58062 		add	r2, r2, #1024
 876 06da 9342     		cmp	r3, r2
 877 06dc 00F09E81 		beq	.L210
 878 06e0 A2F56872 		sub	r2, r2, #928
 879 06e4 9342     		cmp	r3, r2
 880 06e6 00F09C81 		beq	.L211
 881 06ea 02F58062 		add	r2, r2, #1024
 882 06ee 9342     		cmp	r3, r2
 883 06f0 00F09A81 		beq	.L212
 884 06f4 A2F58962 		sub	r2, r2, #1096
 885 06f8 9342     		cmp	r3, r2
 886 06fa 00F09881 		beq	.L213
 887 06fe 02F58062 		add	r2, r2, #1024
 888 0702 9342     		cmp	r3, r2
 889 0704 00F09681 		beq	.L214
 890 0708 A2F56872 		sub	r2, r2, #928
 891 070c 9342     		cmp	r3, r2
 892 070e 00F09481 		beq	.L215
 893 0712 02F58062 		add	r2, r2, #1024
 894 0716 9342     		cmp	r3, r2
 895 0718 00F02D81 		beq	.L313
 896 071c 4FF08072 		mov	r2, #16777216
 897 0720 2DE1     		b	.L43
 898              	.L158:
 899 0722 0822     		movs	r2, #8
 900 0724 B7E7     		b	.L35
 901              	.L159:
 902 0726 0822     		movs	r2, #8
 903 0728 B5E7     		b	.L35
 904              	.L160:
 905 072a 0822     		movs	r2, #8
 906 072c B3E7     		b	.L35
 907              	.L161:
 908 072e 4FF40072 		mov	r2, #512
 909 0732 B0E7     		b	.L35
 910              	.L162:
 911 0734 4FF40072 		mov	r2, #512
 912 0738 ADE7     		b	.L35
 913              	.L163:
 914 073a 4FF40072 		mov	r2, #512
 915 073e AAE7     		b	.L35
 916              	.L164:
 917 0740 4FF40072 		mov	r2, #512
ARM GAS  /var/folders/0f/x4_g94q9649fs6s33cksjfb00000gn/T//ccVGBTVs.s 			page 17


 918 0744 A7E7     		b	.L35
 919              	.L165:
 920 0746 4FF40022 		mov	r2, #524288
 921 074a A4E7     		b	.L35
 922              	.L166:
 923 074c 4FF40022 		mov	r2, #524288
 924 0750 A1E7     		b	.L35
 925              	.L167:
 926 0752 4FF40022 		mov	r2, #524288
 927 0756 9EE7     		b	.L35
 928              	.L34:
 929 0758 594A     		ldr	r2, .L329+16
 930 075a 9342     		cmp	r3, r2
 931 075c 53D9     		bls	.L37
 932 075e A83A     		subs	r2, r2, #168
 933 0760 9342     		cmp	r3, r2
 934 0762 31D0     		beq	.L169
 935 0764 02F58062 		add	r2, r2, #1024
 936 0768 9342     		cmp	r3, r2
 937 076a 31D0     		beq	.L170
 938 076c A2F56872 		sub	r2, r2, #928
 939 0770 9342     		cmp	r3, r2
 940 0772 2FD0     		beq	.L171
 941 0774 02F58062 		add	r2, r2, #1024
 942 0778 9342     		cmp	r3, r2
 943 077a 2DD0     		beq	.L172
 944 077c A2F58962 		sub	r2, r2, #1096
 945 0780 9342     		cmp	r3, r2
 946 0782 2BD0     		beq	.L173
 947 0784 02F58062 		add	r2, r2, #1024
 948 0788 9342     		cmp	r3, r2
 949 078a 2AD0     		beq	.L174
 950 078c A2F56872 		sub	r2, r2, #928
 951 0790 9342     		cmp	r3, r2
 952 0792 29D0     		beq	.L175
 953 0794 02F58062 		add	r2, r2, #1024
 954 0798 9342     		cmp	r3, r2
 955 079a 28D0     		beq	.L176
 956 079c A2F58962 		sub	r2, r2, #1096
 957 07a0 9342     		cmp	r3, r2
 958 07a2 27D0     		beq	.L177
 959 07a4 02F58062 		add	r2, r2, #1024
 960 07a8 9342     		cmp	r3, r2
 961 07aa 26D0     		beq	.L178
 962 07ac A2F56872 		sub	r2, r2, #928
 963 07b0 9342     		cmp	r3, r2
 964 07b2 25D0     		beq	.L179
 965 07b4 02F58062 		add	r2, r2, #1024
 966 07b8 9342     		cmp	r3, r2
 967 07ba 02D0     		beq	.L314
 968 07bc 4FF00072 		mov	r2, #33554432
 969 07c0 03E0     		b	.L38
 970              	.L314:
 971 07c2 4FF40022 		mov	r2, #524288
 972 07c6 00E0     		b	.L38
 973              	.L169:
 974 07c8 0822     		movs	r2, #8
ARM GAS  /var/folders/0f/x4_g94q9649fs6s33cksjfb00000gn/T//ccVGBTVs.s 			page 18


 975              	.L38:
 976 07ca 3B4B     		ldr	r3, .L329+8
 977 07cc 9A60     		str	r2, [r3, #8]
 978 07ce 64E7     		b	.L36
 979              	.L170:
 980 07d0 0822     		movs	r2, #8
 981 07d2 FAE7     		b	.L38
 982              	.L171:
 983 07d4 0822     		movs	r2, #8
 984 07d6 F8E7     		b	.L38
 985              	.L172:
 986 07d8 0822     		movs	r2, #8
 987 07da F6E7     		b	.L38
 988              	.L173:
 989 07dc 4FF40072 		mov	r2, #512
 990 07e0 F3E7     		b	.L38
 991              	.L174:
 992 07e2 4FF40072 		mov	r2, #512
 993 07e6 F0E7     		b	.L38
 994              	.L175:
 995 07e8 4FF40072 		mov	r2, #512
 996 07ec EDE7     		b	.L38
 997              	.L176:
 998 07ee 4FF40072 		mov	r2, #512
 999 07f2 EAE7     		b	.L38
 1000              	.L177:
 1001 07f4 4FF40022 		mov	r2, #524288
 1002 07f8 E7E7     		b	.L38
 1003              	.L178:
 1004 07fa 4FF40022 		mov	r2, #524288
 1005 07fe E4E7     		b	.L38
 1006              	.L179:
 1007 0800 4FF40022 		mov	r2, #524288
 1008 0804 E1E7     		b	.L38
 1009              	.L37:
 1010 0806 2F4A     		ldr	r2, .L329+20
 1011 0808 9342     		cmp	r3, r2
 1012 080a 60D9     		bls	.L39
 1013 080c 483A     		subs	r2, r2, #72
 1014 080e 9342     		cmp	r3, r2
 1015 0810 31D0     		beq	.L181
 1016 0812 02F58062 		add	r2, r2, #1024
 1017 0816 9342     		cmp	r3, r2
 1018 0818 31D0     		beq	.L182
 1019 081a A2F56872 		sub	r2, r2, #928
 1020 081e 9342     		cmp	r3, r2
 1021 0820 2FD0     		beq	.L183
 1022 0822 02F58062 		add	r2, r2, #1024
 1023 0826 9342     		cmp	r3, r2
 1024 0828 2DD0     		beq	.L184
 1025 082a A2F58962 		sub	r2, r2, #1096
 1026 082e 9342     		cmp	r3, r2
 1027 0830 2BD0     		beq	.L185
 1028 0832 02F58062 		add	r2, r2, #1024
 1029 0836 9342     		cmp	r3, r2
 1030 0838 2AD0     		beq	.L186
 1031 083a A2F56872 		sub	r2, r2, #928
ARM GAS  /var/folders/0f/x4_g94q9649fs6s33cksjfb00000gn/T//ccVGBTVs.s 			page 19


 1032 083e 9342     		cmp	r3, r2
 1033 0840 29D0     		beq	.L187
 1034 0842 02F58062 		add	r2, r2, #1024
 1035 0846 9342     		cmp	r3, r2
 1036 0848 28D0     		beq	.L188
 1037 084a A2F58962 		sub	r2, r2, #1096
 1038 084e 9342     		cmp	r3, r2
 1039 0850 27D0     		beq	.L189
 1040 0852 02F58062 		add	r2, r2, #1024
 1041 0856 9342     		cmp	r3, r2
 1042 0858 26D0     		beq	.L190
 1043 085a A2F56872 		sub	r2, r2, #928
 1044 085e 9342     		cmp	r3, r2
 1045 0860 32D0     		beq	.L191
 1046 0862 02F58062 		add	r2, r2, #1024
 1047 0866 9342     		cmp	r3, r2
 1048 0868 02D0     		beq	.L315
 1049 086a 4FF00073 		mov	r3, #33554432
 1050 086e 03E0     		b	.L40
 1051              	.L315:
 1052 0870 4FF40023 		mov	r3, #524288
 1053 0874 00E0     		b	.L40
 1054              	.L181:
 1055 0876 0823     		movs	r3, #8
 1056              	.L40:
 1057 0878 0E4A     		ldr	r2, .L329+4
 1058 087a D360     		str	r3, [r2, #12]
 1059 087c 0DE7     		b	.L36
 1060              	.L182:
 1061 087e 0823     		movs	r3, #8
 1062 0880 FAE7     		b	.L40
 1063              	.L183:
 1064 0882 0823     		movs	r3, #8
 1065 0884 F8E7     		b	.L40
 1066              	.L184:
 1067 0886 0823     		movs	r3, #8
 1068 0888 F6E7     		b	.L40
 1069              	.L185:
 1070 088a 4FF40073 		mov	r3, #512
 1071 088e F3E7     		b	.L40
 1072              	.L186:
 1073 0890 4FF40073 		mov	r3, #512
 1074 0894 F0E7     		b	.L40
 1075              	.L187:
 1076 0896 4FF40073 		mov	r3, #512
 1077 089a EDE7     		b	.L40
 1078              	.L188:
 1079 089c 4FF40073 		mov	r3, #512
 1080 08a0 EAE7     		b	.L40
 1081              	.L189:
 1082 08a2 4FF40023 		mov	r3, #524288
 1083 08a6 E7E7     		b	.L40
 1084              	.L190:
 1085 08a8 4FF40023 		mov	r3, #524288
 1086 08ac E4E7     		b	.L40
 1087              	.L330:
 1088 08ae 00BF     		.align	2
ARM GAS  /var/folders/0f/x4_g94q9649fs6s33cksjfb00000gn/T//ccVGBTVs.s 			page 20


 1089              	.L329:
 1090 08b0 10600240 		.word	1073897488
 1091 08b4 00600240 		.word	1073897472
 1092 08b8 00640240 		.word	1073898496
 1093 08bc 58640240 		.word	1073898584
 1094 08c0 B8600240 		.word	1073897656
 1095 08c4 58600240 		.word	1073897560
 1096              	.L191:
 1097 08c8 4FF40023 		mov	r3, #524288
 1098 08cc D4E7     		b	.L40
 1099              	.L39:
 1100 08ce B24A     		ldr	r2, .L331
 1101 08d0 9342     		cmp	r3, r2
 1102 08d2 31D0     		beq	.L193
 1103 08d4 02F58062 		add	r2, r2, #1024
 1104 08d8 9342     		cmp	r3, r2
 1105 08da 31D0     		beq	.L194
 1106 08dc A2F56872 		sub	r2, r2, #928
 1107 08e0 9342     		cmp	r3, r2
 1108 08e2 2FD0     		beq	.L195
 1109 08e4 02F58062 		add	r2, r2, #1024
 1110 08e8 9342     		cmp	r3, r2
 1111 08ea 2DD0     		beq	.L196
 1112 08ec A2F58962 		sub	r2, r2, #1096
 1113 08f0 9342     		cmp	r3, r2
 1114 08f2 2BD0     		beq	.L197
 1115 08f4 02F58062 		add	r2, r2, #1024
 1116 08f8 9342     		cmp	r3, r2
 1117 08fa 2AD0     		beq	.L198
 1118 08fc A2F56872 		sub	r2, r2, #928
 1119 0900 9342     		cmp	r3, r2
 1120 0902 29D0     		beq	.L199
 1121 0904 02F58062 		add	r2, r2, #1024
 1122 0908 9342     		cmp	r3, r2
 1123 090a 28D0     		beq	.L200
 1124 090c A2F58962 		sub	r2, r2, #1096
 1125 0910 9342     		cmp	r3, r2
 1126 0912 27D0     		beq	.L201
 1127 0914 02F58062 		add	r2, r2, #1024
 1128 0918 9342     		cmp	r3, r2
 1129 091a 26D0     		beq	.L202
 1130 091c A2F56872 		sub	r2, r2, #928
 1131 0920 9342     		cmp	r3, r2
 1132 0922 25D0     		beq	.L203
 1133 0924 02F58062 		add	r2, r2, #1024
 1134 0928 9342     		cmp	r3, r2
 1135 092a 02D0     		beq	.L316
 1136 092c 4FF00073 		mov	r3, #33554432
 1137 0930 03E0     		b	.L41
 1138              	.L316:
 1139 0932 4FF40023 		mov	r3, #524288
 1140 0936 00E0     		b	.L41
 1141              	.L193:
 1142 0938 0823     		movs	r3, #8
 1143              	.L41:
 1144 093a 984A     		ldr	r2, .L331+4
 1145 093c 9360     		str	r3, [r2, #8]
ARM GAS  /var/folders/0f/x4_g94q9649fs6s33cksjfb00000gn/T//ccVGBTVs.s 			page 21


 1146 093e ACE6     		b	.L36
 1147              	.L194:
 1148 0940 0823     		movs	r3, #8
 1149 0942 FAE7     		b	.L41
 1150              	.L195:
 1151 0944 0823     		movs	r3, #8
 1152 0946 F8E7     		b	.L41
 1153              	.L196:
 1154 0948 0823     		movs	r3, #8
 1155 094a F6E7     		b	.L41
 1156              	.L197:
 1157 094c 4FF40073 		mov	r3, #512
 1158 0950 F3E7     		b	.L41
 1159              	.L198:
 1160 0952 4FF40073 		mov	r3, #512
 1161 0956 F0E7     		b	.L41
 1162              	.L199:
 1163 0958 4FF40073 		mov	r3, #512
 1164 095c EDE7     		b	.L41
 1165              	.L200:
 1166 095e 4FF40073 		mov	r3, #512
 1167 0962 EAE7     		b	.L41
 1168              	.L201:
 1169 0964 4FF40023 		mov	r3, #524288
 1170 0968 E7E7     		b	.L41
 1171              	.L202:
 1172 096a 4FF40023 		mov	r3, #524288
 1173 096e E4E7     		b	.L41
 1174              	.L203:
 1175 0970 4FF40023 		mov	r3, #524288
 1176 0974 E1E7     		b	.L41
 1177              	.L313:
 1178 0976 4FF48022 		mov	r2, #262144
 1179 097a 00E0     		b	.L43
 1180              	.L205:
 1181 097c 0422     		movs	r2, #4
 1182              	.L43:
 1183 097e 884B     		ldr	r3, .L331+8
 1184 0980 DA60     		str	r2, [r3, #12]
 1185              	.L44:
 1186 0982 2368     		ldr	r3, [r4]
 1187 0984 874A     		ldr	r2, .L331+12
 1188 0986 9342     		cmp	r3, r2
 1189 0988 40F2A181 		bls	.L50
 1190 098c A2F58962 		sub	r2, r2, #1096
 1191 0990 9342     		cmp	r3, r2
 1192 0992 00F06781 		beq	.L253
 1193 0996 02F58062 		add	r2, r2, #1024
 1194 099a 9342     		cmp	r3, r2
 1195 099c 00F08081 		beq	.L254
 1196 09a0 A2F56872 		sub	r2, r2, #928
 1197 09a4 9342     		cmp	r3, r2
 1198 09a6 00F07D81 		beq	.L255
 1199 09aa 02F58062 		add	r2, r2, #1024
 1200 09ae 9342     		cmp	r3, r2
 1201 09b0 00F07A81 		beq	.L256
 1202 09b4 A2F58962 		sub	r2, r2, #1096
ARM GAS  /var/folders/0f/x4_g94q9649fs6s33cksjfb00000gn/T//ccVGBTVs.s 			page 22


 1203 09b8 9342     		cmp	r3, r2
 1204 09ba 00F07781 		beq	.L257
 1205 09be 02F58062 		add	r2, r2, #1024
 1206 09c2 9342     		cmp	r3, r2
 1207 09c4 00F07481 		beq	.L258
 1208 09c8 A2F56872 		sub	r2, r2, #928
 1209 09cc 9342     		cmp	r3, r2
 1210 09ce 00F07181 		beq	.L259
 1211 09d2 02F58062 		add	r2, r2, #1024
 1212 09d6 9342     		cmp	r3, r2
 1213 09d8 00F06E81 		beq	.L260
 1214 09dc A2F58962 		sub	r2, r2, #1096
 1215 09e0 9342     		cmp	r3, r2
 1216 09e2 00F06B81 		beq	.L261
 1217 09e6 02F58062 		add	r2, r2, #1024
 1218 09ea 9342     		cmp	r3, r2
 1219 09ec 00F06981 		beq	.L262
 1220 09f0 A2F56872 		sub	r2, r2, #928
 1221 09f4 9342     		cmp	r3, r2
 1222 09f6 00F06781 		beq	.L263
 1223 09fa 02F58062 		add	r2, r2, #1024
 1224 09fe 9342     		cmp	r3, r2
 1225 0a00 00F02D81 		beq	.L317
 1226 0a04 4FF48002 		mov	r2, #4194304
 1227 0a08 2DE1     		b	.L51
 1228              	.L206:
 1229 0a0a 0422     		movs	r2, #4
 1230 0a0c B7E7     		b	.L43
 1231              	.L207:
 1232 0a0e 0422     		movs	r2, #4
 1233 0a10 B5E7     		b	.L43
 1234              	.L208:
 1235 0a12 0422     		movs	r2, #4
 1236 0a14 B3E7     		b	.L43
 1237              	.L209:
 1238 0a16 4FF48072 		mov	r2, #256
 1239 0a1a B0E7     		b	.L43
 1240              	.L210:
 1241 0a1c 4FF48072 		mov	r2, #256
 1242 0a20 ADE7     		b	.L43
 1243              	.L211:
 1244 0a22 4FF48072 		mov	r2, #256
 1245 0a26 AAE7     		b	.L43
 1246              	.L212:
 1247 0a28 4FF48072 		mov	r2, #256
 1248 0a2c A7E7     		b	.L43
 1249              	.L213:
 1250 0a2e 4FF48022 		mov	r2, #262144
 1251 0a32 A4E7     		b	.L43
 1252              	.L214:
 1253 0a34 4FF48022 		mov	r2, #262144
 1254 0a38 A1E7     		b	.L43
 1255              	.L215:
 1256 0a3a 4FF48022 		mov	r2, #262144
 1257 0a3e 9EE7     		b	.L43
 1258              	.L42:
 1259 0a40 594A     		ldr	r2, .L331+16
ARM GAS  /var/folders/0f/x4_g94q9649fs6s33cksjfb00000gn/T//ccVGBTVs.s 			page 23


 1260 0a42 9342     		cmp	r3, r2
 1261 0a44 53D9     		bls	.L45
 1262 0a46 A83A     		subs	r2, r2, #168
 1263 0a48 9342     		cmp	r3, r2
 1264 0a4a 31D0     		beq	.L217
 1265 0a4c 02F58062 		add	r2, r2, #1024
 1266 0a50 9342     		cmp	r3, r2
 1267 0a52 31D0     		beq	.L218
 1268 0a54 A2F56872 		sub	r2, r2, #928
 1269 0a58 9342     		cmp	r3, r2
 1270 0a5a 2FD0     		beq	.L219
 1271 0a5c 02F58062 		add	r2, r2, #1024
 1272 0a60 9342     		cmp	r3, r2
 1273 0a62 2DD0     		beq	.L220
 1274 0a64 A2F58962 		sub	r2, r2, #1096
 1275 0a68 9342     		cmp	r3, r2
 1276 0a6a 2BD0     		beq	.L221
 1277 0a6c 02F58062 		add	r2, r2, #1024
 1278 0a70 9342     		cmp	r3, r2
 1279 0a72 2AD0     		beq	.L222
 1280 0a74 A2F56872 		sub	r2, r2, #928
 1281 0a78 9342     		cmp	r3, r2
 1282 0a7a 29D0     		beq	.L223
 1283 0a7c 02F58062 		add	r2, r2, #1024
 1284 0a80 9342     		cmp	r3, r2
 1285 0a82 28D0     		beq	.L224
 1286 0a84 A2F58962 		sub	r2, r2, #1096
 1287 0a88 9342     		cmp	r3, r2
 1288 0a8a 27D0     		beq	.L225
 1289 0a8c 02F58062 		add	r2, r2, #1024
 1290 0a90 9342     		cmp	r3, r2
 1291 0a92 26D0     		beq	.L226
 1292 0a94 A2F56872 		sub	r2, r2, #928
 1293 0a98 9342     		cmp	r3, r2
 1294 0a9a 25D0     		beq	.L227
 1295 0a9c 02F58062 		add	r2, r2, #1024
 1296 0aa0 9342     		cmp	r3, r2
 1297 0aa2 02D0     		beq	.L318
 1298 0aa4 4FF08072 		mov	r2, #16777216
 1299 0aa8 03E0     		b	.L46
 1300              	.L318:
 1301 0aaa 4FF48022 		mov	r2, #262144
 1302 0aae 00E0     		b	.L46
 1303              	.L217:
 1304 0ab0 0422     		movs	r2, #4
 1305              	.L46:
 1306 0ab2 3B4B     		ldr	r3, .L331+8
 1307 0ab4 9A60     		str	r2, [r3, #8]
 1308 0ab6 64E7     		b	.L44
 1309              	.L218:
 1310 0ab8 0422     		movs	r2, #4
 1311 0aba FAE7     		b	.L46
 1312              	.L219:
 1313 0abc 0422     		movs	r2, #4
 1314 0abe F8E7     		b	.L46
 1315              	.L220:
 1316 0ac0 0422     		movs	r2, #4
ARM GAS  /var/folders/0f/x4_g94q9649fs6s33cksjfb00000gn/T//ccVGBTVs.s 			page 24


 1317 0ac2 F6E7     		b	.L46
 1318              	.L221:
 1319 0ac4 4FF48072 		mov	r2, #256
 1320 0ac8 F3E7     		b	.L46
 1321              	.L222:
 1322 0aca 4FF48072 		mov	r2, #256
 1323 0ace F0E7     		b	.L46
 1324              	.L223:
 1325 0ad0 4FF48072 		mov	r2, #256
 1326 0ad4 EDE7     		b	.L46
 1327              	.L224:
 1328 0ad6 4FF48072 		mov	r2, #256
 1329 0ada EAE7     		b	.L46
 1330              	.L225:
 1331 0adc 4FF48022 		mov	r2, #262144
 1332 0ae0 E7E7     		b	.L46
 1333              	.L226:
 1334 0ae2 4FF48022 		mov	r2, #262144
 1335 0ae6 E4E7     		b	.L46
 1336              	.L227:
 1337 0ae8 4FF48022 		mov	r2, #262144
 1338 0aec E1E7     		b	.L46
 1339              	.L45:
 1340 0aee 2F4A     		ldr	r2, .L331+20
 1341 0af0 9342     		cmp	r3, r2
 1342 0af2 60D9     		bls	.L47
 1343 0af4 483A     		subs	r2, r2, #72
 1344 0af6 9342     		cmp	r3, r2
 1345 0af8 31D0     		beq	.L229
 1346 0afa 02F58062 		add	r2, r2, #1024
 1347 0afe 9342     		cmp	r3, r2
 1348 0b00 31D0     		beq	.L230
 1349 0b02 A2F56872 		sub	r2, r2, #928
 1350 0b06 9342     		cmp	r3, r2
 1351 0b08 2FD0     		beq	.L231
 1352 0b0a 02F58062 		add	r2, r2, #1024
 1353 0b0e 9342     		cmp	r3, r2
 1354 0b10 2DD0     		beq	.L232
 1355 0b12 A2F58962 		sub	r2, r2, #1096
 1356 0b16 9342     		cmp	r3, r2
 1357 0b18 2BD0     		beq	.L233
 1358 0b1a 02F58062 		add	r2, r2, #1024
 1359 0b1e 9342     		cmp	r3, r2
 1360 0b20 2AD0     		beq	.L234
 1361 0b22 A2F56872 		sub	r2, r2, #928
 1362 0b26 9342     		cmp	r3, r2
 1363 0b28 29D0     		beq	.L235
 1364 0b2a 02F58062 		add	r2, r2, #1024
 1365 0b2e 9342     		cmp	r3, r2
 1366 0b30 28D0     		beq	.L236
 1367 0b32 A2F58962 		sub	r2, r2, #1096
 1368 0b36 9342     		cmp	r3, r2
 1369 0b38 27D0     		beq	.L237
 1370 0b3a 02F58062 		add	r2, r2, #1024
 1371 0b3e 9342     		cmp	r3, r2
 1372 0b40 26D0     		beq	.L238
 1373 0b42 A2F56872 		sub	r2, r2, #928
ARM GAS  /var/folders/0f/x4_g94q9649fs6s33cksjfb00000gn/T//ccVGBTVs.s 			page 25


 1374 0b46 9342     		cmp	r3, r2
 1375 0b48 32D0     		beq	.L239
 1376 0b4a 02F58062 		add	r2, r2, #1024
 1377 0b4e 9342     		cmp	r3, r2
 1378 0b50 02D0     		beq	.L319
 1379 0b52 4FF08073 		mov	r3, #16777216
 1380 0b56 03E0     		b	.L48
 1381              	.L319:
 1382 0b58 4FF48023 		mov	r3, #262144
 1383 0b5c 00E0     		b	.L48
 1384              	.L229:
 1385 0b5e 0423     		movs	r3, #4
 1386              	.L48:
 1387 0b60 0E4A     		ldr	r2, .L331+4
 1388 0b62 D360     		str	r3, [r2, #12]
 1389 0b64 0DE7     		b	.L44
 1390              	.L230:
 1391 0b66 0423     		movs	r3, #4
 1392 0b68 FAE7     		b	.L48
 1393              	.L231:
 1394 0b6a 0423     		movs	r3, #4
 1395 0b6c F8E7     		b	.L48
 1396              	.L232:
 1397 0b6e 0423     		movs	r3, #4
 1398 0b70 F6E7     		b	.L48
 1399              	.L233:
 1400 0b72 4FF48073 		mov	r3, #256
 1401 0b76 F3E7     		b	.L48
 1402              	.L234:
 1403 0b78 4FF48073 		mov	r3, #256
 1404 0b7c F0E7     		b	.L48
 1405              	.L235:
 1406 0b7e 4FF48073 		mov	r3, #256
 1407 0b82 EDE7     		b	.L48
 1408              	.L236:
 1409 0b84 4FF48073 		mov	r3, #256
 1410 0b88 EAE7     		b	.L48
 1411              	.L237:
 1412 0b8a 4FF48023 		mov	r3, #262144
 1413 0b8e E7E7     		b	.L48
 1414              	.L238:
 1415 0b90 4FF48023 		mov	r3, #262144
 1416 0b94 E4E7     		b	.L48
 1417              	.L332:
 1418 0b96 00BF     		.align	2
 1419              	.L331:
 1420 0b98 10600240 		.word	1073897488
 1421 0b9c 00600240 		.word	1073897472
 1422 0ba0 00640240 		.word	1073898496
 1423 0ba4 58640240 		.word	1073898584
 1424 0ba8 B8600240 		.word	1073897656
 1425 0bac 58600240 		.word	1073897560
 1426              	.L239:
 1427 0bb0 4FF48023 		mov	r3, #262144
 1428 0bb4 D4E7     		b	.L48
 1429              	.L47:
 1430 0bb6 994A     		ldr	r2, .L333
ARM GAS  /var/folders/0f/x4_g94q9649fs6s33cksjfb00000gn/T//ccVGBTVs.s 			page 26


 1431 0bb8 9342     		cmp	r3, r2
 1432 0bba 31D0     		beq	.L241
 1433 0bbc 02F58062 		add	r2, r2, #1024
 1434 0bc0 9342     		cmp	r3, r2
 1435 0bc2 31D0     		beq	.L242
 1436 0bc4 A2F56872 		sub	r2, r2, #928
 1437 0bc8 9342     		cmp	r3, r2
 1438 0bca 2FD0     		beq	.L243
 1439 0bcc 02F58062 		add	r2, r2, #1024
 1440 0bd0 9342     		cmp	r3, r2
 1441 0bd2 2DD0     		beq	.L244
 1442 0bd4 A2F58962 		sub	r2, r2, #1096
 1443 0bd8 9342     		cmp	r3, r2
 1444 0bda 2BD0     		beq	.L245
 1445 0bdc 02F58062 		add	r2, r2, #1024
 1446 0be0 9342     		cmp	r3, r2
 1447 0be2 2AD0     		beq	.L246
 1448 0be4 A2F56872 		sub	r2, r2, #928
 1449 0be8 9342     		cmp	r3, r2
 1450 0bea 29D0     		beq	.L247
 1451 0bec 02F58062 		add	r2, r2, #1024
 1452 0bf0 9342     		cmp	r3, r2
 1453 0bf2 28D0     		beq	.L248
 1454 0bf4 A2F58962 		sub	r2, r2, #1096
 1455 0bf8 9342     		cmp	r3, r2
 1456 0bfa 27D0     		beq	.L249
 1457 0bfc 02F58062 		add	r2, r2, #1024
 1458 0c00 9342     		cmp	r3, r2
 1459 0c02 26D0     		beq	.L250
 1460 0c04 A2F56872 		sub	r2, r2, #928
 1461 0c08 9342     		cmp	r3, r2
 1462 0c0a 25D0     		beq	.L251
 1463 0c0c 02F58062 		add	r2, r2, #1024
 1464 0c10 9342     		cmp	r3, r2
 1465 0c12 02D0     		beq	.L320
 1466 0c14 4FF08073 		mov	r3, #16777216
 1467 0c18 03E0     		b	.L49
 1468              	.L320:
 1469 0c1a 4FF48023 		mov	r3, #262144
 1470 0c1e 00E0     		b	.L49
 1471              	.L241:
 1472 0c20 0423     		movs	r3, #4
 1473              	.L49:
 1474 0c22 7F4A     		ldr	r2, .L333+4
 1475 0c24 9360     		str	r3, [r2, #8]
 1476 0c26 ACE6     		b	.L44
 1477              	.L242:
 1478 0c28 0423     		movs	r3, #4
 1479 0c2a FAE7     		b	.L49
 1480              	.L243:
 1481 0c2c 0423     		movs	r3, #4
 1482 0c2e F8E7     		b	.L49
 1483              	.L244:
 1484 0c30 0423     		movs	r3, #4
 1485 0c32 F6E7     		b	.L49
 1486              	.L245:
 1487 0c34 4FF48073 		mov	r3, #256
ARM GAS  /var/folders/0f/x4_g94q9649fs6s33cksjfb00000gn/T//ccVGBTVs.s 			page 27


 1488 0c38 F3E7     		b	.L49
 1489              	.L246:
 1490 0c3a 4FF48073 		mov	r3, #256
 1491 0c3e F0E7     		b	.L49
 1492              	.L247:
 1493 0c40 4FF48073 		mov	r3, #256
 1494 0c44 EDE7     		b	.L49
 1495              	.L248:
 1496 0c46 4FF48073 		mov	r3, #256
 1497 0c4a EAE7     		b	.L49
 1498              	.L249:
 1499 0c4c 4FF48023 		mov	r3, #262144
 1500 0c50 E7E7     		b	.L49
 1501              	.L250:
 1502 0c52 4FF48023 		mov	r3, #262144
 1503 0c56 E4E7     		b	.L49
 1504              	.L251:
 1505 0c58 4FF48023 		mov	r3, #262144
 1506 0c5c E1E7     		b	.L49
 1507              	.L317:
 1508 0c5e 4FF48032 		mov	r2, #65536
 1509 0c62 00E0     		b	.L51
 1510              	.L253:
 1511 0c64 0122     		movs	r2, #1
 1512              	.L51:
 1513 0c66 6F4B     		ldr	r3, .L333+8
 1514 0c68 DA60     		str	r2, [r3, #12]
 1515              	.L52:
 1516 0c6a 2268     		ldr	r2, [r4]
 1517 0c6c 1368     		ldr	r3, [r2]
 1518 0c6e 43F01603 		orr	r3, r3, #22
 1519 0c72 1360     		str	r3, [r2]
 1520 0c74 2268     		ldr	r2, [r4]
 1521 0c76 5369     		ldr	r3, [r2, #20]
 1522 0c78 43F08003 		orr	r3, r3, #128
 1523 0c7c 5361     		str	r3, [r2, #20]
 1524 0c7e 236C     		ldr	r3, [r4, #64]
 1525 0c80 002B     		cmp	r3, #0
 1526 0c82 00F02581 		beq	.L321
 1527              	.L58:
 1528 0c86 2268     		ldr	r2, [r4]
 1529 0c88 1368     		ldr	r3, [r2]
 1530 0c8a 43F00803 		orr	r3, r3, #8
 1531 0c8e 1360     		str	r3, [r2]
 1532              	.L59:
 1533 0c90 2268     		ldr	r2, [r4]
 1534 0c92 1368     		ldr	r3, [r2]
 1535 0c94 43F00103 		orr	r3, r3, #1
 1536 0c98 1360     		str	r3, [r2]
 1537 0c9a 0020     		movs	r0, #0
 1538 0c9c FFF7C5B9 		b	.L16
 1539              	.L254:
 1540 0ca0 0122     		movs	r2, #1
 1541 0ca2 E0E7     		b	.L51
 1542              	.L255:
 1543 0ca4 0122     		movs	r2, #1
 1544 0ca6 DEE7     		b	.L51
ARM GAS  /var/folders/0f/x4_g94q9649fs6s33cksjfb00000gn/T//ccVGBTVs.s 			page 28


 1545              	.L256:
 1546 0ca8 0122     		movs	r2, #1
 1547 0caa DCE7     		b	.L51
 1548              	.L257:
 1549 0cac 4022     		movs	r2, #64
 1550 0cae DAE7     		b	.L51
 1551              	.L258:
 1552 0cb0 4022     		movs	r2, #64
 1553 0cb2 D8E7     		b	.L51
 1554              	.L259:
 1555 0cb4 4022     		movs	r2, #64
 1556 0cb6 D6E7     		b	.L51
 1557              	.L260:
 1558 0cb8 4022     		movs	r2, #64
 1559 0cba D4E7     		b	.L51
 1560              	.L261:
 1561 0cbc 4FF48032 		mov	r2, #65536
 1562 0cc0 D1E7     		b	.L51
 1563              	.L262:
 1564 0cc2 4FF48032 		mov	r2, #65536
 1565 0cc6 CEE7     		b	.L51
 1566              	.L263:
 1567 0cc8 4FF48032 		mov	r2, #65536
 1568 0ccc CBE7     		b	.L51
 1569              	.L50:
 1570 0cce 564A     		ldr	r2, .L333+12
 1571 0cd0 9342     		cmp	r3, r2
 1572 0cd2 4FD9     		bls	.L53
 1573 0cd4 A83A     		subs	r2, r2, #168
 1574 0cd6 9342     		cmp	r3, r2
 1575 0cd8 31D0     		beq	.L265
 1576 0cda 02F58062 		add	r2, r2, #1024
 1577 0cde 9342     		cmp	r3, r2
 1578 0ce0 31D0     		beq	.L266
 1579 0ce2 A2F56872 		sub	r2, r2, #928
 1580 0ce6 9342     		cmp	r3, r2
 1581 0ce8 2FD0     		beq	.L267
 1582 0cea 02F58062 		add	r2, r2, #1024
 1583 0cee 9342     		cmp	r3, r2
 1584 0cf0 2DD0     		beq	.L268
 1585 0cf2 A2F58962 		sub	r2, r2, #1096
 1586 0cf6 9342     		cmp	r3, r2
 1587 0cf8 2BD0     		beq	.L269
 1588 0cfa 02F58062 		add	r2, r2, #1024
 1589 0cfe 9342     		cmp	r3, r2
 1590 0d00 29D0     		beq	.L270
 1591 0d02 A2F56872 		sub	r2, r2, #928
 1592 0d06 9342     		cmp	r3, r2
 1593 0d08 27D0     		beq	.L271
 1594 0d0a 02F58062 		add	r2, r2, #1024
 1595 0d0e 9342     		cmp	r3, r2
 1596 0d10 25D0     		beq	.L272
 1597 0d12 A2F58962 		sub	r2, r2, #1096
 1598 0d16 9342     		cmp	r3, r2
 1599 0d18 23D0     		beq	.L273
 1600 0d1a 02F58062 		add	r2, r2, #1024
 1601 0d1e 9342     		cmp	r3, r2
ARM GAS  /var/folders/0f/x4_g94q9649fs6s33cksjfb00000gn/T//ccVGBTVs.s 			page 29


 1602 0d20 22D0     		beq	.L274
 1603 0d22 A2F56872 		sub	r2, r2, #928
 1604 0d26 9342     		cmp	r3, r2
 1605 0d28 21D0     		beq	.L275
 1606 0d2a 02F58062 		add	r2, r2, #1024
 1607 0d2e 9342     		cmp	r3, r2
 1608 0d30 02D0     		beq	.L322
 1609 0d32 4FF48002 		mov	r2, #4194304
 1610 0d36 03E0     		b	.L54
 1611              	.L322:
 1612 0d38 4FF48032 		mov	r2, #65536
 1613 0d3c 00E0     		b	.L54
 1614              	.L265:
 1615 0d3e 0122     		movs	r2, #1
 1616              	.L54:
 1617 0d40 384B     		ldr	r3, .L333+8
 1618 0d42 9A60     		str	r2, [r3, #8]
 1619 0d44 91E7     		b	.L52
 1620              	.L266:
 1621 0d46 0122     		movs	r2, #1
 1622 0d48 FAE7     		b	.L54
 1623              	.L267:
 1624 0d4a 0122     		movs	r2, #1
 1625 0d4c F8E7     		b	.L54
 1626              	.L268:
 1627 0d4e 0122     		movs	r2, #1
 1628 0d50 F6E7     		b	.L54
 1629              	.L269:
 1630 0d52 4022     		movs	r2, #64
 1631 0d54 F4E7     		b	.L54
 1632              	.L270:
 1633 0d56 4022     		movs	r2, #64
 1634 0d58 F2E7     		b	.L54
 1635              	.L271:
 1636 0d5a 4022     		movs	r2, #64
 1637 0d5c F0E7     		b	.L54
 1638              	.L272:
 1639 0d5e 4022     		movs	r2, #64
 1640 0d60 EEE7     		b	.L54
 1641              	.L273:
 1642 0d62 4FF48032 		mov	r2, #65536
 1643 0d66 EBE7     		b	.L54
 1644              	.L274:
 1645 0d68 4FF48032 		mov	r2, #65536
 1646 0d6c E8E7     		b	.L54
 1647              	.L275:
 1648 0d6e 4FF48032 		mov	r2, #65536
 1649 0d72 E5E7     		b	.L54
 1650              	.L53:
 1651 0d74 2D4A     		ldr	r2, .L333+16
 1652 0d76 9342     		cmp	r3, r2
 1653 0d78 5AD9     		bls	.L55
 1654 0d7a 483A     		subs	r2, r2, #72
 1655 0d7c 9342     		cmp	r3, r2
 1656 0d7e 31D0     		beq	.L277
 1657 0d80 02F58062 		add	r2, r2, #1024
 1658 0d84 9342     		cmp	r3, r2
ARM GAS  /var/folders/0f/x4_g94q9649fs6s33cksjfb00000gn/T//ccVGBTVs.s 			page 30


 1659 0d86 31D0     		beq	.L278
 1660 0d88 A2F56872 		sub	r2, r2, #928
 1661 0d8c 9342     		cmp	r3, r2
 1662 0d8e 2FD0     		beq	.L279
 1663 0d90 02F58062 		add	r2, r2, #1024
 1664 0d94 9342     		cmp	r3, r2
 1665 0d96 2DD0     		beq	.L280
 1666 0d98 A2F58962 		sub	r2, r2, #1096
 1667 0d9c 9342     		cmp	r3, r2
 1668 0d9e 2BD0     		beq	.L281
 1669 0da0 02F58062 		add	r2, r2, #1024
 1670 0da4 9342     		cmp	r3, r2
 1671 0da6 29D0     		beq	.L282
 1672 0da8 A2F56872 		sub	r2, r2, #928
 1673 0dac 9342     		cmp	r3, r2
 1674 0dae 27D0     		beq	.L283
 1675 0db0 02F58062 		add	r2, r2, #1024
 1676 0db4 9342     		cmp	r3, r2
 1677 0db6 25D0     		beq	.L284
 1678 0db8 A2F58962 		sub	r2, r2, #1096
 1679 0dbc 9342     		cmp	r3, r2
 1680 0dbe 23D0     		beq	.L285
 1681 0dc0 02F58062 		add	r2, r2, #1024
 1682 0dc4 9342     		cmp	r3, r2
 1683 0dc6 22D0     		beq	.L286
 1684 0dc8 A2F56872 		sub	r2, r2, #928
 1685 0dcc 9342     		cmp	r3, r2
 1686 0dce 21D0     		beq	.L287
 1687 0dd0 02F58062 		add	r2, r2, #1024
 1688 0dd4 9342     		cmp	r3, r2
 1689 0dd6 02D0     		beq	.L323
 1690 0dd8 4FF48003 		mov	r3, #4194304
 1691 0ddc 03E0     		b	.L56
 1692              	.L323:
 1693 0dde 4FF48033 		mov	r3, #65536
 1694 0de2 00E0     		b	.L56
 1695              	.L277:
 1696 0de4 0123     		movs	r3, #1
 1697              	.L56:
 1698 0de6 0E4A     		ldr	r2, .L333+4
 1699 0de8 D360     		str	r3, [r2, #12]
 1700 0dea 3EE7     		b	.L52
 1701              	.L278:
 1702 0dec 0123     		movs	r3, #1
 1703 0dee FAE7     		b	.L56
 1704              	.L279:
 1705 0df0 0123     		movs	r3, #1
 1706 0df2 F8E7     		b	.L56
 1707              	.L280:
 1708 0df4 0123     		movs	r3, #1
 1709 0df6 F6E7     		b	.L56
 1710              	.L281:
 1711 0df8 4023     		movs	r3, #64
 1712 0dfa F4E7     		b	.L56
 1713              	.L282:
 1714 0dfc 4023     		movs	r3, #64
 1715 0dfe F2E7     		b	.L56
ARM GAS  /var/folders/0f/x4_g94q9649fs6s33cksjfb00000gn/T//ccVGBTVs.s 			page 31


 1716              	.L283:
 1717 0e00 4023     		movs	r3, #64
 1718 0e02 F0E7     		b	.L56
 1719              	.L284:
 1720 0e04 4023     		movs	r3, #64
 1721 0e06 EEE7     		b	.L56
 1722              	.L285:
 1723 0e08 4FF48033 		mov	r3, #65536
 1724 0e0c EBE7     		b	.L56
 1725              	.L286:
 1726 0e0e 4FF48033 		mov	r3, #65536
 1727 0e12 E8E7     		b	.L56
 1728              	.L287:
 1729 0e14 4FF48033 		mov	r3, #65536
 1730 0e18 E5E7     		b	.L56
 1731              	.L334:
 1732 0e1a 00BF     		.align	2
 1733              	.L333:
 1734 0e1c 10600240 		.word	1073897488
 1735 0e20 00600240 		.word	1073897472
 1736 0e24 00640240 		.word	1073898496
 1737 0e28 B8600240 		.word	1073897656
 1738 0e2c 58600240 		.word	1073897560
 1739              	.L55:
 1740 0e30 2B4A     		ldr	r2, .L335
 1741 0e32 9342     		cmp	r3, r2
 1742 0e34 31D0     		beq	.L289
 1743 0e36 02F58062 		add	r2, r2, #1024
 1744 0e3a 9342     		cmp	r3, r2
 1745 0e3c 31D0     		beq	.L290
 1746 0e3e A2F56872 		sub	r2, r2, #928
 1747 0e42 9342     		cmp	r3, r2
 1748 0e44 2FD0     		beq	.L291
 1749 0e46 02F58062 		add	r2, r2, #1024
 1750 0e4a 9342     		cmp	r3, r2
 1751 0e4c 2DD0     		beq	.L292
 1752 0e4e A2F58962 		sub	r2, r2, #1096
 1753 0e52 9342     		cmp	r3, r2
 1754 0e54 2BD0     		beq	.L293
 1755 0e56 02F58062 		add	r2, r2, #1024
 1756 0e5a 9342     		cmp	r3, r2
 1757 0e5c 29D0     		beq	.L294
 1758 0e5e A2F56872 		sub	r2, r2, #928
 1759 0e62 9342     		cmp	r3, r2
 1760 0e64 27D0     		beq	.L295
 1761 0e66 02F58062 		add	r2, r2, #1024
 1762 0e6a 9342     		cmp	r3, r2
 1763 0e6c 25D0     		beq	.L296
 1764 0e6e A2F58962 		sub	r2, r2, #1096
 1765 0e72 9342     		cmp	r3, r2
 1766 0e74 23D0     		beq	.L297
 1767 0e76 02F58062 		add	r2, r2, #1024
 1768 0e7a 9342     		cmp	r3, r2
 1769 0e7c 22D0     		beq	.L298
 1770 0e7e A2F56872 		sub	r2, r2, #928
 1771 0e82 9342     		cmp	r3, r2
 1772 0e84 21D0     		beq	.L299
ARM GAS  /var/folders/0f/x4_g94q9649fs6s33cksjfb00000gn/T//ccVGBTVs.s 			page 32


 1773 0e86 02F58062 		add	r2, r2, #1024
 1774 0e8a 9342     		cmp	r3, r2
 1775 0e8c 02D0     		beq	.L324
 1776 0e8e 4FF48003 		mov	r3, #4194304
 1777 0e92 03E0     		b	.L57
 1778              	.L324:
 1779 0e94 4FF48033 		mov	r3, #65536
 1780 0e98 00E0     		b	.L57
 1781              	.L289:
 1782 0e9a 0123     		movs	r3, #1
 1783              	.L57:
 1784 0e9c 114A     		ldr	r2, .L335+4
 1785 0e9e 9360     		str	r3, [r2, #8]
 1786 0ea0 E3E6     		b	.L52
 1787              	.L290:
 1788 0ea2 0123     		movs	r3, #1
 1789 0ea4 FAE7     		b	.L57
 1790              	.L291:
 1791 0ea6 0123     		movs	r3, #1
 1792 0ea8 F8E7     		b	.L57
 1793              	.L292:
 1794 0eaa 0123     		movs	r3, #1
 1795 0eac F6E7     		b	.L57
 1796              	.L293:
 1797 0eae 4023     		movs	r3, #64
 1798 0eb0 F4E7     		b	.L57
 1799              	.L294:
 1800 0eb2 4023     		movs	r3, #64
 1801 0eb4 F2E7     		b	.L57
 1802              	.L295:
 1803 0eb6 4023     		movs	r3, #64
 1804 0eb8 F0E7     		b	.L57
 1805              	.L296:
 1806 0eba 4023     		movs	r3, #64
 1807 0ebc EEE7     		b	.L57
 1808              	.L297:
 1809 0ebe 4FF48033 		mov	r3, #65536
 1810 0ec2 EBE7     		b	.L57
 1811              	.L298:
 1812 0ec4 4FF48033 		mov	r3, #65536
 1813 0ec8 E8E7     		b	.L57
 1814              	.L299:
 1815 0eca 4FF48033 		mov	r3, #65536
 1816 0ece E5E7     		b	.L57
 1817              	.L321:
 1818 0ed0 A36C     		ldr	r3, [r4, #72]
 1819 0ed2 002B     		cmp	r3, #0
 1820 0ed4 7FF4D7AE 		bne	.L58
 1821 0ed8 DAE6     		b	.L59
 1822              	.L60:
 1823 0eda 0220     		movs	r0, #2
 1824 0edc FFF7A5B8 		b	.L16
 1825              	.L336:
 1826              		.align	2
 1827              	.L335:
 1828 0ee0 10600240 		.word	1073897488
 1829 0ee4 00600240 		.word	1073897472
ARM GAS  /var/folders/0f/x4_g94q9649fs6s33cksjfb00000gn/T//ccVGBTVs.s 			page 33


 1831              		.section	.text.HAL_DMAEx_ChangeMemory,"ax",%progbits
 1832              		.align	1
 1833              		.global	HAL_DMAEx_ChangeMemory
 1834              		.syntax unified
 1835              		.thumb
 1836              		.thumb_func
 1838              	HAL_DMAEx_ChangeMemory:
 1839              		@ args = 0, pretend = 0, frame = 0
 1840              		@ frame_needed = 0, uses_anonymous_args = 0
 1841              		@ link register save eliminated.
 1842 0000 1AB9     		cbnz	r2, .L338
 1843 0002 0368     		ldr	r3, [r0]
 1844 0004 D960     		str	r1, [r3, #12]
 1845              	.L339:
 1846 0006 0020     		movs	r0, #0
 1847 0008 7047     		bx	lr
 1848              	.L338:
 1849 000a 0368     		ldr	r3, [r0]
 1850 000c 1961     		str	r1, [r3, #16]
 1851 000e FAE7     		b	.L339
 1853              		.ident	"GCC: (Arm GNU Toolchain 14.2.Rel1 (Build arm-14.52)) 14.2.1 20241119"
ARM GAS  /var/folders/0f/x4_g94q9649fs6s33cksjfb00000gn/T//ccVGBTVs.s 			page 34

