ARM GAS  /var/folders/0f/x4_g94q9649fs6s33cksjfb00000gn/T//ccmft7Jl.s 			page 1


   1              		.cpu cortex-m7
   2              		.arch armv7e-m
   3              		.fpu fpv5-d16
   4              		.eabi_attribute 28, 1
   5              		.eabi_attribute 20, 1
   6              		.eabi_attribute 21, 1
   7              		.eabi_attribute 23, 3
   8              		.eabi_attribute 24, 1
   9              		.eabi_attribute 25, 1
  10              		.eabi_attribute 26, 1
  11              		.eabi_attribute 30, 1
  12              		.eabi_attribute 34, 1
  13              		.eabi_attribute 18, 4
  14              		.file	"stm32f7xx_hal_tim.c"
  15              		.text
  16              		.section	.text.TIM_OC1_SetConfig,"ax",%progbits
  17              		.align	1
  18              		.syntax unified
  19              		.thumb
  20              		.thumb_func
  22              	TIM_OC1_SetConfig:
  23              		@ args = 0, pretend = 0, frame = 0
  24              		@ frame_needed = 0, uses_anonymous_args = 0
  25              		@ link register save eliminated.
  26 0000 70B4     		push	{r4, r5, r6}
  27 0002 046A     		ldr	r4, [r0, #32]
  28 0004 036A     		ldr	r3, [r0, #32]
  29 0006 23F00103 		bic	r3, r3, #1
  30 000a 0362     		str	r3, [r0, #32]
  31 000c 4268     		ldr	r2, [r0, #4]
  32 000e 8569     		ldr	r5, [r0, #24]
  33 0010 124B     		ldr	r3, .L5
  34 0012 2B40     		ands	r3, r3, r5
  35 0014 0D68     		ldr	r5, [r1]
  36 0016 1D43     		orrs	r5, r5, r3
  37 0018 24F00204 		bic	r4, r4, #2
  38 001c 8B68     		ldr	r3, [r1, #8]
  39 001e 2343     		orrs	r3, r3, r4
  40 0020 0F4C     		ldr	r4, .L5+4
  41 0022 104E     		ldr	r6, .L5+8
  42 0024 B042     		cmp	r0, r6
  43 0026 18BF     		it	ne
  44 0028 A042     		cmpne	r0, r4
  45 002a 0CBF     		ite	eq
  46 002c 0124     		moveq	r4, #1
  47 002e 0024     		movne	r4, #0
  48 0030 05D1     		bne	.L2
  49 0032 23F00803 		bic	r3, r3, #8
  50 0036 CE68     		ldr	r6, [r1, #12]
  51 0038 1E43     		orrs	r6, r6, r3
  52 003a 26F00403 		bic	r3, r6, #4
  53              	.L2:
  54 003e 2CB1     		cbz	r4, .L3
  55 0040 22F44072 		bic	r2, r2, #768
  56 0044 4C69     		ldr	r4, [r1, #20]
  57 0046 1443     		orrs	r4, r4, r2
  58 0048 8A69     		ldr	r2, [r1, #24]
ARM GAS  /var/folders/0f/x4_g94q9649fs6s33cksjfb00000gn/T//ccmft7Jl.s 			page 2


  59 004a 2243     		orrs	r2, r2, r4
  60              	.L3:
  61 004c 4260     		str	r2, [r0, #4]
  62 004e 8561     		str	r5, [r0, #24]
  63 0050 4A68     		ldr	r2, [r1, #4]
  64 0052 4263     		str	r2, [r0, #52]
  65 0054 0362     		str	r3, [r0, #32]
  66 0056 70BC     		pop	{r4, r5, r6}
  67 0058 7047     		bx	lr
  68              	.L6:
  69 005a 00BF     		.align	2
  70              	.L5:
  71 005c 8CFFFEFF 		.word	-65652
  72 0060 00000140 		.word	1073807360
  73 0064 00040140 		.word	1073808384
  75              		.section	.text.TIM_OC3_SetConfig,"ax",%progbits
  76              		.align	1
  77              		.syntax unified
  78              		.thumb
  79              		.thumb_func
  81              	TIM_OC3_SetConfig:
  82              		@ args = 0, pretend = 0, frame = 0
  83              		@ frame_needed = 0, uses_anonymous_args = 0
  84              		@ link register save eliminated.
  85 0000 70B4     		push	{r4, r5, r6}
  86 0002 036A     		ldr	r3, [r0, #32]
  87 0004 026A     		ldr	r2, [r0, #32]
  88 0006 22F48072 		bic	r2, r2, #256
  89 000a 0262     		str	r2, [r0, #32]
  90 000c 4268     		ldr	r2, [r0, #4]
  91 000e C569     		ldr	r5, [r0, #28]
  92 0010 144C     		ldr	r4, .L11
  93 0012 2C40     		ands	r4, r4, r5
  94 0014 0E68     		ldr	r6, [r1]
  95 0016 2643     		orrs	r6, r6, r4
  96 0018 23F40073 		bic	r3, r3, #512
  97 001c 8C68     		ldr	r4, [r1, #8]
  98 001e 43EA0423 		orr	r3, r3, r4, lsl #8
  99 0022 114C     		ldr	r4, .L11+4
 100 0024 114D     		ldr	r5, .L11+8
 101 0026 A842     		cmp	r0, r5
 102 0028 18BF     		it	ne
 103 002a A042     		cmpne	r0, r4
 104 002c 0CBF     		ite	eq
 105 002e 0124     		moveq	r4, #1
 106 0030 0024     		movne	r4, #0
 107 0032 06D1     		bne	.L8
 108 0034 23F40063 		bic	r3, r3, #2048
 109 0038 CD68     		ldr	r5, [r1, #12]
 110 003a 43EA0523 		orr	r3, r3, r5, lsl #8
 111 003e 23F48063 		bic	r3, r3, #1024
 112              	.L8:
 113 0042 3CB1     		cbz	r4, .L9
 114 0044 22F44052 		bic	r2, r2, #12288
 115 0048 4C69     		ldr	r4, [r1, #20]
 116 004a 42EA0412 		orr	r2, r2, r4, lsl #4
 117 004e 8C69     		ldr	r4, [r1, #24]
ARM GAS  /var/folders/0f/x4_g94q9649fs6s33cksjfb00000gn/T//ccmft7Jl.s 			page 3


 118 0050 42EA0412 		orr	r2, r2, r4, lsl #4
 119              	.L9:
 120 0054 4260     		str	r2, [r0, #4]
 121 0056 C661     		str	r6, [r0, #28]
 122 0058 4A68     		ldr	r2, [r1, #4]
 123 005a C263     		str	r2, [r0, #60]
 124 005c 0362     		str	r3, [r0, #32]
 125 005e 70BC     		pop	{r4, r5, r6}
 126 0060 7047     		bx	lr
 127              	.L12:
 128 0062 00BF     		.align	2
 129              	.L11:
 130 0064 8CFFFEFF 		.word	-65652
 131 0068 00000140 		.word	1073807360
 132 006c 00040140 		.word	1073808384
 134              		.section	.text.TIM_OC4_SetConfig,"ax",%progbits
 135              		.align	1
 136              		.syntax unified
 137              		.thumb
 138              		.thumb_func
 140              	TIM_OC4_SetConfig:
 141              		@ args = 0, pretend = 0, frame = 0
 142              		@ frame_needed = 0, uses_anonymous_args = 0
 143              		@ link register save eliminated.
 144 0000 70B4     		push	{r4, r5, r6}
 145 0002 036A     		ldr	r3, [r0, #32]
 146 0004 026A     		ldr	r2, [r0, #32]
 147 0006 22F48052 		bic	r2, r2, #4096
 148 000a 0262     		str	r2, [r0, #32]
 149 000c 4468     		ldr	r4, [r0, #4]
 150 000e C569     		ldr	r5, [r0, #28]
 151 0010 0D4A     		ldr	r2, .L16
 152 0012 2A40     		ands	r2, r2, r5
 153 0014 0D68     		ldr	r5, [r1]
 154 0016 42EA0522 		orr	r2, r2, r5, lsl #8
 155 001a 23F40053 		bic	r3, r3, #8192
 156 001e 8D68     		ldr	r5, [r1, #8]
 157 0020 43EA0533 		orr	r3, r3, r5, lsl #12
 158 0024 094E     		ldr	r6, .L16+4
 159 0026 0A4D     		ldr	r5, .L16+8
 160 0028 A842     		cmp	r0, r5
 161 002a 18BF     		it	ne
 162 002c B042     		cmpne	r0, r6
 163 002e 04D1     		bne	.L14
 164 0030 24F48044 		bic	r4, r4, #16384
 165 0034 4D69     		ldr	r5, [r1, #20]
 166 0036 44EA8514 		orr	r4, r4, r5, lsl #6
 167              	.L14:
 168 003a 4460     		str	r4, [r0, #4]
 169 003c C261     		str	r2, [r0, #28]
 170 003e 4A68     		ldr	r2, [r1, #4]
 171 0040 0264     		str	r2, [r0, #64]
 172 0042 0362     		str	r3, [r0, #32]
 173 0044 70BC     		pop	{r4, r5, r6}
 174 0046 7047     		bx	lr
 175              	.L17:
 176              		.align	2
ARM GAS  /var/folders/0f/x4_g94q9649fs6s33cksjfb00000gn/T//ccmft7Jl.s 			page 4


 177              	.L16:
 178 0048 FF8CFFFE 		.word	-16806657
 179 004c 00000140 		.word	1073807360
 180 0050 00040140 		.word	1073808384
 182              		.section	.text.TIM_OC5_SetConfig,"ax",%progbits
 183              		.align	1
 184              		.syntax unified
 185              		.thumb
 186              		.thumb_func
 188              	TIM_OC5_SetConfig:
 189              		@ args = 0, pretend = 0, frame = 0
 190              		@ frame_needed = 0, uses_anonymous_args = 0
 191              		@ link register save eliminated.
 192 0000 70B4     		push	{r4, r5, r6}
 193 0002 036A     		ldr	r3, [r0, #32]
 194 0004 026A     		ldr	r2, [r0, #32]
 195 0006 22F48032 		bic	r2, r2, #65536
 196 000a 0262     		str	r2, [r0, #32]
 197 000c 4468     		ldr	r4, [r0, #4]
 198 000e 426D     		ldr	r2, [r0, #84]
 199 0010 0D4D     		ldr	r5, .L21
 200 0012 1540     		ands	r5, r5, r2
 201 0014 0A68     		ldr	r2, [r1]
 202 0016 2A43     		orrs	r2, r2, r5
 203 0018 23F40033 		bic	r3, r3, #131072
 204 001c 8D68     		ldr	r5, [r1, #8]
 205 001e 43EA0543 		orr	r3, r3, r5, lsl #16
 206 0022 0A4E     		ldr	r6, .L21+4
 207 0024 0A4D     		ldr	r5, .L21+8
 208 0026 A842     		cmp	r0, r5
 209 0028 18BF     		it	ne
 210 002a B042     		cmpne	r0, r6
 211 002c 04D1     		bne	.L19
 212 002e 24F48034 		bic	r4, r4, #65536
 213 0032 4D69     		ldr	r5, [r1, #20]
 214 0034 44EA0524 		orr	r4, r4, r5, lsl #8
 215              	.L19:
 216 0038 4460     		str	r4, [r0, #4]
 217 003a 4265     		str	r2, [r0, #84]
 218 003c 4A68     		ldr	r2, [r1, #4]
 219 003e 8265     		str	r2, [r0, #88]
 220 0040 0362     		str	r3, [r0, #32]
 221 0042 70BC     		pop	{r4, r5, r6}
 222 0044 7047     		bx	lr
 223              	.L22:
 224 0046 00BF     		.align	2
 225              	.L21:
 226 0048 8FFFFEFF 		.word	-65649
 227 004c 00000140 		.word	1073807360
 228 0050 00040140 		.word	1073808384
 230              		.section	.text.TIM_OC6_SetConfig,"ax",%progbits
 231              		.align	1
 232              		.syntax unified
 233              		.thumb
 234              		.thumb_func
 236              	TIM_OC6_SetConfig:
 237              		@ args = 0, pretend = 0, frame = 0
ARM GAS  /var/folders/0f/x4_g94q9649fs6s33cksjfb00000gn/T//ccmft7Jl.s 			page 5


 238              		@ frame_needed = 0, uses_anonymous_args = 0
 239              		@ link register save eliminated.
 240 0000 70B4     		push	{r4, r5, r6}
 241 0002 036A     		ldr	r3, [r0, #32]
 242 0004 026A     		ldr	r2, [r0, #32]
 243 0006 22F48012 		bic	r2, r2, #1048576
 244 000a 0262     		str	r2, [r0, #32]
 245 000c 4468     		ldr	r4, [r0, #4]
 246 000e 456D     		ldr	r5, [r0, #84]
 247 0010 0D4A     		ldr	r2, .L26
 248 0012 2A40     		ands	r2, r2, r5
 249 0014 0D68     		ldr	r5, [r1]
 250 0016 42EA0522 		orr	r2, r2, r5, lsl #8
 251 001a 23F40013 		bic	r3, r3, #2097152
 252 001e 8D68     		ldr	r5, [r1, #8]
 253 0020 43EA0553 		orr	r3, r3, r5, lsl #20
 254 0024 094E     		ldr	r6, .L26+4
 255 0026 0A4D     		ldr	r5, .L26+8
 256 0028 A842     		cmp	r0, r5
 257 002a 18BF     		it	ne
 258 002c B042     		cmpne	r0, r6
 259 002e 04D1     		bne	.L24
 260 0030 24F48024 		bic	r4, r4, #262144
 261 0034 4D69     		ldr	r5, [r1, #20]
 262 0036 44EA8524 		orr	r4, r4, r5, lsl #10
 263              	.L24:
 264 003a 4460     		str	r4, [r0, #4]
 265 003c 4265     		str	r2, [r0, #84]
 266 003e 4A68     		ldr	r2, [r1, #4]
 267 0040 C265     		str	r2, [r0, #92]
 268 0042 0362     		str	r3, [r0, #32]
 269 0044 70BC     		pop	{r4, r5, r6}
 270 0046 7047     		bx	lr
 271              	.L27:
 272              		.align	2
 273              	.L26:
 274 0048 FF8FFFFE 		.word	-16805889
 275 004c 00000140 		.word	1073807360
 276 0050 00040140 		.word	1073808384
 278              		.section	.text.TIM_TI1_ConfigInputStage,"ax",%progbits
 279              		.align	1
 280              		.syntax unified
 281              		.thumb
 282              		.thumb_func
 284              	TIM_TI1_ConfigInputStage:
 285              		@ args = 0, pretend = 0, frame = 0
 286              		@ frame_needed = 0, uses_anonymous_args = 0
 287              		@ link register save eliminated.
 288 0000 10B4     		push	{r4}
 289 0002 036A     		ldr	r3, [r0, #32]
 290 0004 046A     		ldr	r4, [r0, #32]
 291 0006 24F00104 		bic	r4, r4, #1
 292 000a 0462     		str	r4, [r0, #32]
 293 000c 8469     		ldr	r4, [r0, #24]
 294 000e 24F0F00C 		bic	ip, r4, #240
 295 0012 4CEA0212 		orr	r2, ip, r2, lsl #4
 296 0016 23F00A03 		bic	r3, r3, #10
ARM GAS  /var/folders/0f/x4_g94q9649fs6s33cksjfb00000gn/T//ccmft7Jl.s 			page 6


 297 001a 0B43     		orrs	r3, r3, r1
 298 001c 8261     		str	r2, [r0, #24]
 299 001e 0362     		str	r3, [r0, #32]
 300 0020 5DF8044B 		ldr	r4, [sp], #4
 301 0024 7047     		bx	lr
 303              		.section	.text.TIM_TI2_SetConfig,"ax",%progbits
 304              		.align	1
 305              		.syntax unified
 306              		.thumb
 307              		.thumb_func
 309              	TIM_TI2_SetConfig:
 310              		@ args = 0, pretend = 0, frame = 0
 311              		@ frame_needed = 0, uses_anonymous_args = 0
 312              		@ link register save eliminated.
 313 0000 30B4     		push	{r4, r5}
 314 0002 056A     		ldr	r5, [r0, #32]
 315 0004 046A     		ldr	r4, [r0, #32]
 316 0006 24F01004 		bic	r4, r4, #16
 317 000a 0462     		str	r4, [r0, #32]
 318 000c 8469     		ldr	r4, [r0, #24]
 319 000e 24F4407C 		bic	ip, r4, #768
 320 0012 4CEA022C 		orr	ip, ip, r2, lsl #8
 321 0016 2CF4704C 		bic	ip, ip, #61440
 322 001a 1B03     		lsls	r3, r3, #12
 323 001c 9BB2     		uxth	r3, r3
 324 001e 43EA0C03 		orr	r3, r3, ip
 325 0022 25F0A005 		bic	r5, r5, #160
 326 0026 0901     		lsls	r1, r1, #4
 327 0028 01F0A001 		and	r1, r1, #160
 328 002c 2943     		orrs	r1, r1, r5
 329 002e 8361     		str	r3, [r0, #24]
 330 0030 0162     		str	r1, [r0, #32]
 331 0032 30BC     		pop	{r4, r5}
 332 0034 7047     		bx	lr
 334              		.section	.text.TIM_TI2_ConfigInputStage,"ax",%progbits
 335              		.align	1
 336              		.syntax unified
 337              		.thumb
 338              		.thumb_func
 340              	TIM_TI2_ConfigInputStage:
 341              		@ args = 0, pretend = 0, frame = 0
 342              		@ frame_needed = 0, uses_anonymous_args = 0
 343              		@ link register save eliminated.
 344 0000 10B4     		push	{r4}
 345 0002 036A     		ldr	r3, [r0, #32]
 346 0004 046A     		ldr	r4, [r0, #32]
 347 0006 24F01004 		bic	r4, r4, #16
 348 000a 0462     		str	r4, [r0, #32]
 349 000c 8469     		ldr	r4, [r0, #24]
 350 000e 24F4704C 		bic	ip, r4, #61440
 351 0012 4CEA0232 		orr	r2, ip, r2, lsl #12
 352 0016 23F0A003 		bic	r3, r3, #160
 353 001a 43EA0113 		orr	r3, r3, r1, lsl #4
 354 001e 8261     		str	r2, [r0, #24]
 355 0020 0362     		str	r3, [r0, #32]
 356 0022 5DF8044B 		ldr	r4, [sp], #4
 357 0026 7047     		bx	lr
ARM GAS  /var/folders/0f/x4_g94q9649fs6s33cksjfb00000gn/T//ccmft7Jl.s 			page 7


 359              		.section	.text.TIM_TI3_SetConfig,"ax",%progbits
 360              		.align	1
 361              		.syntax unified
 362              		.thumb
 363              		.thumb_func
 365              	TIM_TI3_SetConfig:
 366              		@ args = 0, pretend = 0, frame = 0
 367              		@ frame_needed = 0, uses_anonymous_args = 0
 368              		@ link register save eliminated.
 369 0000 30B4     		push	{r4, r5}
 370 0002 056A     		ldr	r5, [r0, #32]
 371 0004 046A     		ldr	r4, [r0, #32]
 372 0006 24F48074 		bic	r4, r4, #256
 373 000a 0462     		str	r4, [r0, #32]
 374 000c C469     		ldr	r4, [r0, #28]
 375 000e 24F0030C 		bic	ip, r4, #3
 376 0012 4CEA020C 		orr	ip, ip, r2
 377 0016 2CF0F00C 		bic	ip, ip, #240
 378 001a 1B01     		lsls	r3, r3, #4
 379 001c DBB2     		uxtb	r3, r3
 380 001e 43EA0C03 		orr	r3, r3, ip
 381 0022 25F42065 		bic	r5, r5, #2560
 382 0026 0902     		lsls	r1, r1, #8
 383 0028 01F42061 		and	r1, r1, #2560
 384 002c 2943     		orrs	r1, r1, r5
 385 002e C361     		str	r3, [r0, #28]
 386 0030 0162     		str	r1, [r0, #32]
 387 0032 30BC     		pop	{r4, r5}
 388 0034 7047     		bx	lr
 390              		.section	.text.TIM_TI4_SetConfig,"ax",%progbits
 391              		.align	1
 392              		.syntax unified
 393              		.thumb
 394              		.thumb_func
 396              	TIM_TI4_SetConfig:
 397              		@ args = 0, pretend = 0, frame = 0
 398              		@ frame_needed = 0, uses_anonymous_args = 0
 399              		@ link register save eliminated.
 400 0000 30B4     		push	{r4, r5}
 401 0002 056A     		ldr	r5, [r0, #32]
 402 0004 046A     		ldr	r4, [r0, #32]
 403 0006 24F48054 		bic	r4, r4, #4096
 404 000a 0462     		str	r4, [r0, #32]
 405 000c C469     		ldr	r4, [r0, #28]
 406 000e 24F4407C 		bic	ip, r4, #768
 407 0012 4CEA022C 		orr	ip, ip, r2, lsl #8
 408 0016 2CF4704C 		bic	ip, ip, #61440
 409 001a 1B03     		lsls	r3, r3, #12
 410 001c 9BB2     		uxth	r3, r3
 411 001e 43EA0C03 		orr	r3, r3, ip
 412 0022 25F42045 		bic	r5, r5, #40960
 413 0026 0903     		lsls	r1, r1, #12
 414 0028 01F42041 		and	r1, r1, #40960
 415 002c 2943     		orrs	r1, r1, r5
 416 002e C361     		str	r3, [r0, #28]
 417 0030 0162     		str	r1, [r0, #32]
 418 0032 30BC     		pop	{r4, r5}
ARM GAS  /var/folders/0f/x4_g94q9649fs6s33cksjfb00000gn/T//ccmft7Jl.s 			page 8


 419 0034 7047     		bx	lr
 421              		.section	.text.TIM_ITRx_SetConfig,"ax",%progbits
 422              		.align	1
 423              		.syntax unified
 424              		.thumb
 425              		.thumb_func
 427              	TIM_ITRx_SetConfig:
 428              		@ args = 0, pretend = 0, frame = 0
 429              		@ frame_needed = 0, uses_anonymous_args = 0
 430              		@ link register save eliminated.
 431 0000 8368     		ldr	r3, [r0, #8]
 432 0002 23F07003 		bic	r3, r3, #112
 433 0006 0B43     		orrs	r3, r3, r1
 434 0008 43F00703 		orr	r3, r3, #7
 435 000c 8360     		str	r3, [r0, #8]
 436 000e 7047     		bx	lr
 438              		.section	.text.HAL_TIM_Base_MspInit,"ax",%progbits
 439              		.align	1
 440              		.weak	HAL_TIM_Base_MspInit
 441              		.syntax unified
 442              		.thumb
 443              		.thumb_func
 445              	HAL_TIM_Base_MspInit:
 446              		@ args = 0, pretend = 0, frame = 0
 447              		@ frame_needed = 0, uses_anonymous_args = 0
 448              		@ link register save eliminated.
 449 0000 7047     		bx	lr
 451              		.section	.text.HAL_TIM_Base_MspDeInit,"ax",%progbits
 452              		.align	1
 453              		.weak	HAL_TIM_Base_MspDeInit
 454              		.syntax unified
 455              		.thumb
 456              		.thumb_func
 458              	HAL_TIM_Base_MspDeInit:
 459              		@ args = 0, pretend = 0, frame = 0
 460              		@ frame_needed = 0, uses_anonymous_args = 0
 461              		@ link register save eliminated.
 462 0000 7047     		bx	lr
 464              		.section	.text.HAL_TIM_Base_DeInit,"ax",%progbits
 465              		.align	1
 466              		.global	HAL_TIM_Base_DeInit
 467              		.syntax unified
 468              		.thumb
 469              		.thumb_func
 471              	HAL_TIM_Base_DeInit:
 472              		@ args = 0, pretend = 0, frame = 0
 473              		@ frame_needed = 0, uses_anonymous_args = 0
 474 0000 10B5     		push	{r4, lr}
 475 0002 0446     		mov	r4, r0
 476 0004 0223     		movs	r3, #2
 477 0006 80F83D30 		strb	r3, [r0, #61]
 478 000a 0268     		ldr	r2, [r0]
 479 000c 116A     		ldr	r1, [r2, #32]
 480 000e 154B     		ldr	r3, .L44
 481 0010 0B40     		ands	r3, r3, r1
 482 0012 43B9     		cbnz	r3, .L42
 483 0014 116A     		ldr	r1, [r2, #32]
ARM GAS  /var/folders/0f/x4_g94q9649fs6s33cksjfb00000gn/T//ccmft7Jl.s 			page 9


 484 0016 40F24443 		movw	r3, #1092
 485 001a 1942     		tst	r1, r3
 486 001c 03D1     		bne	.L42
 487 001e 1368     		ldr	r3, [r2]
 488 0020 23F00103 		bic	r3, r3, #1
 489 0024 1360     		str	r3, [r2]
 490              	.L42:
 491 0026 2046     		mov	r0, r4
 492 0028 FFF7FEFF 		bl	HAL_TIM_Base_MspDeInit
 493 002c 0020     		movs	r0, #0
 494 002e 84F84800 		strb	r0, [r4, #72]
 495 0032 84F83E00 		strb	r0, [r4, #62]
 496 0036 84F83F00 		strb	r0, [r4, #63]
 497 003a 84F84000 		strb	r0, [r4, #64]
 498 003e 84F84100 		strb	r0, [r4, #65]
 499 0042 84F84200 		strb	r0, [r4, #66]
 500 0046 84F84300 		strb	r0, [r4, #67]
 501 004a 84F84400 		strb	r0, [r4, #68]
 502 004e 84F84500 		strb	r0, [r4, #69]
 503 0052 84F84600 		strb	r0, [r4, #70]
 504 0056 84F84700 		strb	r0, [r4, #71]
 505 005a 84F83D00 		strb	r0, [r4, #61]
 506 005e 84F83C00 		strb	r0, [r4, #60]
 507 0062 10BD     		pop	{r4, pc}
 508              	.L45:
 509              		.align	2
 510              	.L44:
 511 0064 11111100 		.word	1118481
 513              		.section	.text.HAL_TIM_Base_Start,"ax",%progbits
 514              		.align	1
 515              		.global	HAL_TIM_Base_Start
 516              		.syntax unified
 517              		.thumb
 518              		.thumb_func
 520              	HAL_TIM_Base_Start:
 521              		@ args = 0, pretend = 0, frame = 0
 522              		@ frame_needed = 0, uses_anonymous_args = 0
 523              		@ link register save eliminated.
 524 0000 90F83D30 		ldrb	r3, [r0, #61]	@ zero_extendqisi2
 525 0004 012B     		cmp	r3, #1
 526 0006 35D1     		bne	.L50
 527 0008 0223     		movs	r3, #2
 528 000a 80F83D30 		strb	r3, [r0, #61]
 529 000e 0368     		ldr	r3, [r0]
 530 0010 1A4A     		ldr	r2, .L52
 531 0012 B3F1804F 		cmp	r3, #1073741824
 532 0016 18BF     		it	ne
 533 0018 9342     		cmpne	r3, r2
 534 001a 1DD0     		beq	.L48
 535 001c A2F57C42 		sub	r2, r2, #64512
 536 0020 9342     		cmp	r3, r2
 537 0022 19D0     		beq	.L48
 538 0024 02F58062 		add	r2, r2, #1024
 539 0028 9342     		cmp	r3, r2
 540 002a 15D0     		beq	.L48
 541 002c 02F58062 		add	r2, r2, #1024
 542 0030 9342     		cmp	r3, r2
ARM GAS  /var/folders/0f/x4_g94q9649fs6s33cksjfb00000gn/T//ccmft7Jl.s 			page 10


 543 0032 11D0     		beq	.L48
 544 0034 02F57842 		add	r2, r2, #63488
 545 0038 9342     		cmp	r3, r2
 546 003a 0DD0     		beq	.L48
 547 003c 02F57052 		add	r2, r2, #15360
 548 0040 9342     		cmp	r3, r2
 549 0042 09D0     		beq	.L48
 550 0044 A2F59432 		sub	r2, r2, #75776
 551 0048 9342     		cmp	r3, r2
 552 004a 05D0     		beq	.L48
 553 004c 1A68     		ldr	r2, [r3]
 554 004e 42F00102 		orr	r2, r2, #1
 555 0052 1A60     		str	r2, [r3]
 556 0054 0020     		movs	r0, #0
 557 0056 7047     		bx	lr
 558              	.L48:
 559 0058 9968     		ldr	r1, [r3, #8]
 560 005a 094A     		ldr	r2, .L52+4
 561 005c 0A40     		ands	r2, r2, r1
 562 005e 062A     		cmp	r2, #6
 563 0060 18BF     		it	ne
 564 0062 B2F5803F 		cmpne	r2, #65536
 565 0066 07D0     		beq	.L51
 566 0068 1A68     		ldr	r2, [r3]
 567 006a 42F00102 		orr	r2, r2, #1
 568 006e 1A60     		str	r2, [r3]
 569 0070 0020     		movs	r0, #0
 570 0072 7047     		bx	lr
 571              	.L50:
 572 0074 0120     		movs	r0, #1
 573 0076 7047     		bx	lr
 574              	.L51:
 575 0078 0020     		movs	r0, #0
 576 007a 7047     		bx	lr
 577              	.L53:
 578              		.align	2
 579              	.L52:
 580 007c 00000140 		.word	1073807360
 581 0080 07000100 		.word	65543
 583              		.section	.text.HAL_TIM_Base_Stop,"ax",%progbits
 584              		.align	1
 585              		.global	HAL_TIM_Base_Stop
 586              		.syntax unified
 587              		.thumb
 588              		.thumb_func
 590              	HAL_TIM_Base_Stop:
 591              		@ args = 0, pretend = 0, frame = 0
 592              		@ frame_needed = 0, uses_anonymous_args = 0
 593              		@ link register save eliminated.
 594 0000 0268     		ldr	r2, [r0]
 595 0002 116A     		ldr	r1, [r2, #32]
 596 0004 084B     		ldr	r3, .L56
 597 0006 0B40     		ands	r3, r3, r1
 598 0008 43B9     		cbnz	r3, .L55
 599 000a 116A     		ldr	r1, [r2, #32]
 600 000c 40F24443 		movw	r3, #1092
 601 0010 1942     		tst	r1, r3
ARM GAS  /var/folders/0f/x4_g94q9649fs6s33cksjfb00000gn/T//ccmft7Jl.s 			page 11


 602 0012 03D1     		bne	.L55
 603 0014 1368     		ldr	r3, [r2]
 604 0016 23F00103 		bic	r3, r3, #1
 605 001a 1360     		str	r3, [r2]
 606              	.L55:
 607 001c 0123     		movs	r3, #1
 608 001e 80F83D30 		strb	r3, [r0, #61]
 609 0022 0020     		movs	r0, #0
 610 0024 7047     		bx	lr
 611              	.L57:
 612 0026 00BF     		.align	2
 613              	.L56:
 614 0028 11111100 		.word	1118481
 616              		.section	.text.HAL_TIM_Base_Start_IT,"ax",%progbits
 617              		.align	1
 618              		.global	HAL_TIM_Base_Start_IT
 619              		.syntax unified
 620              		.thumb
 621              		.thumb_func
 623              	HAL_TIM_Base_Start_IT:
 624              		@ args = 0, pretend = 0, frame = 0
 625              		@ frame_needed = 0, uses_anonymous_args = 0
 626              		@ link register save eliminated.
 627 0000 90F83D30 		ldrb	r3, [r0, #61]	@ zero_extendqisi2
 628 0004 012B     		cmp	r3, #1
 629 0006 3AD1     		bne	.L62
 630 0008 0223     		movs	r3, #2
 631 000a 80F83D30 		strb	r3, [r0, #61]
 632 000e 0268     		ldr	r2, [r0]
 633 0010 D368     		ldr	r3, [r2, #12]
 634 0012 43F00103 		orr	r3, r3, #1
 635 0016 D360     		str	r3, [r2, #12]
 636 0018 0368     		ldr	r3, [r0]
 637 001a 1B4A     		ldr	r2, .L64
 638 001c B3F1804F 		cmp	r3, #1073741824
 639 0020 18BF     		it	ne
 640 0022 9342     		cmpne	r3, r2
 641 0024 1DD0     		beq	.L60
 642 0026 A2F57C42 		sub	r2, r2, #64512
 643 002a 9342     		cmp	r3, r2
 644 002c 19D0     		beq	.L60
 645 002e 02F58062 		add	r2, r2, #1024
 646 0032 9342     		cmp	r3, r2
 647 0034 15D0     		beq	.L60
 648 0036 02F58062 		add	r2, r2, #1024
 649 003a 9342     		cmp	r3, r2
 650 003c 11D0     		beq	.L60
 651 003e 02F57842 		add	r2, r2, #63488
 652 0042 9342     		cmp	r3, r2
 653 0044 0DD0     		beq	.L60
 654 0046 02F57052 		add	r2, r2, #15360
 655 004a 9342     		cmp	r3, r2
 656 004c 09D0     		beq	.L60
 657 004e A2F59432 		sub	r2, r2, #75776
 658 0052 9342     		cmp	r3, r2
 659 0054 05D0     		beq	.L60
 660 0056 1A68     		ldr	r2, [r3]
ARM GAS  /var/folders/0f/x4_g94q9649fs6s33cksjfb00000gn/T//ccmft7Jl.s 			page 12


 661 0058 42F00102 		orr	r2, r2, #1
 662 005c 1A60     		str	r2, [r3]
 663 005e 0020     		movs	r0, #0
 664 0060 7047     		bx	lr
 665              	.L60:
 666 0062 9968     		ldr	r1, [r3, #8]
 667 0064 094A     		ldr	r2, .L64+4
 668 0066 0A40     		ands	r2, r2, r1
 669 0068 062A     		cmp	r2, #6
 670 006a 18BF     		it	ne
 671 006c B2F5803F 		cmpne	r2, #65536
 672 0070 07D0     		beq	.L63
 673 0072 1A68     		ldr	r2, [r3]
 674 0074 42F00102 		orr	r2, r2, #1
 675 0078 1A60     		str	r2, [r3]
 676 007a 0020     		movs	r0, #0
 677 007c 7047     		bx	lr
 678              	.L62:
 679 007e 0120     		movs	r0, #1
 680 0080 7047     		bx	lr
 681              	.L63:
 682 0082 0020     		movs	r0, #0
 683 0084 7047     		bx	lr
 684              	.L65:
 685 0086 00BF     		.align	2
 686              	.L64:
 687 0088 00000140 		.word	1073807360
 688 008c 07000100 		.word	65543
 690              		.section	.text.HAL_TIM_Base_Stop_IT,"ax",%progbits
 691              		.align	1
 692              		.global	HAL_TIM_Base_Stop_IT
 693              		.syntax unified
 694              		.thumb
 695              		.thumb_func
 697              	HAL_TIM_Base_Stop_IT:
 698              		@ args = 0, pretend = 0, frame = 0
 699              		@ frame_needed = 0, uses_anonymous_args = 0
 700              		@ link register save eliminated.
 701 0000 0268     		ldr	r2, [r0]
 702 0002 D368     		ldr	r3, [r2, #12]
 703 0004 23F00103 		bic	r3, r3, #1
 704 0008 D360     		str	r3, [r2, #12]
 705 000a 0268     		ldr	r2, [r0]
 706 000c 116A     		ldr	r1, [r2, #32]
 707 000e 084B     		ldr	r3, .L68
 708 0010 0B40     		ands	r3, r3, r1
 709 0012 43B9     		cbnz	r3, .L67
 710 0014 116A     		ldr	r1, [r2, #32]
 711 0016 40F24443 		movw	r3, #1092
 712 001a 1942     		tst	r1, r3
 713 001c 03D1     		bne	.L67
 714 001e 1368     		ldr	r3, [r2]
 715 0020 23F00103 		bic	r3, r3, #1
 716 0024 1360     		str	r3, [r2]
 717              	.L67:
 718 0026 0123     		movs	r3, #1
 719 0028 80F83D30 		strb	r3, [r0, #61]
ARM GAS  /var/folders/0f/x4_g94q9649fs6s33cksjfb00000gn/T//ccmft7Jl.s 			page 13


 720 002c 0020     		movs	r0, #0
 721 002e 7047     		bx	lr
 722              	.L69:
 723              		.align	2
 724              	.L68:
 725 0030 11111100 		.word	1118481
 727              		.section	.text.HAL_TIM_Base_Start_DMA,"ax",%progbits
 728              		.align	1
 729              		.global	HAL_TIM_Base_Start_DMA
 730              		.syntax unified
 731              		.thumb
 732              		.thumb_func
 734              	HAL_TIM_Base_Start_DMA:
 735              		@ args = 0, pretend = 0, frame = 0
 736              		@ frame_needed = 0, uses_anonymous_args = 0
 737 0000 38B5     		push	{r3, r4, r5, lr}
 738 0002 90F83D30 		ldrb	r3, [r0, #61]	@ zero_extendqisi2
 739 0006 DDB2     		uxtb	r5, r3
 740 0008 022B     		cmp	r3, #2
 741 000a 58D0     		beq	.L71
 742 000c 0446     		mov	r4, r0
 743 000e 90F83D30 		ldrb	r3, [r0, #61]	@ zero_extendqisi2
 744 0012 DDB2     		uxtb	r5, r3
 745 0014 012B     		cmp	r3, #1
 746 0016 51D1     		bne	.L74
 747 0018 002A     		cmp	r2, #0
 748 001a 18BF     		it	ne
 749 001c 0029     		cmpne	r1, #0
 750 001e 4ED0     		beq	.L71
 751 0020 0223     		movs	r3, #2
 752 0022 80F83D30 		strb	r3, [r0, #61]
 753 0026 036A     		ldr	r3, [r0, #32]
 754 0028 2748     		ldr	r0, .L77
 755 002a D863     		str	r0, [r3, #60]
 756 002c 236A     		ldr	r3, [r4, #32]
 757 002e 2748     		ldr	r0, .L77+4
 758 0030 1864     		str	r0, [r3, #64]
 759 0032 236A     		ldr	r3, [r4, #32]
 760 0034 2648     		ldr	r0, .L77+8
 761 0036 D864     		str	r0, [r3, #76]
 762 0038 2068     		ldr	r0, [r4]
 763 003a 1346     		mov	r3, r2
 764 003c 00F12C02 		add	r2, r0, #44
 765 0040 206A     		ldr	r0, [r4, #32]
 766 0042 FFF7FEFF 		bl	HAL_DMA_Start_IT
 767 0046 0146     		mov	r1, r0
 768 0048 0028     		cmp	r0, #0
 769 004a 38D1     		bne	.L71
 770 004c 2268     		ldr	r2, [r4]
 771 004e D368     		ldr	r3, [r2, #12]
 772 0050 43F48073 		orr	r3, r3, #256
 773 0054 D360     		str	r3, [r2, #12]
 774 0056 2368     		ldr	r3, [r4]
 775 0058 1E4A     		ldr	r2, .L77+12
 776 005a B3F1804F 		cmp	r3, #1073741824
 777 005e 18BF     		it	ne
 778 0060 9342     		cmpne	r3, r2
ARM GAS  /var/folders/0f/x4_g94q9649fs6s33cksjfb00000gn/T//ccmft7Jl.s 			page 14


 779 0062 1DD0     		beq	.L72
 780 0064 A2F57C42 		sub	r2, r2, #64512
 781 0068 9342     		cmp	r3, r2
 782 006a 19D0     		beq	.L72
 783 006c 02F58062 		add	r2, r2, #1024
 784 0070 9342     		cmp	r3, r2
 785 0072 15D0     		beq	.L72
 786 0074 02F58062 		add	r2, r2, #1024
 787 0078 9342     		cmp	r3, r2
 788 007a 11D0     		beq	.L72
 789 007c 02F57842 		add	r2, r2, #63488
 790 0080 9342     		cmp	r3, r2
 791 0082 0DD0     		beq	.L72
 792 0084 02F57052 		add	r2, r2, #15360
 793 0088 9342     		cmp	r3, r2
 794 008a 09D0     		beq	.L72
 795 008c A2F59432 		sub	r2, r2, #75776
 796 0090 9342     		cmp	r3, r2
 797 0092 05D0     		beq	.L72
 798 0094 1A68     		ldr	r2, [r3]
 799 0096 42F00102 		orr	r2, r2, #1
 800 009a 1A60     		str	r2, [r3]
 801 009c 0546     		mov	r5, r0
 802 009e 0EE0     		b	.L71
 803              	.L72:
 804 00a0 9868     		ldr	r0, [r3, #8]
 805 00a2 0D4A     		ldr	r2, .L77+16
 806 00a4 0240     		ands	r2, r2, r0
 807 00a6 062A     		cmp	r2, #6
 808 00a8 18BF     		it	ne
 809 00aa B2F5803F 		cmpne	r2, #65536
 810 00ae 08D0     		beq	.L75
 811 00b0 1A68     		ldr	r2, [r3]
 812 00b2 42F00102 		orr	r2, r2, #1
 813 00b6 1A60     		str	r2, [r3]
 814 00b8 0D46     		mov	r5, r1
 815 00ba 00E0     		b	.L71
 816              	.L74:
 817 00bc 0125     		movs	r5, #1
 818              	.L71:
 819 00be 2846     		mov	r0, r5
 820 00c0 38BD     		pop	{r3, r4, r5, pc}
 821              	.L75:
 822 00c2 0D46     		mov	r5, r1
 823 00c4 FBE7     		b	.L71
 824              	.L78:
 825 00c6 00BF     		.align	2
 826              	.L77:
 827 00c8 00000000 		.word	TIM_DMAPeriodElapsedCplt
 828 00cc 00000000 		.word	TIM_DMAPeriodElapsedHalfCplt
 829 00d0 00000000 		.word	TIM_DMAError
 830 00d4 00000140 		.word	1073807360
 831 00d8 07000100 		.word	65543
 833              		.section	.text.HAL_TIM_Base_Stop_DMA,"ax",%progbits
 834              		.align	1
 835              		.global	HAL_TIM_Base_Stop_DMA
 836              		.syntax unified
ARM GAS  /var/folders/0f/x4_g94q9649fs6s33cksjfb00000gn/T//ccmft7Jl.s 			page 15


 837              		.thumb
 838              		.thumb_func
 840              	HAL_TIM_Base_Stop_DMA:
 841              		@ args = 0, pretend = 0, frame = 0
 842              		@ frame_needed = 0, uses_anonymous_args = 0
 843 0000 10B5     		push	{r4, lr}
 844 0002 0446     		mov	r4, r0
 845 0004 0268     		ldr	r2, [r0]
 846 0006 D368     		ldr	r3, [r2, #12]
 847 0008 23F48073 		bic	r3, r3, #256
 848 000c D360     		str	r3, [r2, #12]
 849 000e 006A     		ldr	r0, [r0, #32]
 850 0010 FFF7FEFF 		bl	HAL_DMA_Abort_IT
 851 0014 2268     		ldr	r2, [r4]
 852 0016 116A     		ldr	r1, [r2, #32]
 853 0018 084B     		ldr	r3, .L82
 854 001a 0B40     		ands	r3, r3, r1
 855 001c 43B9     		cbnz	r3, .L80
 856 001e 116A     		ldr	r1, [r2, #32]
 857 0020 40F24443 		movw	r3, #1092
 858 0024 1942     		tst	r1, r3
 859 0026 03D1     		bne	.L80
 860 0028 1368     		ldr	r3, [r2]
 861 002a 23F00103 		bic	r3, r3, #1
 862 002e 1360     		str	r3, [r2]
 863              	.L80:
 864 0030 0123     		movs	r3, #1
 865 0032 84F83D30 		strb	r3, [r4, #61]
 866 0036 0020     		movs	r0, #0
 867 0038 10BD     		pop	{r4, pc}
 868              	.L83:
 869 003a 00BF     		.align	2
 870              	.L82:
 871 003c 11111100 		.word	1118481
 873              		.section	.text.HAL_TIM_OC_MspInit,"ax",%progbits
 874              		.align	1
 875              		.weak	HAL_TIM_OC_MspInit
 876              		.syntax unified
 877              		.thumb
 878              		.thumb_func
 880              	HAL_TIM_OC_MspInit:
 881              		@ args = 0, pretend = 0, frame = 0
 882              		@ frame_needed = 0, uses_anonymous_args = 0
 883              		@ link register save eliminated.
 884 0000 7047     		bx	lr
 886              		.section	.text.HAL_TIM_OC_MspDeInit,"ax",%progbits
 887              		.align	1
 888              		.weak	HAL_TIM_OC_MspDeInit
 889              		.syntax unified
 890              		.thumb
 891              		.thumb_func
 893              	HAL_TIM_OC_MspDeInit:
 894              		@ args = 0, pretend = 0, frame = 0
 895              		@ frame_needed = 0, uses_anonymous_args = 0
 896              		@ link register save eliminated.
 897 0000 7047     		bx	lr
 899              		.section	.text.HAL_TIM_OC_DeInit,"ax",%progbits
ARM GAS  /var/folders/0f/x4_g94q9649fs6s33cksjfb00000gn/T//ccmft7Jl.s 			page 16


 900              		.align	1
 901              		.global	HAL_TIM_OC_DeInit
 902              		.syntax unified
 903              		.thumb
 904              		.thumb_func
 906              	HAL_TIM_OC_DeInit:
 907              		@ args = 0, pretend = 0, frame = 0
 908              		@ frame_needed = 0, uses_anonymous_args = 0
 909 0000 10B5     		push	{r4, lr}
 910 0002 0446     		mov	r4, r0
 911 0004 0223     		movs	r3, #2
 912 0006 80F83D30 		strb	r3, [r0, #61]
 913 000a 0268     		ldr	r2, [r0]
 914 000c 116A     		ldr	r1, [r2, #32]
 915 000e 154B     		ldr	r3, .L89
 916 0010 0B40     		ands	r3, r3, r1
 917 0012 43B9     		cbnz	r3, .L87
 918 0014 116A     		ldr	r1, [r2, #32]
 919 0016 40F24443 		movw	r3, #1092
 920 001a 1942     		tst	r1, r3
 921 001c 03D1     		bne	.L87
 922 001e 1368     		ldr	r3, [r2]
 923 0020 23F00103 		bic	r3, r3, #1
 924 0024 1360     		str	r3, [r2]
 925              	.L87:
 926 0026 2046     		mov	r0, r4
 927 0028 FFF7FEFF 		bl	HAL_TIM_OC_MspDeInit
 928 002c 0020     		movs	r0, #0
 929 002e 84F84800 		strb	r0, [r4, #72]
 930 0032 84F83E00 		strb	r0, [r4, #62]
 931 0036 84F83F00 		strb	r0, [r4, #63]
 932 003a 84F84000 		strb	r0, [r4, #64]
 933 003e 84F84100 		strb	r0, [r4, #65]
 934 0042 84F84200 		strb	r0, [r4, #66]
 935 0046 84F84300 		strb	r0, [r4, #67]
 936 004a 84F84400 		strb	r0, [r4, #68]
 937 004e 84F84500 		strb	r0, [r4, #69]
 938 0052 84F84600 		strb	r0, [r4, #70]
 939 0056 84F84700 		strb	r0, [r4, #71]
 940 005a 84F83D00 		strb	r0, [r4, #61]
 941 005e 84F83C00 		strb	r0, [r4, #60]
 942 0062 10BD     		pop	{r4, pc}
 943              	.L90:
 944              		.align	2
 945              	.L89:
 946 0064 11111100 		.word	1118481
 948              		.section	.text.HAL_TIM_PWM_MspInit,"ax",%progbits
 949              		.align	1
 950              		.weak	HAL_TIM_PWM_MspInit
 951              		.syntax unified
 952              		.thumb
 953              		.thumb_func
 955              	HAL_TIM_PWM_MspInit:
 956              		@ args = 0, pretend = 0, frame = 0
 957              		@ frame_needed = 0, uses_anonymous_args = 0
 958              		@ link register save eliminated.
 959 0000 7047     		bx	lr
ARM GAS  /var/folders/0f/x4_g94q9649fs6s33cksjfb00000gn/T//ccmft7Jl.s 			page 17


 961              		.section	.text.HAL_TIM_PWM_MspDeInit,"ax",%progbits
 962              		.align	1
 963              		.weak	HAL_TIM_PWM_MspDeInit
 964              		.syntax unified
 965              		.thumb
 966              		.thumb_func
 968              	HAL_TIM_PWM_MspDeInit:
 969              		@ args = 0, pretend = 0, frame = 0
 970              		@ frame_needed = 0, uses_anonymous_args = 0
 971              		@ link register save eliminated.
 972 0000 7047     		bx	lr
 974              		.section	.text.HAL_TIM_PWM_DeInit,"ax",%progbits
 975              		.align	1
 976              		.global	HAL_TIM_PWM_DeInit
 977              		.syntax unified
 978              		.thumb
 979              		.thumb_func
 981              	HAL_TIM_PWM_DeInit:
 982              		@ args = 0, pretend = 0, frame = 0
 983              		@ frame_needed = 0, uses_anonymous_args = 0
 984 0000 10B5     		push	{r4, lr}
 985 0002 0446     		mov	r4, r0
 986 0004 0223     		movs	r3, #2
 987 0006 80F83D30 		strb	r3, [r0, #61]
 988 000a 0268     		ldr	r2, [r0]
 989 000c 116A     		ldr	r1, [r2, #32]
 990 000e 154B     		ldr	r3, .L96
 991 0010 0B40     		ands	r3, r3, r1
 992 0012 43B9     		cbnz	r3, .L94
 993 0014 116A     		ldr	r1, [r2, #32]
 994 0016 40F24443 		movw	r3, #1092
 995 001a 1942     		tst	r1, r3
 996 001c 03D1     		bne	.L94
 997 001e 1368     		ldr	r3, [r2]
 998 0020 23F00103 		bic	r3, r3, #1
 999 0024 1360     		str	r3, [r2]
 1000              	.L94:
 1001 0026 2046     		mov	r0, r4
 1002 0028 FFF7FEFF 		bl	HAL_TIM_PWM_MspDeInit
 1003 002c 0020     		movs	r0, #0
 1004 002e 84F84800 		strb	r0, [r4, #72]
 1005 0032 84F83E00 		strb	r0, [r4, #62]
 1006 0036 84F83F00 		strb	r0, [r4, #63]
 1007 003a 84F84000 		strb	r0, [r4, #64]
 1008 003e 84F84100 		strb	r0, [r4, #65]
 1009 0042 84F84200 		strb	r0, [r4, #66]
 1010 0046 84F84300 		strb	r0, [r4, #67]
 1011 004a 84F84400 		strb	r0, [r4, #68]
 1012 004e 84F84500 		strb	r0, [r4, #69]
 1013 0052 84F84600 		strb	r0, [r4, #70]
 1014 0056 84F84700 		strb	r0, [r4, #71]
 1015 005a 84F83D00 		strb	r0, [r4, #61]
 1016 005e 84F83C00 		strb	r0, [r4, #60]
 1017 0062 10BD     		pop	{r4, pc}
 1018              	.L97:
 1019              		.align	2
 1020              	.L96:
ARM GAS  /var/folders/0f/x4_g94q9649fs6s33cksjfb00000gn/T//ccmft7Jl.s 			page 18


 1021 0064 11111100 		.word	1118481
 1023              		.section	.text.HAL_TIM_IC_MspInit,"ax",%progbits
 1024              		.align	1
 1025              		.weak	HAL_TIM_IC_MspInit
 1026              		.syntax unified
 1027              		.thumb
 1028              		.thumb_func
 1030              	HAL_TIM_IC_MspInit:
 1031              		@ args = 0, pretend = 0, frame = 0
 1032              		@ frame_needed = 0, uses_anonymous_args = 0
 1033              		@ link register save eliminated.
 1034 0000 7047     		bx	lr
 1036              		.section	.text.HAL_TIM_IC_MspDeInit,"ax",%progbits
 1037              		.align	1
 1038              		.weak	HAL_TIM_IC_MspDeInit
 1039              		.syntax unified
 1040              		.thumb
 1041              		.thumb_func
 1043              	HAL_TIM_IC_MspDeInit:
 1044              		@ args = 0, pretend = 0, frame = 0
 1045              		@ frame_needed = 0, uses_anonymous_args = 0
 1046              		@ link register save eliminated.
 1047 0000 7047     		bx	lr
 1049              		.section	.text.HAL_TIM_IC_DeInit,"ax",%progbits
 1050              		.align	1
 1051              		.global	HAL_TIM_IC_DeInit
 1052              		.syntax unified
 1053              		.thumb
 1054              		.thumb_func
 1056              	HAL_TIM_IC_DeInit:
 1057              		@ args = 0, pretend = 0, frame = 0
 1058              		@ frame_needed = 0, uses_anonymous_args = 0
 1059 0000 10B5     		push	{r4, lr}
 1060 0002 0446     		mov	r4, r0
 1061 0004 0223     		movs	r3, #2
 1062 0006 80F83D30 		strb	r3, [r0, #61]
 1063 000a 0268     		ldr	r2, [r0]
 1064 000c 116A     		ldr	r1, [r2, #32]
 1065 000e 154B     		ldr	r3, .L103
 1066 0010 0B40     		ands	r3, r3, r1
 1067 0012 43B9     		cbnz	r3, .L101
 1068 0014 116A     		ldr	r1, [r2, #32]
 1069 0016 40F24443 		movw	r3, #1092
 1070 001a 1942     		tst	r1, r3
 1071 001c 03D1     		bne	.L101
 1072 001e 1368     		ldr	r3, [r2]
 1073 0020 23F00103 		bic	r3, r3, #1
 1074 0024 1360     		str	r3, [r2]
 1075              	.L101:
 1076 0026 2046     		mov	r0, r4
 1077 0028 FFF7FEFF 		bl	HAL_TIM_IC_MspDeInit
 1078 002c 0020     		movs	r0, #0
 1079 002e 84F84800 		strb	r0, [r4, #72]
 1080 0032 84F83E00 		strb	r0, [r4, #62]
 1081 0036 84F83F00 		strb	r0, [r4, #63]
 1082 003a 84F84000 		strb	r0, [r4, #64]
 1083 003e 84F84100 		strb	r0, [r4, #65]
ARM GAS  /var/folders/0f/x4_g94q9649fs6s33cksjfb00000gn/T//ccmft7Jl.s 			page 19


 1084 0042 84F84200 		strb	r0, [r4, #66]
 1085 0046 84F84300 		strb	r0, [r4, #67]
 1086 004a 84F84400 		strb	r0, [r4, #68]
 1087 004e 84F84500 		strb	r0, [r4, #69]
 1088 0052 84F84600 		strb	r0, [r4, #70]
 1089 0056 84F84700 		strb	r0, [r4, #71]
 1090 005a 84F83D00 		strb	r0, [r4, #61]
 1091 005e 84F83C00 		strb	r0, [r4, #60]
 1092 0062 10BD     		pop	{r4, pc}
 1093              	.L104:
 1094              		.align	2
 1095              	.L103:
 1096 0064 11111100 		.word	1118481
 1098              		.section	.text.HAL_TIM_OnePulse_MspInit,"ax",%progbits
 1099              		.align	1
 1100              		.weak	HAL_TIM_OnePulse_MspInit
 1101              		.syntax unified
 1102              		.thumb
 1103              		.thumb_func
 1105              	HAL_TIM_OnePulse_MspInit:
 1106              		@ args = 0, pretend = 0, frame = 0
 1107              		@ frame_needed = 0, uses_anonymous_args = 0
 1108              		@ link register save eliminated.
 1109 0000 7047     		bx	lr
 1111              		.section	.text.HAL_TIM_OnePulse_MspDeInit,"ax",%progbits
 1112              		.align	1
 1113              		.weak	HAL_TIM_OnePulse_MspDeInit
 1114              		.syntax unified
 1115              		.thumb
 1116              		.thumb_func
 1118              	HAL_TIM_OnePulse_MspDeInit:
 1119              		@ args = 0, pretend = 0, frame = 0
 1120              		@ frame_needed = 0, uses_anonymous_args = 0
 1121              		@ link register save eliminated.
 1122 0000 7047     		bx	lr
 1124              		.section	.text.HAL_TIM_OnePulse_DeInit,"ax",%progbits
 1125              		.align	1
 1126              		.global	HAL_TIM_OnePulse_DeInit
 1127              		.syntax unified
 1128              		.thumb
 1129              		.thumb_func
 1131              	HAL_TIM_OnePulse_DeInit:
 1132              		@ args = 0, pretend = 0, frame = 0
 1133              		@ frame_needed = 0, uses_anonymous_args = 0
 1134 0000 10B5     		push	{r4, lr}
 1135 0002 0446     		mov	r4, r0
 1136 0004 0223     		movs	r3, #2
 1137 0006 80F83D30 		strb	r3, [r0, #61]
 1138 000a 0268     		ldr	r2, [r0]
 1139 000c 116A     		ldr	r1, [r2, #32]
 1140 000e 0F4B     		ldr	r3, .L110
 1141 0010 0B40     		ands	r3, r3, r1
 1142 0012 43B9     		cbnz	r3, .L108
 1143 0014 116A     		ldr	r1, [r2, #32]
 1144 0016 40F24443 		movw	r3, #1092
 1145 001a 1942     		tst	r1, r3
 1146 001c 03D1     		bne	.L108
ARM GAS  /var/folders/0f/x4_g94q9649fs6s33cksjfb00000gn/T//ccmft7Jl.s 			page 20


 1147 001e 1368     		ldr	r3, [r2]
 1148 0020 23F00103 		bic	r3, r3, #1
 1149 0024 1360     		str	r3, [r2]
 1150              	.L108:
 1151 0026 2046     		mov	r0, r4
 1152 0028 FFF7FEFF 		bl	HAL_TIM_OnePulse_MspDeInit
 1153 002c 0020     		movs	r0, #0
 1154 002e 84F84800 		strb	r0, [r4, #72]
 1155 0032 84F83E00 		strb	r0, [r4, #62]
 1156 0036 84F83F00 		strb	r0, [r4, #63]
 1157 003a 84F84400 		strb	r0, [r4, #68]
 1158 003e 84F84500 		strb	r0, [r4, #69]
 1159 0042 84F83D00 		strb	r0, [r4, #61]
 1160 0046 84F83C00 		strb	r0, [r4, #60]
 1161 004a 10BD     		pop	{r4, pc}
 1162              	.L111:
 1163              		.align	2
 1164              	.L110:
 1165 004c 11111100 		.word	1118481
 1167              		.section	.text.HAL_TIM_Encoder_MspInit,"ax",%progbits
 1168              		.align	1
 1169              		.weak	HAL_TIM_Encoder_MspInit
 1170              		.syntax unified
 1171              		.thumb
 1172              		.thumb_func
 1174              	HAL_TIM_Encoder_MspInit:
 1175              		@ args = 0, pretend = 0, frame = 0
 1176              		@ frame_needed = 0, uses_anonymous_args = 0
 1177              		@ link register save eliminated.
 1178 0000 7047     		bx	lr
 1180              		.section	.text.HAL_TIM_Encoder_MspDeInit,"ax",%progbits
 1181              		.align	1
 1182              		.weak	HAL_TIM_Encoder_MspDeInit
 1183              		.syntax unified
 1184              		.thumb
 1185              		.thumb_func
 1187              	HAL_TIM_Encoder_MspDeInit:
 1188              		@ args = 0, pretend = 0, frame = 0
 1189              		@ frame_needed = 0, uses_anonymous_args = 0
 1190              		@ link register save eliminated.
 1191 0000 7047     		bx	lr
 1193              		.section	.text.HAL_TIM_Encoder_DeInit,"ax",%progbits
 1194              		.align	1
 1195              		.global	HAL_TIM_Encoder_DeInit
 1196              		.syntax unified
 1197              		.thumb
 1198              		.thumb_func
 1200              	HAL_TIM_Encoder_DeInit:
 1201              		@ args = 0, pretend = 0, frame = 0
 1202              		@ frame_needed = 0, uses_anonymous_args = 0
 1203 0000 10B5     		push	{r4, lr}
 1204 0002 0446     		mov	r4, r0
 1205 0004 0223     		movs	r3, #2
 1206 0006 80F83D30 		strb	r3, [r0, #61]
 1207 000a 0268     		ldr	r2, [r0]
 1208 000c 116A     		ldr	r1, [r2, #32]
 1209 000e 0F4B     		ldr	r3, .L117
ARM GAS  /var/folders/0f/x4_g94q9649fs6s33cksjfb00000gn/T//ccmft7Jl.s 			page 21


 1210 0010 0B40     		ands	r3, r3, r1
 1211 0012 43B9     		cbnz	r3, .L115
 1212 0014 116A     		ldr	r1, [r2, #32]
 1213 0016 40F24443 		movw	r3, #1092
 1214 001a 1942     		tst	r1, r3
 1215 001c 03D1     		bne	.L115
 1216 001e 1368     		ldr	r3, [r2]
 1217 0020 23F00103 		bic	r3, r3, #1
 1218 0024 1360     		str	r3, [r2]
 1219              	.L115:
 1220 0026 2046     		mov	r0, r4
 1221 0028 FFF7FEFF 		bl	HAL_TIM_Encoder_MspDeInit
 1222 002c 0020     		movs	r0, #0
 1223 002e 84F84800 		strb	r0, [r4, #72]
 1224 0032 84F83E00 		strb	r0, [r4, #62]
 1225 0036 84F83F00 		strb	r0, [r4, #63]
 1226 003a 84F84400 		strb	r0, [r4, #68]
 1227 003e 84F84500 		strb	r0, [r4, #69]
 1228 0042 84F83D00 		strb	r0, [r4, #61]
 1229 0046 84F83C00 		strb	r0, [r4, #60]
 1230 004a 10BD     		pop	{r4, pc}
 1231              	.L118:
 1232              		.align	2
 1233              	.L117:
 1234 004c 11111100 		.word	1118481
 1236              		.section	.text.HAL_TIM_DMABurst_MultiWriteStart,"ax",%progbits
 1237              		.align	1
 1238              		.global	HAL_TIM_DMABurst_MultiWriteStart
 1239              		.syntax unified
 1240              		.thumb
 1241              		.thumb_func
 1243              	HAL_TIM_DMABurst_MultiWriteStart:
 1244              		@ args = 8, pretend = 0, frame = 0
 1245              		@ frame_needed = 0, uses_anonymous_args = 0
 1246 0000 70B5     		push	{r4, r5, r6, lr}
 1247 0002 0446     		mov	r4, r0
 1248 0004 1546     		mov	r5, r2
 1249 0006 90F84820 		ldrb	r2, [r0, #72]	@ zero_extendqisi2
 1250 000a D0B2     		uxtb	r0, r2
 1251 000c 022A     		cmp	r2, #2
 1252 000e 2ED0     		beq	.L120
 1253 0010 0E46     		mov	r6, r1
 1254 0012 1946     		mov	r1, r3
 1255 0014 94F84820 		ldrb	r2, [r4, #72]	@ zero_extendqisi2
 1256 0018 D0B2     		uxtb	r0, r2
 1257 001a 012A     		cmp	r2, #1
 1258 001c 28D0     		beq	.L139
 1259              	.L121:
 1260 001e B5F5006F 		cmp	r5, #2048
 1261 0022 78D0     		beq	.L122
 1262 0024 33D8     		bhi	.L123
 1263 0026 B5F5007F 		cmp	r5, #512
 1264 002a 4ED0     		beq	.L124
 1265 002c B5F5806F 		cmp	r5, #1024
 1266 0030 5ED0     		beq	.L125
 1267 0032 B5F5807F 		cmp	r5, #256
 1268 0036 28D1     		bne	.L140
ARM GAS  /var/folders/0f/x4_g94q9649fs6s33cksjfb00000gn/T//ccmft7Jl.s 			page 22


 1269 0038 236A     		ldr	r3, [r4, #32]
 1270 003a 554A     		ldr	r2, .L143
 1271 003c DA63     		str	r2, [r3, #60]
 1272 003e 236A     		ldr	r3, [r4, #32]
 1273 0040 544A     		ldr	r2, .L143+4
 1274 0042 1A64     		str	r2, [r3, #64]
 1275 0044 236A     		ldr	r3, [r4, #32]
 1276 0046 544A     		ldr	r2, .L143+8
 1277 0048 DA64     		str	r2, [r3, #76]
 1278 004a 2268     		ldr	r2, [r4]
 1279 004c 059B     		ldr	r3, [sp, #20]
 1280 004e 4C32     		adds	r2, r2, #76
 1281 0050 206A     		ldr	r0, [r4, #32]
 1282 0052 FFF7FEFF 		bl	HAL_DMA_Start_IT
 1283 0056 0028     		cmp	r0, #0
 1284 0058 40F09880 		bne	.L141
 1285              	.L130:
 1286 005c 2368     		ldr	r3, [r4]
 1287 005e 049A     		ldr	r2, [sp, #16]
 1288 0060 1643     		orrs	r6, r6, r2
 1289 0062 9E64     		str	r6, [r3, #72]
 1290 0064 2268     		ldr	r2, [r4]
 1291 0066 D368     		ldr	r3, [r2, #12]
 1292 0068 2B43     		orrs	r3, r3, r5
 1293 006a D360     		str	r3, [r2, #12]
 1294 006c 0020     		movs	r0, #0
 1295              	.L120:
 1296 006e 70BD     		pop	{r4, r5, r6, pc}
 1297              	.L139:
 1298 0070 049A     		ldr	r2, [sp, #16]
 1299 0072 B3FA83F3 		clz	r3, r3
 1300 0076 5B09     		lsrs	r3, r3, #5
 1301 0078 002A     		cmp	r2, #0
 1302 007a 08BF     		it	eq
 1303 007c 0023     		moveq	r3, #0
 1304 007e 002B     		cmp	r3, #0
 1305 0080 F5D1     		bne	.L120
 1306 0082 0223     		movs	r3, #2
 1307 0084 84F84830 		strb	r3, [r4, #72]
 1308 0088 C9E7     		b	.L121
 1309              	.L140:
 1310 008a 0120     		movs	r0, #1
 1311 008c EFE7     		b	.L120
 1312              	.L123:
 1313 008e B5F5005F 		cmp	r5, #8192
 1314 0092 53D0     		beq	.L127
 1315 0094 B5F5804F 		cmp	r5, #16384
 1316 0098 64D0     		beq	.L128
 1317 009a B5F5805F 		cmp	r5, #4096
 1318 009e 12D1     		bne	.L142
 1319 00a0 236B     		ldr	r3, [r4, #48]
 1320 00a2 3E4A     		ldr	r2, .L143+12
 1321 00a4 DA63     		str	r2, [r3, #60]
 1322 00a6 236B     		ldr	r3, [r4, #48]
 1323 00a8 3D4A     		ldr	r2, .L143+16
 1324 00aa 1A64     		str	r2, [r3, #64]
 1325 00ac 236B     		ldr	r3, [r4, #48]
ARM GAS  /var/folders/0f/x4_g94q9649fs6s33cksjfb00000gn/T//ccmft7Jl.s 			page 23


 1326 00ae 3A4A     		ldr	r2, .L143+8
 1327 00b0 DA64     		str	r2, [r3, #76]
 1328 00b2 2268     		ldr	r2, [r4]
 1329 00b4 059B     		ldr	r3, [sp, #20]
 1330 00b6 4C32     		adds	r2, r2, #76
 1331 00b8 206B     		ldr	r0, [r4, #48]
 1332 00ba FFF7FEFF 		bl	HAL_DMA_Start_IT
 1333 00be 0028     		cmp	r0, #0
 1334 00c0 CCD0     		beq	.L130
 1335 00c2 0120     		movs	r0, #1
 1336 00c4 D3E7     		b	.L120
 1337              	.L142:
 1338 00c6 0120     		movs	r0, #1
 1339 00c8 D1E7     		b	.L120
 1340              	.L124:
 1341 00ca 636A     		ldr	r3, [r4, #36]
 1342 00cc 334A     		ldr	r2, .L143+12
 1343 00ce DA63     		str	r2, [r3, #60]
 1344 00d0 636A     		ldr	r3, [r4, #36]
 1345 00d2 334A     		ldr	r2, .L143+16
 1346 00d4 1A64     		str	r2, [r3, #64]
 1347 00d6 636A     		ldr	r3, [r4, #36]
 1348 00d8 2F4A     		ldr	r2, .L143+8
 1349 00da DA64     		str	r2, [r3, #76]
 1350 00dc 2268     		ldr	r2, [r4]
 1351 00de 059B     		ldr	r3, [sp, #20]
 1352 00e0 4C32     		adds	r2, r2, #76
 1353 00e2 606A     		ldr	r0, [r4, #36]
 1354 00e4 FFF7FEFF 		bl	HAL_DMA_Start_IT
 1355 00e8 0028     		cmp	r0, #0
 1356 00ea B7D0     		beq	.L130
 1357 00ec 0120     		movs	r0, #1
 1358 00ee BEE7     		b	.L120
 1359              	.L125:
 1360 00f0 A36A     		ldr	r3, [r4, #40]
 1361 00f2 2A4A     		ldr	r2, .L143+12
 1362 00f4 DA63     		str	r2, [r3, #60]
 1363 00f6 A36A     		ldr	r3, [r4, #40]
 1364 00f8 294A     		ldr	r2, .L143+16
 1365 00fa 1A64     		str	r2, [r3, #64]
 1366 00fc A36A     		ldr	r3, [r4, #40]
 1367 00fe 264A     		ldr	r2, .L143+8
 1368 0100 DA64     		str	r2, [r3, #76]
 1369 0102 2268     		ldr	r2, [r4]
 1370 0104 059B     		ldr	r3, [sp, #20]
 1371 0106 4C32     		adds	r2, r2, #76
 1372 0108 A06A     		ldr	r0, [r4, #40]
 1373 010a FFF7FEFF 		bl	HAL_DMA_Start_IT
 1374 010e 0028     		cmp	r0, #0
 1375 0110 A4D0     		beq	.L130
 1376 0112 0120     		movs	r0, #1
 1377 0114 ABE7     		b	.L120
 1378              	.L122:
 1379 0116 E36A     		ldr	r3, [r4, #44]
 1380 0118 204A     		ldr	r2, .L143+12
 1381 011a DA63     		str	r2, [r3, #60]
 1382 011c E36A     		ldr	r3, [r4, #44]
ARM GAS  /var/folders/0f/x4_g94q9649fs6s33cksjfb00000gn/T//ccmft7Jl.s 			page 24


 1383 011e 204A     		ldr	r2, .L143+16
 1384 0120 1A64     		str	r2, [r3, #64]
 1385 0122 E36A     		ldr	r3, [r4, #44]
 1386 0124 1C4A     		ldr	r2, .L143+8
 1387 0126 DA64     		str	r2, [r3, #76]
 1388 0128 2268     		ldr	r2, [r4]
 1389 012a 059B     		ldr	r3, [sp, #20]
 1390 012c 4C32     		adds	r2, r2, #76
 1391 012e E06A     		ldr	r0, [r4, #44]
 1392 0130 FFF7FEFF 		bl	HAL_DMA_Start_IT
 1393 0134 0028     		cmp	r0, #0
 1394 0136 91D0     		beq	.L130
 1395 0138 0120     		movs	r0, #1
 1396 013a 98E7     		b	.L120
 1397              	.L127:
 1398 013c 636B     		ldr	r3, [r4, #52]
 1399 013e 194A     		ldr	r2, .L143+20
 1400 0140 DA63     		str	r2, [r3, #60]
 1401 0142 636B     		ldr	r3, [r4, #52]
 1402 0144 184A     		ldr	r2, .L143+24
 1403 0146 1A64     		str	r2, [r3, #64]
 1404 0148 636B     		ldr	r3, [r4, #52]
 1405 014a 134A     		ldr	r2, .L143+8
 1406 014c DA64     		str	r2, [r3, #76]
 1407 014e 2268     		ldr	r2, [r4]
 1408 0150 059B     		ldr	r3, [sp, #20]
 1409 0152 4C32     		adds	r2, r2, #76
 1410 0154 606B     		ldr	r0, [r4, #52]
 1411 0156 FFF7FEFF 		bl	HAL_DMA_Start_IT
 1412 015a 0028     		cmp	r0, #0
 1413 015c 3FF47EAF 		beq	.L130
 1414 0160 0120     		movs	r0, #1
 1415 0162 84E7     		b	.L120
 1416              	.L128:
 1417 0164 A36B     		ldr	r3, [r4, #56]
 1418 0166 114A     		ldr	r2, .L143+28
 1419 0168 DA63     		str	r2, [r3, #60]
 1420 016a A36B     		ldr	r3, [r4, #56]
 1421 016c 104A     		ldr	r2, .L143+32
 1422 016e 1A64     		str	r2, [r3, #64]
 1423 0170 A36B     		ldr	r3, [r4, #56]
 1424 0172 094A     		ldr	r2, .L143+8
 1425 0174 DA64     		str	r2, [r3, #76]
 1426 0176 2268     		ldr	r2, [r4]
 1427 0178 059B     		ldr	r3, [sp, #20]
 1428 017a 4C32     		adds	r2, r2, #76
 1429 017c A06B     		ldr	r0, [r4, #56]
 1430 017e FFF7FEFF 		bl	HAL_DMA_Start_IT
 1431 0182 0028     		cmp	r0, #0
 1432 0184 3FF46AAF 		beq	.L130
 1433 0188 0120     		movs	r0, #1
 1434 018a 70E7     		b	.L120
 1435              	.L141:
 1436 018c 0120     		movs	r0, #1
 1437 018e 6EE7     		b	.L120
 1438              	.L144:
 1439              		.align	2
ARM GAS  /var/folders/0f/x4_g94q9649fs6s33cksjfb00000gn/T//ccmft7Jl.s 			page 25


 1440              	.L143:
 1441 0190 00000000 		.word	TIM_DMAPeriodElapsedCplt
 1442 0194 00000000 		.word	TIM_DMAPeriodElapsedHalfCplt
 1443 0198 00000000 		.word	TIM_DMAError
 1444 019c 00000000 		.word	TIM_DMADelayPulseCplt
 1445 01a0 00000000 		.word	TIM_DMADelayPulseHalfCplt
 1446 01a4 00000000 		.word	TIMEx_DMACommutationCplt
 1447 01a8 00000000 		.word	TIMEx_DMACommutationHalfCplt
 1448 01ac 00000000 		.word	TIM_DMATriggerCplt
 1449 01b0 00000000 		.word	TIM_DMATriggerHalfCplt
 1451              		.section	.text.HAL_TIM_DMABurst_WriteStart,"ax",%progbits
 1452              		.align	1
 1453              		.global	HAL_TIM_DMABurst_WriteStart
 1454              		.syntax unified
 1455              		.thumb
 1456              		.thumb_func
 1458              	HAL_TIM_DMABurst_WriteStart:
 1459              		@ args = 4, pretend = 0, frame = 0
 1460              		@ frame_needed = 0, uses_anonymous_args = 0
 1461 0000 30B5     		push	{r4, r5, lr}
 1462 0002 83B0     		sub	sp, sp, #12
 1463 0004 069D     		ldr	r5, [sp, #24]
 1464 0006 2C0A     		lsrs	r4, r5, #8
 1465 0008 0134     		adds	r4, r4, #1
 1466 000a 0194     		str	r4, [sp, #4]
 1467 000c 0095     		str	r5, [sp]
 1468 000e FFF7FEFF 		bl	HAL_TIM_DMABurst_MultiWriteStart
 1469 0012 03B0     		add	sp, sp, #12
 1470              		@ sp needed
 1471 0014 30BD     		pop	{r4, r5, pc}
 1473              		.section	.text.HAL_TIM_DMABurst_WriteStop,"ax",%progbits
 1474              		.align	1
 1475              		.global	HAL_TIM_DMABurst_WriteStop
 1476              		.syntax unified
 1477              		.thumb
 1478              		.thumb_func
 1480              	HAL_TIM_DMABurst_WriteStop:
 1481              		@ args = 0, pretend = 0, frame = 0
 1482              		@ frame_needed = 0, uses_anonymous_args = 0
 1483 0000 38B5     		push	{r3, r4, r5, lr}
 1484 0002 0546     		mov	r5, r0
 1485 0004 0C46     		mov	r4, r1
 1486 0006 B1F5006F 		cmp	r1, #2048
 1487 000a 2FD0     		beq	.L148
 1488 000c 17D8     		bhi	.L149
 1489 000e B1F5007F 		cmp	r1, #512
 1490 0012 23D0     		beq	.L150
 1491 0014 B1F5806F 		cmp	r1, #1024
 1492 0018 24D0     		beq	.L151
 1493 001a B1F5807F 		cmp	r1, #256
 1494 001e 0CD1     		bne	.L159
 1495 0020 006A     		ldr	r0, [r0, #32]
 1496 0022 FFF7FEFF 		bl	HAL_DMA_Abort_IT
 1497              	.L157:
 1498 0026 2A68     		ldr	r2, [r5]
 1499 0028 D368     		ldr	r3, [r2, #12]
 1500 002a 23EA0403 		bic	r3, r3, r4
ARM GAS  /var/folders/0f/x4_g94q9649fs6s33cksjfb00000gn/T//ccmft7Jl.s 			page 26


 1501 002e D360     		str	r3, [r2, #12]
 1502 0030 0123     		movs	r3, #1
 1503 0032 85F84830 		strb	r3, [r5, #72]
 1504 0036 0020     		movs	r0, #0
 1505              	.L153:
 1506 0038 38BD     		pop	{r3, r4, r5, pc}
 1507              	.L159:
 1508 003a 0120     		movs	r0, #1
 1509 003c FCE7     		b	.L153
 1510              	.L149:
 1511 003e B1F5005F 		cmp	r1, #8192
 1512 0042 17D0     		beq	.L154
 1513 0044 B1F5804F 		cmp	r1, #16384
 1514 0048 18D0     		beq	.L155
 1515 004a B1F5805F 		cmp	r1, #4096
 1516 004e 03D1     		bne	.L160
 1517 0050 006B     		ldr	r0, [r0, #48]
 1518 0052 FFF7FEFF 		bl	HAL_DMA_Abort_IT
 1519 0056 E6E7     		b	.L157
 1520              	.L160:
 1521 0058 0120     		movs	r0, #1
 1522 005a EDE7     		b	.L153
 1523              	.L150:
 1524 005c 406A     		ldr	r0, [r0, #36]
 1525 005e FFF7FEFF 		bl	HAL_DMA_Abort_IT
 1526 0062 E0E7     		b	.L157
 1527              	.L151:
 1528 0064 806A     		ldr	r0, [r0, #40]
 1529 0066 FFF7FEFF 		bl	HAL_DMA_Abort_IT
 1530 006a DCE7     		b	.L157
 1531              	.L148:
 1532 006c C06A     		ldr	r0, [r0, #44]
 1533 006e FFF7FEFF 		bl	HAL_DMA_Abort_IT
 1534 0072 D8E7     		b	.L157
 1535              	.L154:
 1536 0074 406B     		ldr	r0, [r0, #52]
 1537 0076 FFF7FEFF 		bl	HAL_DMA_Abort_IT
 1538 007a D4E7     		b	.L157
 1539              	.L155:
 1540 007c 806B     		ldr	r0, [r0, #56]
 1541 007e FFF7FEFF 		bl	HAL_DMA_Abort_IT
 1542 0082 D0E7     		b	.L157
 1544              		.section	.text.HAL_TIM_DMABurst_MultiReadStart,"ax",%progbits
 1545              		.align	1
 1546              		.global	HAL_TIM_DMABurst_MultiReadStart
 1547              		.syntax unified
 1548              		.thumb
 1549              		.thumb_func
 1551              	HAL_TIM_DMABurst_MultiReadStart:
 1552              		@ args = 8, pretend = 0, frame = 0
 1553              		@ frame_needed = 0, uses_anonymous_args = 0
 1554 0000 70B5     		push	{r4, r5, r6, lr}
 1555 0002 0446     		mov	r4, r0
 1556 0004 90F848C0 		ldrb	ip, [r0, #72]	@ zero_extendqisi2
 1557 0008 5FFA8CF0 		uxtb	r0, ip
 1558 000c BCF1020F 		cmp	ip, #2
 1559 0010 31D0     		beq	.L162
ARM GAS  /var/folders/0f/x4_g94q9649fs6s33cksjfb00000gn/T//ccmft7Jl.s 			page 27


 1560 0012 0E46     		mov	r6, r1
 1561 0014 1546     		mov	r5, r2
 1562 0016 1A46     		mov	r2, r3
 1563 0018 94F848C0 		ldrb	ip, [r4, #72]	@ zero_extendqisi2
 1564 001c 5FFA8CF0 		uxtb	r0, ip
 1565 0020 BCF1010F 		cmp	ip, #1
 1566 0024 28D0     		beq	.L181
 1567              	.L163:
 1568 0026 B5F5006F 		cmp	r5, #2048
 1569 002a 78D0     		beq	.L164
 1570 002c 33D8     		bhi	.L165
 1571 002e B5F5007F 		cmp	r5, #512
 1572 0032 4ED0     		beq	.L166
 1573 0034 B5F5806F 		cmp	r5, #1024
 1574 0038 5ED0     		beq	.L167
 1575 003a B5F5807F 		cmp	r5, #256
 1576 003e 28D1     		bne	.L182
 1577 0040 236A     		ldr	r3, [r4, #32]
 1578 0042 5549     		ldr	r1, .L185
 1579 0044 D963     		str	r1, [r3, #60]
 1580 0046 236A     		ldr	r3, [r4, #32]
 1581 0048 5449     		ldr	r1, .L185+4
 1582 004a 1964     		str	r1, [r3, #64]
 1583 004c 236A     		ldr	r3, [r4, #32]
 1584 004e 5449     		ldr	r1, .L185+8
 1585 0050 D964     		str	r1, [r3, #76]
 1586 0052 2168     		ldr	r1, [r4]
 1587 0054 059B     		ldr	r3, [sp, #20]
 1588 0056 4C31     		adds	r1, r1, #76
 1589 0058 206A     		ldr	r0, [r4, #32]
 1590 005a FFF7FEFF 		bl	HAL_DMA_Start_IT
 1591 005e 0028     		cmp	r0, #0
 1592 0060 40F09880 		bne	.L183
 1593              	.L172:
 1594 0064 2368     		ldr	r3, [r4]
 1595 0066 049A     		ldr	r2, [sp, #16]
 1596 0068 1643     		orrs	r6, r6, r2
 1597 006a 9E64     		str	r6, [r3, #72]
 1598 006c 2268     		ldr	r2, [r4]
 1599 006e D368     		ldr	r3, [r2, #12]
 1600 0070 2B43     		orrs	r3, r3, r5
 1601 0072 D360     		str	r3, [r2, #12]
 1602 0074 0020     		movs	r0, #0
 1603              	.L162:
 1604 0076 70BD     		pop	{r4, r5, r6, pc}
 1605              	.L181:
 1606 0078 0499     		ldr	r1, [sp, #16]
 1607 007a B3FA83F3 		clz	r3, r3
 1608 007e 5B09     		lsrs	r3, r3, #5
 1609 0080 0029     		cmp	r1, #0
 1610 0082 08BF     		it	eq
 1611 0084 0023     		moveq	r3, #0
 1612 0086 002B     		cmp	r3, #0
 1613 0088 F5D1     		bne	.L162
 1614 008a 0223     		movs	r3, #2
 1615 008c 84F84830 		strb	r3, [r4, #72]
 1616 0090 C9E7     		b	.L163
ARM GAS  /var/folders/0f/x4_g94q9649fs6s33cksjfb00000gn/T//ccmft7Jl.s 			page 28


 1617              	.L182:
 1618 0092 0120     		movs	r0, #1
 1619 0094 EFE7     		b	.L162
 1620              	.L165:
 1621 0096 B5F5005F 		cmp	r5, #8192
 1622 009a 53D0     		beq	.L169
 1623 009c B5F5804F 		cmp	r5, #16384
 1624 00a0 64D0     		beq	.L170
 1625 00a2 B5F5805F 		cmp	r5, #4096
 1626 00a6 12D1     		bne	.L184
 1627 00a8 236B     		ldr	r3, [r4, #48]
 1628 00aa 3E49     		ldr	r1, .L185+12
 1629 00ac D963     		str	r1, [r3, #60]
 1630 00ae 236B     		ldr	r3, [r4, #48]
 1631 00b0 3D49     		ldr	r1, .L185+16
 1632 00b2 1964     		str	r1, [r3, #64]
 1633 00b4 236B     		ldr	r3, [r4, #48]
 1634 00b6 3A49     		ldr	r1, .L185+8
 1635 00b8 D964     		str	r1, [r3, #76]
 1636 00ba 2168     		ldr	r1, [r4]
 1637 00bc 059B     		ldr	r3, [sp, #20]
 1638 00be 4C31     		adds	r1, r1, #76
 1639 00c0 206B     		ldr	r0, [r4, #48]
 1640 00c2 FFF7FEFF 		bl	HAL_DMA_Start_IT
 1641 00c6 0028     		cmp	r0, #0
 1642 00c8 CCD0     		beq	.L172
 1643 00ca 0120     		movs	r0, #1
 1644 00cc D3E7     		b	.L162
 1645              	.L184:
 1646 00ce 0120     		movs	r0, #1
 1647 00d0 D1E7     		b	.L162
 1648              	.L166:
 1649 00d2 636A     		ldr	r3, [r4, #36]
 1650 00d4 3349     		ldr	r1, .L185+12
 1651 00d6 D963     		str	r1, [r3, #60]
 1652 00d8 636A     		ldr	r3, [r4, #36]
 1653 00da 3349     		ldr	r1, .L185+16
 1654 00dc 1964     		str	r1, [r3, #64]
 1655 00de 636A     		ldr	r3, [r4, #36]
 1656 00e0 2F49     		ldr	r1, .L185+8
 1657 00e2 D964     		str	r1, [r3, #76]
 1658 00e4 2168     		ldr	r1, [r4]
 1659 00e6 059B     		ldr	r3, [sp, #20]
 1660 00e8 4C31     		adds	r1, r1, #76
 1661 00ea 606A     		ldr	r0, [r4, #36]
 1662 00ec FFF7FEFF 		bl	HAL_DMA_Start_IT
 1663 00f0 0028     		cmp	r0, #0
 1664 00f2 B7D0     		beq	.L172
 1665 00f4 0120     		movs	r0, #1
 1666 00f6 BEE7     		b	.L162
 1667              	.L167:
 1668 00f8 A36A     		ldr	r3, [r4, #40]
 1669 00fa 2A49     		ldr	r1, .L185+12
 1670 00fc D963     		str	r1, [r3, #60]
 1671 00fe A36A     		ldr	r3, [r4, #40]
 1672 0100 2949     		ldr	r1, .L185+16
 1673 0102 1964     		str	r1, [r3, #64]
ARM GAS  /var/folders/0f/x4_g94q9649fs6s33cksjfb00000gn/T//ccmft7Jl.s 			page 29


 1674 0104 A36A     		ldr	r3, [r4, #40]
 1675 0106 2649     		ldr	r1, .L185+8
 1676 0108 D964     		str	r1, [r3, #76]
 1677 010a 2168     		ldr	r1, [r4]
 1678 010c 059B     		ldr	r3, [sp, #20]
 1679 010e 4C31     		adds	r1, r1, #76
 1680 0110 A06A     		ldr	r0, [r4, #40]
 1681 0112 FFF7FEFF 		bl	HAL_DMA_Start_IT
 1682 0116 0028     		cmp	r0, #0
 1683 0118 A4D0     		beq	.L172
 1684 011a 0120     		movs	r0, #1
 1685 011c ABE7     		b	.L162
 1686              	.L164:
 1687 011e E36A     		ldr	r3, [r4, #44]
 1688 0120 2049     		ldr	r1, .L185+12
 1689 0122 D963     		str	r1, [r3, #60]
 1690 0124 E36A     		ldr	r3, [r4, #44]
 1691 0126 2049     		ldr	r1, .L185+16
 1692 0128 1964     		str	r1, [r3, #64]
 1693 012a E36A     		ldr	r3, [r4, #44]
 1694 012c 1C49     		ldr	r1, .L185+8
 1695 012e D964     		str	r1, [r3, #76]
 1696 0130 2168     		ldr	r1, [r4]
 1697 0132 059B     		ldr	r3, [sp, #20]
 1698 0134 4C31     		adds	r1, r1, #76
 1699 0136 E06A     		ldr	r0, [r4, #44]
 1700 0138 FFF7FEFF 		bl	HAL_DMA_Start_IT
 1701 013c 0028     		cmp	r0, #0
 1702 013e 91D0     		beq	.L172
 1703 0140 0120     		movs	r0, #1
 1704 0142 98E7     		b	.L162
 1705              	.L169:
 1706 0144 636B     		ldr	r3, [r4, #52]
 1707 0146 1949     		ldr	r1, .L185+20
 1708 0148 D963     		str	r1, [r3, #60]
 1709 014a 636B     		ldr	r3, [r4, #52]
 1710 014c 1849     		ldr	r1, .L185+24
 1711 014e 1964     		str	r1, [r3, #64]
 1712 0150 636B     		ldr	r3, [r4, #52]
 1713 0152 1349     		ldr	r1, .L185+8
 1714 0154 D964     		str	r1, [r3, #76]
 1715 0156 2168     		ldr	r1, [r4]
 1716 0158 059B     		ldr	r3, [sp, #20]
 1717 015a 4C31     		adds	r1, r1, #76
 1718 015c 606B     		ldr	r0, [r4, #52]
 1719 015e FFF7FEFF 		bl	HAL_DMA_Start_IT
 1720 0162 0028     		cmp	r0, #0
 1721 0164 3FF47EAF 		beq	.L172
 1722 0168 0120     		movs	r0, #1
 1723 016a 84E7     		b	.L162
 1724              	.L170:
 1725 016c A36B     		ldr	r3, [r4, #56]
 1726 016e 1149     		ldr	r1, .L185+28
 1727 0170 D963     		str	r1, [r3, #60]
 1728 0172 A36B     		ldr	r3, [r4, #56]
 1729 0174 1049     		ldr	r1, .L185+32
 1730 0176 1964     		str	r1, [r3, #64]
ARM GAS  /var/folders/0f/x4_g94q9649fs6s33cksjfb00000gn/T//ccmft7Jl.s 			page 30


 1731 0178 A36B     		ldr	r3, [r4, #56]
 1732 017a 0949     		ldr	r1, .L185+8
 1733 017c D964     		str	r1, [r3, #76]
 1734 017e 2168     		ldr	r1, [r4]
 1735 0180 059B     		ldr	r3, [sp, #20]
 1736 0182 4C31     		adds	r1, r1, #76
 1737 0184 A06B     		ldr	r0, [r4, #56]
 1738 0186 FFF7FEFF 		bl	HAL_DMA_Start_IT
 1739 018a 0028     		cmp	r0, #0
 1740 018c 3FF46AAF 		beq	.L172
 1741 0190 0120     		movs	r0, #1
 1742 0192 70E7     		b	.L162
 1743              	.L183:
 1744 0194 0120     		movs	r0, #1
 1745 0196 6EE7     		b	.L162
 1746              	.L186:
 1747              		.align	2
 1748              	.L185:
 1749 0198 00000000 		.word	TIM_DMAPeriodElapsedCplt
 1750 019c 00000000 		.word	TIM_DMAPeriodElapsedHalfCplt
 1751 01a0 00000000 		.word	TIM_DMAError
 1752 01a4 00000000 		.word	TIM_DMACaptureCplt
 1753 01a8 00000000 		.word	TIM_DMACaptureHalfCplt
 1754 01ac 00000000 		.word	TIMEx_DMACommutationCplt
 1755 01b0 00000000 		.word	TIMEx_DMACommutationHalfCplt
 1756 01b4 00000000 		.word	TIM_DMATriggerCplt
 1757 01b8 00000000 		.word	TIM_DMATriggerHalfCplt
 1759              		.section	.text.HAL_TIM_DMABurst_ReadStart,"ax",%progbits
 1760              		.align	1
 1761              		.global	HAL_TIM_DMABurst_ReadStart
 1762              		.syntax unified
 1763              		.thumb
 1764              		.thumb_func
 1766              	HAL_TIM_DMABurst_ReadStart:
 1767              		@ args = 4, pretend = 0, frame = 0
 1768              		@ frame_needed = 0, uses_anonymous_args = 0
 1769 0000 30B5     		push	{r4, r5, lr}
 1770 0002 83B0     		sub	sp, sp, #12
 1771 0004 069D     		ldr	r5, [sp, #24]
 1772 0006 2C0A     		lsrs	r4, r5, #8
 1773 0008 0134     		adds	r4, r4, #1
 1774 000a 0194     		str	r4, [sp, #4]
 1775 000c 0095     		str	r5, [sp]
 1776 000e FFF7FEFF 		bl	HAL_TIM_DMABurst_MultiReadStart
 1777 0012 03B0     		add	sp, sp, #12
 1778              		@ sp needed
 1779 0014 30BD     		pop	{r4, r5, pc}
 1781              		.section	.text.HAL_TIM_DMABurst_ReadStop,"ax",%progbits
 1782              		.align	1
 1783              		.global	HAL_TIM_DMABurst_ReadStop
 1784              		.syntax unified
 1785              		.thumb
 1786              		.thumb_func
 1788              	HAL_TIM_DMABurst_ReadStop:
 1789              		@ args = 0, pretend = 0, frame = 0
 1790              		@ frame_needed = 0, uses_anonymous_args = 0
 1791 0000 38B5     		push	{r3, r4, r5, lr}
ARM GAS  /var/folders/0f/x4_g94q9649fs6s33cksjfb00000gn/T//ccmft7Jl.s 			page 31


 1792 0002 0546     		mov	r5, r0
 1793 0004 0C46     		mov	r4, r1
 1794 0006 B1F5006F 		cmp	r1, #2048
 1795 000a 2FD0     		beq	.L190
 1796 000c 17D8     		bhi	.L191
 1797 000e B1F5007F 		cmp	r1, #512
 1798 0012 23D0     		beq	.L192
 1799 0014 B1F5806F 		cmp	r1, #1024
 1800 0018 24D0     		beq	.L193
 1801 001a B1F5807F 		cmp	r1, #256
 1802 001e 0CD1     		bne	.L201
 1803 0020 006A     		ldr	r0, [r0, #32]
 1804 0022 FFF7FEFF 		bl	HAL_DMA_Abort_IT
 1805              	.L199:
 1806 0026 2A68     		ldr	r2, [r5]
 1807 0028 D368     		ldr	r3, [r2, #12]
 1808 002a 23EA0403 		bic	r3, r3, r4
 1809 002e D360     		str	r3, [r2, #12]
 1810 0030 0123     		movs	r3, #1
 1811 0032 85F84830 		strb	r3, [r5, #72]
 1812 0036 0020     		movs	r0, #0
 1813              	.L195:
 1814 0038 38BD     		pop	{r3, r4, r5, pc}
 1815              	.L201:
 1816 003a 0120     		movs	r0, #1
 1817 003c FCE7     		b	.L195
 1818              	.L191:
 1819 003e B1F5005F 		cmp	r1, #8192
 1820 0042 17D0     		beq	.L196
 1821 0044 B1F5804F 		cmp	r1, #16384
 1822 0048 18D0     		beq	.L197
 1823 004a B1F5805F 		cmp	r1, #4096
 1824 004e 03D1     		bne	.L202
 1825 0050 006B     		ldr	r0, [r0, #48]
 1826 0052 FFF7FEFF 		bl	HAL_DMA_Abort_IT
 1827 0056 E6E7     		b	.L199
 1828              	.L202:
 1829 0058 0120     		movs	r0, #1
 1830 005a EDE7     		b	.L195
 1831              	.L192:
 1832 005c 406A     		ldr	r0, [r0, #36]
 1833 005e FFF7FEFF 		bl	HAL_DMA_Abort_IT
 1834 0062 E0E7     		b	.L199
 1835              	.L193:
 1836 0064 806A     		ldr	r0, [r0, #40]
 1837 0066 FFF7FEFF 		bl	HAL_DMA_Abort_IT
 1838 006a DCE7     		b	.L199
 1839              	.L190:
 1840 006c C06A     		ldr	r0, [r0, #44]
 1841 006e FFF7FEFF 		bl	HAL_DMA_Abort_IT
 1842 0072 D8E7     		b	.L199
 1843              	.L196:
 1844 0074 406B     		ldr	r0, [r0, #52]
 1845 0076 FFF7FEFF 		bl	HAL_DMA_Abort_IT
 1846 007a D4E7     		b	.L199
 1847              	.L197:
 1848 007c 806B     		ldr	r0, [r0, #56]
ARM GAS  /var/folders/0f/x4_g94q9649fs6s33cksjfb00000gn/T//ccmft7Jl.s 			page 32


 1849 007e FFF7FEFF 		bl	HAL_DMA_Abort_IT
 1850 0082 D0E7     		b	.L199
 1852              		.section	.text.HAL_TIM_GenerateEvent,"ax",%progbits
 1853              		.align	1
 1854              		.global	HAL_TIM_GenerateEvent
 1855              		.syntax unified
 1856              		.thumb
 1857              		.thumb_func
 1859              	HAL_TIM_GenerateEvent:
 1860              		@ args = 0, pretend = 0, frame = 0
 1861              		@ frame_needed = 0, uses_anonymous_args = 0
 1862              		@ link register save eliminated.
 1863 0000 90F83C30 		ldrb	r3, [r0, #60]	@ zero_extendqisi2
 1864 0004 012B     		cmp	r3, #1
 1865 0006 0ED0     		beq	.L205
 1866 0008 0123     		movs	r3, #1
 1867 000a 80F83C30 		strb	r3, [r0, #60]
 1868 000e 0222     		movs	r2, #2
 1869 0010 80F83D20 		strb	r2, [r0, #61]
 1870 0014 0268     		ldr	r2, [r0]
 1871 0016 5161     		str	r1, [r2, #20]
 1872 0018 80F83D30 		strb	r3, [r0, #61]
 1873 001c 0023     		movs	r3, #0
 1874 001e 80F83C30 		strb	r3, [r0, #60]
 1875 0022 1846     		mov	r0, r3
 1876 0024 7047     		bx	lr
 1877              	.L205:
 1878 0026 0220     		movs	r0, #2
 1879 0028 7047     		bx	lr
 1881              		.section	.text.HAL_TIM_ConfigTI1Input,"ax",%progbits
 1882              		.align	1
 1883              		.global	HAL_TIM_ConfigTI1Input
 1884              		.syntax unified
 1885              		.thumb
 1886              		.thumb_func
 1888              	HAL_TIM_ConfigTI1Input:
 1889              		@ args = 0, pretend = 0, frame = 0
 1890              		@ frame_needed = 0, uses_anonymous_args = 0
 1891              		@ link register save eliminated.
 1892 0000 0268     		ldr	r2, [r0]
 1893 0002 5368     		ldr	r3, [r2, #4]
 1894 0004 23F08003 		bic	r3, r3, #128
 1895 0008 0B43     		orrs	r3, r3, r1
 1896 000a 5360     		str	r3, [r2, #4]
 1897 000c 0020     		movs	r0, #0
 1898 000e 7047     		bx	lr
 1900              		.section	.text.HAL_TIM_ReadCapturedValue,"ax",%progbits
 1901              		.align	1
 1902              		.global	HAL_TIM_ReadCapturedValue
 1903              		.syntax unified
 1904              		.thumb
 1905              		.thumb_func
 1907              	HAL_TIM_ReadCapturedValue:
 1908              		@ args = 0, pretend = 0, frame = 0
 1909              		@ frame_needed = 0, uses_anonymous_args = 0
 1910              		@ link register save eliminated.
 1911 0000 0C29     		cmp	r1, #12
ARM GAS  /var/folders/0f/x4_g94q9649fs6s33cksjfb00000gn/T//ccmft7Jl.s 			page 33


 1912 0002 14D8     		bhi	.L214
 1913 0004 DFE801F0 		tbb	[pc, r1]
 1914              	.L210:
 1915 0008 07       		.byte	(.L213-.L210)/2
 1916 0009 13       		.byte	(.L214-.L210)/2
 1917 000a 13       		.byte	(.L214-.L210)/2
 1918 000b 13       		.byte	(.L214-.L210)/2
 1919 000c 0A       		.byte	(.L212-.L210)/2
 1920 000d 13       		.byte	(.L214-.L210)/2
 1921 000e 13       		.byte	(.L214-.L210)/2
 1922 000f 13       		.byte	(.L214-.L210)/2
 1923 0010 0D       		.byte	(.L211-.L210)/2
 1924 0011 13       		.byte	(.L214-.L210)/2
 1925 0012 13       		.byte	(.L214-.L210)/2
 1926 0013 13       		.byte	(.L214-.L210)/2
 1927 0014 10       		.byte	(.L209-.L210)/2
 1928 0015 00       		.p2align 1
 1929              	.L213:
 1930 0016 0368     		ldr	r3, [r0]
 1931 0018 586B     		ldr	r0, [r3, #52]
 1932 001a 7047     		bx	lr
 1933              	.L212:
 1934 001c 0368     		ldr	r3, [r0]
 1935 001e 986B     		ldr	r0, [r3, #56]
 1936 0020 7047     		bx	lr
 1937              	.L211:
 1938 0022 0368     		ldr	r3, [r0]
 1939 0024 D86B     		ldr	r0, [r3, #60]
 1940 0026 7047     		bx	lr
 1941              	.L209:
 1942 0028 0368     		ldr	r3, [r0]
 1943 002a 186C     		ldr	r0, [r3, #64]
 1944 002c 7047     		bx	lr
 1945              	.L214:
 1946 002e 0020     		movs	r0, #0
 1947 0030 7047     		bx	lr
 1949              		.section	.text.HAL_TIM_PeriodElapsedCallback,"ax",%progbits
 1950              		.align	1
 1951              		.weak	HAL_TIM_PeriodElapsedCallback
 1952              		.syntax unified
 1953              		.thumb
 1954              		.thumb_func
 1956              	HAL_TIM_PeriodElapsedCallback:
 1957              		@ args = 0, pretend = 0, frame = 0
 1958              		@ frame_needed = 0, uses_anonymous_args = 0
 1959              		@ link register save eliminated.
 1960 0000 7047     		bx	lr
 1962              		.section	.text.TIM_DMAPeriodElapsedCplt,"ax",%progbits
 1963              		.align	1
 1964              		.syntax unified
 1965              		.thumb
 1966              		.thumb_func
 1968              	TIM_DMAPeriodElapsedCplt:
 1969              		@ args = 0, pretend = 0, frame = 0
 1970              		@ frame_needed = 0, uses_anonymous_args = 0
 1971 0000 08B5     		push	{r3, lr}
 1972 0002 806B     		ldr	r0, [r0, #56]
ARM GAS  /var/folders/0f/x4_g94q9649fs6s33cksjfb00000gn/T//ccmft7Jl.s 			page 34


 1973 0004 036A     		ldr	r3, [r0, #32]
 1974 0006 DB69     		ldr	r3, [r3, #28]
 1975 0008 13B9     		cbnz	r3, .L217
 1976 000a 0123     		movs	r3, #1
 1977 000c 80F83D30 		strb	r3, [r0, #61]
 1978              	.L217:
 1979 0010 FFF7FEFF 		bl	HAL_TIM_PeriodElapsedCallback
 1980 0014 08BD     		pop	{r3, pc}
 1982              		.section	.text.HAL_TIM_PeriodElapsedHalfCpltCallback,"ax",%progbits
 1983              		.align	1
 1984              		.weak	HAL_TIM_PeriodElapsedHalfCpltCallback
 1985              		.syntax unified
 1986              		.thumb
 1987              		.thumb_func
 1989              	HAL_TIM_PeriodElapsedHalfCpltCallback:
 1990              		@ args = 0, pretend = 0, frame = 0
 1991              		@ frame_needed = 0, uses_anonymous_args = 0
 1992              		@ link register save eliminated.
 1993 0000 7047     		bx	lr
 1995              		.section	.text.TIM_DMAPeriodElapsedHalfCplt,"ax",%progbits
 1996              		.align	1
 1997              		.syntax unified
 1998              		.thumb
 1999              		.thumb_func
 2001              	TIM_DMAPeriodElapsedHalfCplt:
 2002              		@ args = 0, pretend = 0, frame = 0
 2003              		@ frame_needed = 0, uses_anonymous_args = 0
 2004 0000 08B5     		push	{r3, lr}
 2005 0002 806B     		ldr	r0, [r0, #56]
 2006 0004 FFF7FEFF 		bl	HAL_TIM_PeriodElapsedHalfCpltCallback
 2007 0008 08BD     		pop	{r3, pc}
 2009              		.section	.text.HAL_TIM_OC_DelayElapsedCallback,"ax",%progbits
 2010              		.align	1
 2011              		.weak	HAL_TIM_OC_DelayElapsedCallback
 2012              		.syntax unified
 2013              		.thumb
 2014              		.thumb_func
 2016              	HAL_TIM_OC_DelayElapsedCallback:
 2017              		@ args = 0, pretend = 0, frame = 0
 2018              		@ frame_needed = 0, uses_anonymous_args = 0
 2019              		@ link register save eliminated.
 2020 0000 7047     		bx	lr
 2022              		.section	.text.HAL_TIM_IC_CaptureCallback,"ax",%progbits
 2023              		.align	1
 2024              		.weak	HAL_TIM_IC_CaptureCallback
 2025              		.syntax unified
 2026              		.thumb
 2027              		.thumb_func
 2029              	HAL_TIM_IC_CaptureCallback:
 2030              		@ args = 0, pretend = 0, frame = 0
 2031              		@ frame_needed = 0, uses_anonymous_args = 0
 2032              		@ link register save eliminated.
 2033 0000 7047     		bx	lr
 2035              		.section	.text.TIM_DMACaptureCplt,"ax",%progbits
 2036              		.align	1
 2037              		.global	TIM_DMACaptureCplt
 2038              		.syntax unified
ARM GAS  /var/folders/0f/x4_g94q9649fs6s33cksjfb00000gn/T//ccmft7Jl.s 			page 35


 2039              		.thumb
 2040              		.thumb_func
 2042              	TIM_DMACaptureCplt:
 2043              		@ args = 0, pretend = 0, frame = 0
 2044              		@ frame_needed = 0, uses_anonymous_args = 0
 2045 0000 10B5     		push	{r4, lr}
 2046 0002 846B     		ldr	r4, [r0, #56]
 2047 0004 636A     		ldr	r3, [r4, #36]
 2048 0006 8342     		cmp	r3, r0
 2049 0008 0ED0     		beq	.L230
 2050 000a A36A     		ldr	r3, [r4, #40]
 2051 000c 8342     		cmp	r3, r0
 2052 000e 16D0     		beq	.L231
 2053 0010 E36A     		ldr	r3, [r4, #44]
 2054 0012 8342     		cmp	r3, r0
 2055 0014 1ED0     		beq	.L232
 2056 0016 236B     		ldr	r3, [r4, #48]
 2057 0018 8342     		cmp	r3, r0
 2058 001a 26D0     		beq	.L233
 2059              	.L226:
 2060 001c 2046     		mov	r0, r4
 2061 001e FFF7FEFF 		bl	HAL_TIM_IC_CaptureCallback
 2062 0022 0023     		movs	r3, #0
 2063 0024 2377     		strb	r3, [r4, #28]
 2064 0026 10BD     		pop	{r4, pc}
 2065              	.L230:
 2066 0028 0123     		movs	r3, #1
 2067 002a 2377     		strb	r3, [r4, #28]
 2068 002c C369     		ldr	r3, [r0, #28]
 2069 002e 002B     		cmp	r3, #0
 2070 0030 F4D1     		bne	.L226
 2071 0032 0123     		movs	r3, #1
 2072 0034 84F83E30 		strb	r3, [r4, #62]
 2073 0038 84F84430 		strb	r3, [r4, #68]
 2074 003c EEE7     		b	.L226
 2075              	.L231:
 2076 003e 0223     		movs	r3, #2
 2077 0040 2377     		strb	r3, [r4, #28]
 2078 0042 C369     		ldr	r3, [r0, #28]
 2079 0044 002B     		cmp	r3, #0
 2080 0046 E9D1     		bne	.L226
 2081 0048 0123     		movs	r3, #1
 2082 004a 84F83F30 		strb	r3, [r4, #63]
 2083 004e 84F84530 		strb	r3, [r4, #69]
 2084 0052 E3E7     		b	.L226
 2085              	.L232:
 2086 0054 0423     		movs	r3, #4
 2087 0056 2377     		strb	r3, [r4, #28]
 2088 0058 C369     		ldr	r3, [r0, #28]
 2089 005a 002B     		cmp	r3, #0
 2090 005c DED1     		bne	.L226
 2091 005e 0123     		movs	r3, #1
 2092 0060 84F84030 		strb	r3, [r4, #64]
 2093 0064 84F84630 		strb	r3, [r4, #70]
 2094 0068 D8E7     		b	.L226
 2095              	.L233:
 2096 006a 0823     		movs	r3, #8
ARM GAS  /var/folders/0f/x4_g94q9649fs6s33cksjfb00000gn/T//ccmft7Jl.s 			page 36


 2097 006c 2377     		strb	r3, [r4, #28]
 2098 006e C369     		ldr	r3, [r0, #28]
 2099 0070 002B     		cmp	r3, #0
 2100 0072 D3D1     		bne	.L226
 2101 0074 0123     		movs	r3, #1
 2102 0076 84F84130 		strb	r3, [r4, #65]
 2103 007a 84F84730 		strb	r3, [r4, #71]
 2104 007e CDE7     		b	.L226
 2106              		.section	.text.HAL_TIM_IC_CaptureHalfCpltCallback,"ax",%progbits
 2107              		.align	1
 2108              		.weak	HAL_TIM_IC_CaptureHalfCpltCallback
 2109              		.syntax unified
 2110              		.thumb
 2111              		.thumb_func
 2113              	HAL_TIM_IC_CaptureHalfCpltCallback:
 2114              		@ args = 0, pretend = 0, frame = 0
 2115              		@ frame_needed = 0, uses_anonymous_args = 0
 2116              		@ link register save eliminated.
 2117 0000 7047     		bx	lr
 2119              		.section	.text.TIM_DMACaptureHalfCplt,"ax",%progbits
 2120              		.align	1
 2121              		.global	TIM_DMACaptureHalfCplt
 2122              		.syntax unified
 2123              		.thumb
 2124              		.thumb_func
 2126              	TIM_DMACaptureHalfCplt:
 2127              		@ args = 0, pretend = 0, frame = 0
 2128              		@ frame_needed = 0, uses_anonymous_args = 0
 2129 0000 10B5     		push	{r4, lr}
 2130 0002 846B     		ldr	r4, [r0, #56]
 2131 0004 636A     		ldr	r3, [r4, #36]
 2132 0006 8342     		cmp	r3, r0
 2133 0008 0BD0     		beq	.L241
 2134 000a A36A     		ldr	r3, [r4, #40]
 2135 000c 8342     		cmp	r3, r0
 2136 000e 10D0     		beq	.L242
 2137 0010 E36A     		ldr	r3, [r4, #44]
 2138 0012 8342     		cmp	r3, r0
 2139 0014 10D0     		beq	.L243
 2140 0016 236B     		ldr	r3, [r4, #48]
 2141 0018 8342     		cmp	r3, r0
 2142 001a 04D1     		bne	.L237
 2143 001c 0823     		movs	r3, #8
 2144 001e 2377     		strb	r3, [r4, #28]
 2145 0020 01E0     		b	.L237
 2146              	.L241:
 2147 0022 0123     		movs	r3, #1
 2148 0024 2377     		strb	r3, [r4, #28]
 2149              	.L237:
 2150 0026 2046     		mov	r0, r4
 2151 0028 FFF7FEFF 		bl	HAL_TIM_IC_CaptureHalfCpltCallback
 2152 002c 0023     		movs	r3, #0
 2153 002e 2377     		strb	r3, [r4, #28]
 2154 0030 10BD     		pop	{r4, pc}
 2155              	.L242:
 2156 0032 0223     		movs	r3, #2
 2157 0034 2377     		strb	r3, [r4, #28]
ARM GAS  /var/folders/0f/x4_g94q9649fs6s33cksjfb00000gn/T//ccmft7Jl.s 			page 37


 2158 0036 F6E7     		b	.L237
 2159              	.L243:
 2160 0038 0423     		movs	r3, #4
 2161 003a 2377     		strb	r3, [r4, #28]
 2162 003c F3E7     		b	.L237
 2164              		.section	.text.HAL_TIM_PWM_PulseFinishedCallback,"ax",%progbits
 2165              		.align	1
 2166              		.weak	HAL_TIM_PWM_PulseFinishedCallback
 2167              		.syntax unified
 2168              		.thumb
 2169              		.thumb_func
 2171              	HAL_TIM_PWM_PulseFinishedCallback:
 2172              		@ args = 0, pretend = 0, frame = 0
 2173              		@ frame_needed = 0, uses_anonymous_args = 0
 2174              		@ link register save eliminated.
 2175 0000 7047     		bx	lr
 2177              		.section	.text.TIM_DMADelayPulseCplt,"ax",%progbits
 2178              		.align	1
 2179              		.syntax unified
 2180              		.thumb
 2181              		.thumb_func
 2183              	TIM_DMADelayPulseCplt:
 2184              		@ args = 0, pretend = 0, frame = 0
 2185              		@ frame_needed = 0, uses_anonymous_args = 0
 2186 0000 10B5     		push	{r4, lr}
 2187 0002 846B     		ldr	r4, [r0, #56]
 2188 0004 636A     		ldr	r3, [r4, #36]
 2189 0006 8342     		cmp	r3, r0
 2190 0008 0ED0     		beq	.L251
 2191 000a A36A     		ldr	r3, [r4, #40]
 2192 000c 8342     		cmp	r3, r0
 2193 000e 14D0     		beq	.L252
 2194 0010 E36A     		ldr	r3, [r4, #44]
 2195 0012 8342     		cmp	r3, r0
 2196 0014 1AD0     		beq	.L253
 2197 0016 236B     		ldr	r3, [r4, #48]
 2198 0018 8342     		cmp	r3, r0
 2199 001a 20D0     		beq	.L254
 2200              	.L247:
 2201 001c 2046     		mov	r0, r4
 2202 001e FFF7FEFF 		bl	HAL_TIM_PWM_PulseFinishedCallback
 2203 0022 0023     		movs	r3, #0
 2204 0024 2377     		strb	r3, [r4, #28]
 2205 0026 10BD     		pop	{r4, pc}
 2206              	.L251:
 2207 0028 0123     		movs	r3, #1
 2208 002a 2377     		strb	r3, [r4, #28]
 2209 002c C369     		ldr	r3, [r0, #28]
 2210 002e 002B     		cmp	r3, #0
 2211 0030 F4D1     		bne	.L247
 2212 0032 0123     		movs	r3, #1
 2213 0034 84F83E30 		strb	r3, [r4, #62]
 2214 0038 F0E7     		b	.L247
 2215              	.L252:
 2216 003a 0223     		movs	r3, #2
 2217 003c 2377     		strb	r3, [r4, #28]
 2218 003e C369     		ldr	r3, [r0, #28]
ARM GAS  /var/folders/0f/x4_g94q9649fs6s33cksjfb00000gn/T//ccmft7Jl.s 			page 38


 2219 0040 002B     		cmp	r3, #0
 2220 0042 EBD1     		bne	.L247
 2221 0044 0123     		movs	r3, #1
 2222 0046 84F83F30 		strb	r3, [r4, #63]
 2223 004a E7E7     		b	.L247
 2224              	.L253:
 2225 004c 0423     		movs	r3, #4
 2226 004e 2377     		strb	r3, [r4, #28]
 2227 0050 C369     		ldr	r3, [r0, #28]
 2228 0052 002B     		cmp	r3, #0
 2229 0054 E2D1     		bne	.L247
 2230 0056 0123     		movs	r3, #1
 2231 0058 84F84030 		strb	r3, [r4, #64]
 2232 005c DEE7     		b	.L247
 2233              	.L254:
 2234 005e 0823     		movs	r3, #8
 2235 0060 2377     		strb	r3, [r4, #28]
 2236 0062 C369     		ldr	r3, [r0, #28]
 2237 0064 002B     		cmp	r3, #0
 2238 0066 D9D1     		bne	.L247
 2239 0068 0123     		movs	r3, #1
 2240 006a 84F84130 		strb	r3, [r4, #65]
 2241 006e D5E7     		b	.L247
 2243              		.section	.text.HAL_TIM_PWM_PulseFinishedHalfCpltCallback,"ax",%progbits
 2244              		.align	1
 2245              		.weak	HAL_TIM_PWM_PulseFinishedHalfCpltCallback
 2246              		.syntax unified
 2247              		.thumb
 2248              		.thumb_func
 2250              	HAL_TIM_PWM_PulseFinishedHalfCpltCallback:
 2251              		@ args = 0, pretend = 0, frame = 0
 2252              		@ frame_needed = 0, uses_anonymous_args = 0
 2253              		@ link register save eliminated.
 2254 0000 7047     		bx	lr
 2256              		.section	.text.TIM_DMADelayPulseHalfCplt,"ax",%progbits
 2257              		.align	1
 2258              		.global	TIM_DMADelayPulseHalfCplt
 2259              		.syntax unified
 2260              		.thumb
 2261              		.thumb_func
 2263              	TIM_DMADelayPulseHalfCplt:
 2264              		@ args = 0, pretend = 0, frame = 0
 2265              		@ frame_needed = 0, uses_anonymous_args = 0
 2266 0000 10B5     		push	{r4, lr}
 2267 0002 846B     		ldr	r4, [r0, #56]
 2268 0004 636A     		ldr	r3, [r4, #36]
 2269 0006 8342     		cmp	r3, r0
 2270 0008 0BD0     		beq	.L262
 2271 000a A36A     		ldr	r3, [r4, #40]
 2272 000c 8342     		cmp	r3, r0
 2273 000e 10D0     		beq	.L263
 2274 0010 E36A     		ldr	r3, [r4, #44]
 2275 0012 8342     		cmp	r3, r0
 2276 0014 10D0     		beq	.L264
 2277 0016 236B     		ldr	r3, [r4, #48]
 2278 0018 8342     		cmp	r3, r0
 2279 001a 04D1     		bne	.L258
ARM GAS  /var/folders/0f/x4_g94q9649fs6s33cksjfb00000gn/T//ccmft7Jl.s 			page 39


 2280 001c 0823     		movs	r3, #8
 2281 001e 2377     		strb	r3, [r4, #28]
 2282 0020 01E0     		b	.L258
 2283              	.L262:
 2284 0022 0123     		movs	r3, #1
 2285 0024 2377     		strb	r3, [r4, #28]
 2286              	.L258:
 2287 0026 2046     		mov	r0, r4
 2288 0028 FFF7FEFF 		bl	HAL_TIM_PWM_PulseFinishedHalfCpltCallback
 2289 002c 0023     		movs	r3, #0
 2290 002e 2377     		strb	r3, [r4, #28]
 2291 0030 10BD     		pop	{r4, pc}
 2292              	.L263:
 2293 0032 0223     		movs	r3, #2
 2294 0034 2377     		strb	r3, [r4, #28]
 2295 0036 F6E7     		b	.L258
 2296              	.L264:
 2297 0038 0423     		movs	r3, #4
 2298 003a 2377     		strb	r3, [r4, #28]
 2299 003c F3E7     		b	.L258
 2301              		.section	.text.HAL_TIM_TriggerCallback,"ax",%progbits
 2302              		.align	1
 2303              		.weak	HAL_TIM_TriggerCallback
 2304              		.syntax unified
 2305              		.thumb
 2306              		.thumb_func
 2308              	HAL_TIM_TriggerCallback:
 2309              		@ args = 0, pretend = 0, frame = 0
 2310              		@ frame_needed = 0, uses_anonymous_args = 0
 2311              		@ link register save eliminated.
 2312 0000 7047     		bx	lr
 2314              		.section	.text.HAL_TIM_IRQHandler,"ax",%progbits
 2315              		.align	1
 2316              		.global	HAL_TIM_IRQHandler
 2317              		.syntax unified
 2318              		.thumb
 2319              		.thumb_func
 2321              	HAL_TIM_IRQHandler:
 2322              		@ args = 0, pretend = 0, frame = 0
 2323              		@ frame_needed = 0, uses_anonymous_args = 0
 2324 0000 70B5     		push	{r4, r5, r6, lr}
 2325 0002 0446     		mov	r4, r0
 2326 0004 0368     		ldr	r3, [r0]
 2327 0006 DE68     		ldr	r6, [r3, #12]
 2328 0008 1D69     		ldr	r5, [r3, #16]
 2329 000a 15F0020F 		tst	r5, #2
 2330 000e 10D0     		beq	.L267
 2331 0010 16F0020F 		tst	r6, #2
 2332 0014 0DD0     		beq	.L267
 2333 0016 6FF00202 		mvn	r2, #2
 2334 001a 1A61     		str	r2, [r3, #16]
 2335 001c 0123     		movs	r3, #1
 2336 001e 0377     		strb	r3, [r0, #28]
 2337 0020 0368     		ldr	r3, [r0]
 2338 0022 9B69     		ldr	r3, [r3, #24]
 2339 0024 13F0030F 		tst	r3, #3
 2340 0028 64D0     		beq	.L268
ARM GAS  /var/folders/0f/x4_g94q9649fs6s33cksjfb00000gn/T//ccmft7Jl.s 			page 40


 2341 002a FFF7FEFF 		bl	HAL_TIM_IC_CaptureCallback
 2342              	.L269:
 2343 002e 0023     		movs	r3, #0
 2344 0030 2377     		strb	r3, [r4, #28]
 2345              	.L267:
 2346 0032 15F0040F 		tst	r5, #4
 2347 0036 12D0     		beq	.L270
 2348 0038 16F0040F 		tst	r6, #4
 2349 003c 0FD0     		beq	.L270
 2350 003e 2368     		ldr	r3, [r4]
 2351 0040 6FF00402 		mvn	r2, #4
 2352 0044 1A61     		str	r2, [r3, #16]
 2353 0046 0223     		movs	r3, #2
 2354 0048 2377     		strb	r3, [r4, #28]
 2355 004a 2368     		ldr	r3, [r4]
 2356 004c 9B69     		ldr	r3, [r3, #24]
 2357 004e 13F4407F 		tst	r3, #768
 2358 0052 55D0     		beq	.L271
 2359 0054 2046     		mov	r0, r4
 2360 0056 FFF7FEFF 		bl	HAL_TIM_IC_CaptureCallback
 2361              	.L272:
 2362 005a 0023     		movs	r3, #0
 2363 005c 2377     		strb	r3, [r4, #28]
 2364              	.L270:
 2365 005e 15F0080F 		tst	r5, #8
 2366 0062 12D0     		beq	.L273
 2367 0064 16F0080F 		tst	r6, #8
 2368 0068 0FD0     		beq	.L273
 2369 006a 2368     		ldr	r3, [r4]
 2370 006c 6FF00802 		mvn	r2, #8
 2371 0070 1A61     		str	r2, [r3, #16]
 2372 0072 0423     		movs	r3, #4
 2373 0074 2377     		strb	r3, [r4, #28]
 2374 0076 2368     		ldr	r3, [r4]
 2375 0078 DB69     		ldr	r3, [r3, #28]
 2376 007a 13F0030F 		tst	r3, #3
 2377 007e 46D0     		beq	.L274
 2378 0080 2046     		mov	r0, r4
 2379 0082 FFF7FEFF 		bl	HAL_TIM_IC_CaptureCallback
 2380              	.L275:
 2381 0086 0023     		movs	r3, #0
 2382 0088 2377     		strb	r3, [r4, #28]
 2383              	.L273:
 2384 008a 15F0100F 		tst	r5, #16
 2385 008e 12D0     		beq	.L276
 2386 0090 16F0100F 		tst	r6, #16
 2387 0094 0FD0     		beq	.L276
 2388 0096 2368     		ldr	r3, [r4]
 2389 0098 6FF01002 		mvn	r2, #16
 2390 009c 1A61     		str	r2, [r3, #16]
 2391 009e 0823     		movs	r3, #8
 2392 00a0 2377     		strb	r3, [r4, #28]
 2393 00a2 2368     		ldr	r3, [r4]
 2394 00a4 DB69     		ldr	r3, [r3, #28]
 2395 00a6 13F4407F 		tst	r3, #768
 2396 00aa 37D0     		beq	.L277
 2397 00ac 2046     		mov	r0, r4
ARM GAS  /var/folders/0f/x4_g94q9649fs6s33cksjfb00000gn/T//ccmft7Jl.s 			page 41


 2398 00ae FFF7FEFF 		bl	HAL_TIM_IC_CaptureCallback
 2399              	.L278:
 2400 00b2 0023     		movs	r3, #0
 2401 00b4 2377     		strb	r3, [r4, #28]
 2402              	.L276:
 2403 00b6 15F0010F 		tst	r5, #1
 2404 00ba 02D0     		beq	.L279
 2405 00bc 16F0010F 		tst	r6, #1
 2406 00c0 33D1     		bne	.L285
 2407              	.L279:
 2408 00c2 15F4025F 		tst	r5, #8320
 2409 00c6 02D0     		beq	.L280
 2410 00c8 16F0800F 		tst	r6, #128
 2411 00cc 35D1     		bne	.L286
 2412              	.L280:
 2413 00ce 15F4807F 		tst	r5, #256
 2414 00d2 02D0     		beq	.L281
 2415 00d4 16F0800F 		tst	r6, #128
 2416 00d8 37D1     		bne	.L287
 2417              	.L281:
 2418 00da 15F0400F 		tst	r5, #64
 2419 00de 02D0     		beq	.L282
 2420 00e0 16F0400F 		tst	r6, #64
 2421 00e4 39D1     		bne	.L288
 2422              	.L282:
 2423 00e6 15F0200F 		tst	r5, #32
 2424 00ea 02D0     		beq	.L266
 2425 00ec 16F0200F 		tst	r6, #32
 2426 00f0 3BD1     		bne	.L289
 2427              	.L266:
 2428 00f2 70BD     		pop	{r4, r5, r6, pc}
 2429              	.L268:
 2430 00f4 FFF7FEFF 		bl	HAL_TIM_OC_DelayElapsedCallback
 2431 00f8 2046     		mov	r0, r4
 2432 00fa FFF7FEFF 		bl	HAL_TIM_PWM_PulseFinishedCallback
 2433 00fe 96E7     		b	.L269
 2434              	.L271:
 2435 0100 2046     		mov	r0, r4
 2436 0102 FFF7FEFF 		bl	HAL_TIM_OC_DelayElapsedCallback
 2437 0106 2046     		mov	r0, r4
 2438 0108 FFF7FEFF 		bl	HAL_TIM_PWM_PulseFinishedCallback
 2439 010c A5E7     		b	.L272
 2440              	.L274:
 2441 010e 2046     		mov	r0, r4
 2442 0110 FFF7FEFF 		bl	HAL_TIM_OC_DelayElapsedCallback
 2443 0114 2046     		mov	r0, r4
 2444 0116 FFF7FEFF 		bl	HAL_TIM_PWM_PulseFinishedCallback
 2445 011a B4E7     		b	.L275
 2446              	.L277:
 2447 011c 2046     		mov	r0, r4
 2448 011e FFF7FEFF 		bl	HAL_TIM_OC_DelayElapsedCallback
 2449 0122 2046     		mov	r0, r4
 2450 0124 FFF7FEFF 		bl	HAL_TIM_PWM_PulseFinishedCallback
 2451 0128 C3E7     		b	.L278
 2452              	.L285:
 2453 012a 2368     		ldr	r3, [r4]
 2454 012c 6FF00102 		mvn	r2, #1
ARM GAS  /var/folders/0f/x4_g94q9649fs6s33cksjfb00000gn/T//ccmft7Jl.s 			page 42


 2455 0130 1A61     		str	r2, [r3, #16]
 2456 0132 2046     		mov	r0, r4
 2457 0134 FFF7FEFF 		bl	HAL_TIM_PeriodElapsedCallback
 2458 0138 C3E7     		b	.L279
 2459              	.L286:
 2460 013a 2368     		ldr	r3, [r4]
 2461 013c 6FF40252 		mvn	r2, #8320
 2462 0140 1A61     		str	r2, [r3, #16]
 2463 0142 2046     		mov	r0, r4
 2464 0144 FFF7FEFF 		bl	HAL_TIMEx_BreakCallback
 2465 0148 C1E7     		b	.L280
 2466              	.L287:
 2467 014a 2368     		ldr	r3, [r4]
 2468 014c 6FF48072 		mvn	r2, #256
 2469 0150 1A61     		str	r2, [r3, #16]
 2470 0152 2046     		mov	r0, r4
 2471 0154 FFF7FEFF 		bl	HAL_TIMEx_Break2Callback
 2472 0158 BFE7     		b	.L281
 2473              	.L288:
 2474 015a 2368     		ldr	r3, [r4]
 2475 015c 6FF04002 		mvn	r2, #64
 2476 0160 1A61     		str	r2, [r3, #16]
 2477 0162 2046     		mov	r0, r4
 2478 0164 FFF7FEFF 		bl	HAL_TIM_TriggerCallback
 2479 0168 BDE7     		b	.L282
 2480              	.L289:
 2481 016a 2368     		ldr	r3, [r4]
 2482 016c 6FF02002 		mvn	r2, #32
 2483 0170 1A61     		str	r2, [r3, #16]
 2484 0172 2046     		mov	r0, r4
 2485 0174 FFF7FEFF 		bl	HAL_TIMEx_CommutCallback
 2486 0178 BBE7     		b	.L266
 2488              		.section	.text.TIM_DMATriggerCplt,"ax",%progbits
 2489              		.align	1
 2490              		.syntax unified
 2491              		.thumb
 2492              		.thumb_func
 2494              	TIM_DMATriggerCplt:
 2495              		@ args = 0, pretend = 0, frame = 0
 2496              		@ frame_needed = 0, uses_anonymous_args = 0
 2497 0000 08B5     		push	{r3, lr}
 2498 0002 806B     		ldr	r0, [r0, #56]
 2499 0004 836B     		ldr	r3, [r0, #56]
 2500 0006 DB69     		ldr	r3, [r3, #28]
 2501 0008 13B9     		cbnz	r3, .L291
 2502 000a 0123     		movs	r3, #1
 2503 000c 80F83D30 		strb	r3, [r0, #61]
 2504              	.L291:
 2505 0010 FFF7FEFF 		bl	HAL_TIM_TriggerCallback
 2506 0014 08BD     		pop	{r3, pc}
 2508              		.section	.text.HAL_TIM_TriggerHalfCpltCallback,"ax",%progbits
 2509              		.align	1
 2510              		.weak	HAL_TIM_TriggerHalfCpltCallback
 2511              		.syntax unified
 2512              		.thumb
 2513              		.thumb_func
 2515              	HAL_TIM_TriggerHalfCpltCallback:
ARM GAS  /var/folders/0f/x4_g94q9649fs6s33cksjfb00000gn/T//ccmft7Jl.s 			page 43


 2516              		@ args = 0, pretend = 0, frame = 0
 2517              		@ frame_needed = 0, uses_anonymous_args = 0
 2518              		@ link register save eliminated.
 2519 0000 7047     		bx	lr
 2521              		.section	.text.TIM_DMATriggerHalfCplt,"ax",%progbits
 2522              		.align	1
 2523              		.syntax unified
 2524              		.thumb
 2525              		.thumb_func
 2527              	TIM_DMATriggerHalfCplt:
 2528              		@ args = 0, pretend = 0, frame = 0
 2529              		@ frame_needed = 0, uses_anonymous_args = 0
 2530 0000 08B5     		push	{r3, lr}
 2531 0002 806B     		ldr	r0, [r0, #56]
 2532 0004 FFF7FEFF 		bl	HAL_TIM_TriggerHalfCpltCallback
 2533 0008 08BD     		pop	{r3, pc}
 2535              		.section	.text.HAL_TIM_ErrorCallback,"ax",%progbits
 2536              		.align	1
 2537              		.weak	HAL_TIM_ErrorCallback
 2538              		.syntax unified
 2539              		.thumb
 2540              		.thumb_func
 2542              	HAL_TIM_ErrorCallback:
 2543              		@ args = 0, pretend = 0, frame = 0
 2544              		@ frame_needed = 0, uses_anonymous_args = 0
 2545              		@ link register save eliminated.
 2546 0000 7047     		bx	lr
 2548              		.section	.text.TIM_DMAError,"ax",%progbits
 2549              		.align	1
 2550              		.global	TIM_DMAError
 2551              		.syntax unified
 2552              		.thumb
 2553              		.thumb_func
 2555              	TIM_DMAError:
 2556              		@ args = 0, pretend = 0, frame = 0
 2557              		@ frame_needed = 0, uses_anonymous_args = 0
 2558 0000 10B5     		push	{r4, lr}
 2559 0002 846B     		ldr	r4, [r0, #56]
 2560 0004 636A     		ldr	r3, [r4, #36]
 2561 0006 8342     		cmp	r3, r0
 2562 0008 0CD0     		beq	.L304
 2563 000a A36A     		ldr	r3, [r4, #40]
 2564 000c 8342     		cmp	r3, r0
 2565 000e 13D0     		beq	.L305
 2566 0010 E36A     		ldr	r3, [r4, #44]
 2567 0012 8342     		cmp	r3, r0
 2568 0014 16D0     		beq	.L306
 2569 0016 236B     		ldr	r3, [r4, #48]
 2570 0018 8342     		cmp	r3, r0
 2571 001a 19D0     		beq	.L307
 2572 001c 0123     		movs	r3, #1
 2573 001e 84F83D30 		strb	r3, [r4, #61]
 2574 0022 03E0     		b	.L299
 2575              	.L304:
 2576 0024 0123     		movs	r3, #1
 2577 0026 2377     		strb	r3, [r4, #28]
 2578 0028 84F83E30 		strb	r3, [r4, #62]
ARM GAS  /var/folders/0f/x4_g94q9649fs6s33cksjfb00000gn/T//ccmft7Jl.s 			page 44


 2579              	.L299:
 2580 002c 2046     		mov	r0, r4
 2581 002e FFF7FEFF 		bl	HAL_TIM_ErrorCallback
 2582 0032 0023     		movs	r3, #0
 2583 0034 2377     		strb	r3, [r4, #28]
 2584 0036 10BD     		pop	{r4, pc}
 2585              	.L305:
 2586 0038 0223     		movs	r3, #2
 2587 003a 2377     		strb	r3, [r4, #28]
 2588 003c 0123     		movs	r3, #1
 2589 003e 84F83F30 		strb	r3, [r4, #63]
 2590 0042 F3E7     		b	.L299
 2591              	.L306:
 2592 0044 0423     		movs	r3, #4
 2593 0046 2377     		strb	r3, [r4, #28]
 2594 0048 0123     		movs	r3, #1
 2595 004a 84F84030 		strb	r3, [r4, #64]
 2596 004e EDE7     		b	.L299
 2597              	.L307:
 2598 0050 0823     		movs	r3, #8
 2599 0052 2377     		strb	r3, [r4, #28]
 2600 0054 0123     		movs	r3, #1
 2601 0056 84F84130 		strb	r3, [r4, #65]
 2602 005a E7E7     		b	.L299
 2604              		.section	.text.HAL_TIM_Base_GetState,"ax",%progbits
 2605              		.align	1
 2606              		.global	HAL_TIM_Base_GetState
 2607              		.syntax unified
 2608              		.thumb
 2609              		.thumb_func
 2611              	HAL_TIM_Base_GetState:
 2612              		@ args = 0, pretend = 0, frame = 0
 2613              		@ frame_needed = 0, uses_anonymous_args = 0
 2614              		@ link register save eliminated.
 2615 0000 90F83D00 		ldrb	r0, [r0, #61]	@ zero_extendqisi2
 2616 0004 7047     		bx	lr
 2618              		.section	.text.HAL_TIM_OC_GetState,"ax",%progbits
 2619              		.align	1
 2620              		.global	HAL_TIM_OC_GetState
 2621              		.syntax unified
 2622              		.thumb
 2623              		.thumb_func
 2625              	HAL_TIM_OC_GetState:
 2626              		@ args = 0, pretend = 0, frame = 0
 2627              		@ frame_needed = 0, uses_anonymous_args = 0
 2628              		@ link register save eliminated.
 2629 0000 90F83D00 		ldrb	r0, [r0, #61]	@ zero_extendqisi2
 2630 0004 7047     		bx	lr
 2632              		.section	.text.HAL_TIM_PWM_GetState,"ax",%progbits
 2633              		.align	1
 2634              		.global	HAL_TIM_PWM_GetState
 2635              		.syntax unified
 2636              		.thumb
 2637              		.thumb_func
 2639              	HAL_TIM_PWM_GetState:
 2640              		@ args = 0, pretend = 0, frame = 0
 2641              		@ frame_needed = 0, uses_anonymous_args = 0
ARM GAS  /var/folders/0f/x4_g94q9649fs6s33cksjfb00000gn/T//ccmft7Jl.s 			page 45


 2642              		@ link register save eliminated.
 2643 0000 90F83D00 		ldrb	r0, [r0, #61]	@ zero_extendqisi2
 2644 0004 7047     		bx	lr
 2646              		.section	.text.HAL_TIM_IC_GetState,"ax",%progbits
 2647              		.align	1
 2648              		.global	HAL_TIM_IC_GetState
 2649              		.syntax unified
 2650              		.thumb
 2651              		.thumb_func
 2653              	HAL_TIM_IC_GetState:
 2654              		@ args = 0, pretend = 0, frame = 0
 2655              		@ frame_needed = 0, uses_anonymous_args = 0
 2656              		@ link register save eliminated.
 2657 0000 90F83D00 		ldrb	r0, [r0, #61]	@ zero_extendqisi2
 2658 0004 7047     		bx	lr
 2660              		.section	.text.HAL_TIM_OnePulse_GetState,"ax",%progbits
 2661              		.align	1
 2662              		.global	HAL_TIM_OnePulse_GetState
 2663              		.syntax unified
 2664              		.thumb
 2665              		.thumb_func
 2667              	HAL_TIM_OnePulse_GetState:
 2668              		@ args = 0, pretend = 0, frame = 0
 2669              		@ frame_needed = 0, uses_anonymous_args = 0
 2670              		@ link register save eliminated.
 2671 0000 90F83D00 		ldrb	r0, [r0, #61]	@ zero_extendqisi2
 2672 0004 7047     		bx	lr
 2674              		.section	.text.HAL_TIM_Encoder_GetState,"ax",%progbits
 2675              		.align	1
 2676              		.global	HAL_TIM_Encoder_GetState
 2677              		.syntax unified
 2678              		.thumb
 2679              		.thumb_func
 2681              	HAL_TIM_Encoder_GetState:
 2682              		@ args = 0, pretend = 0, frame = 0
 2683              		@ frame_needed = 0, uses_anonymous_args = 0
 2684              		@ link register save eliminated.
 2685 0000 90F83D00 		ldrb	r0, [r0, #61]	@ zero_extendqisi2
 2686 0004 7047     		bx	lr
 2688              		.section	.text.HAL_TIM_GetActiveChannel,"ax",%progbits
 2689              		.align	1
 2690              		.global	HAL_TIM_GetActiveChannel
 2691              		.syntax unified
 2692              		.thumb
 2693              		.thumb_func
 2695              	HAL_TIM_GetActiveChannel:
 2696              		@ args = 0, pretend = 0, frame = 0
 2697              		@ frame_needed = 0, uses_anonymous_args = 0
 2698              		@ link register save eliminated.
 2699 0000 007F     		ldrb	r0, [r0, #28]	@ zero_extendqisi2
 2700 0002 7047     		bx	lr
 2702              		.section	.text.HAL_TIM_GetChannelState,"ax",%progbits
 2703              		.align	1
 2704              		.global	HAL_TIM_GetChannelState
 2705              		.syntax unified
 2706              		.thumb
 2707              		.thumb_func
ARM GAS  /var/folders/0f/x4_g94q9649fs6s33cksjfb00000gn/T//ccmft7Jl.s 			page 46


 2709              	HAL_TIM_GetChannelState:
 2710              		@ args = 0, pretend = 0, frame = 0
 2711              		@ frame_needed = 0, uses_anonymous_args = 0
 2712              		@ link register save eliminated.
 2713 0000 1029     		cmp	r1, #16
 2714 0002 1ED8     		bhi	.L316
 2715 0004 DFE801F0 		tbb	[pc, r1]
 2716              	.L318:
 2717 0008 09       		.byte	(.L322-.L318)/2
 2718 0009 1D       		.byte	(.L316-.L318)/2
 2719 000a 1D       		.byte	(.L316-.L318)/2
 2720 000b 1D       		.byte	(.L316-.L318)/2
 2721 000c 0D       		.byte	(.L321-.L318)/2
 2722 000d 1D       		.byte	(.L316-.L318)/2
 2723 000e 1D       		.byte	(.L316-.L318)/2
 2724 000f 1D       		.byte	(.L316-.L318)/2
 2725 0010 11       		.byte	(.L320-.L318)/2
 2726 0011 1D       		.byte	(.L316-.L318)/2
 2727 0012 1D       		.byte	(.L316-.L318)/2
 2728 0013 1D       		.byte	(.L316-.L318)/2
 2729 0014 15       		.byte	(.L319-.L318)/2
 2730 0015 1D       		.byte	(.L316-.L318)/2
 2731 0016 1D       		.byte	(.L316-.L318)/2
 2732 0017 1D       		.byte	(.L316-.L318)/2
 2733 0018 19       		.byte	(.L317-.L318)/2
 2734 0019 00       		.p2align 1
 2735              	.L322:
 2736 001a 90F83E00 		ldrb	r0, [r0, #62]	@ zero_extendqisi2
 2737 001e C0B2     		uxtb	r0, r0
 2738 0020 7047     		bx	lr
 2739              	.L321:
 2740 0022 90F83F00 		ldrb	r0, [r0, #63]	@ zero_extendqisi2
 2741 0026 C0B2     		uxtb	r0, r0
 2742 0028 7047     		bx	lr
 2743              	.L320:
 2744 002a 90F84000 		ldrb	r0, [r0, #64]	@ zero_extendqisi2
 2745 002e C0B2     		uxtb	r0, r0
 2746 0030 7047     		bx	lr
 2747              	.L319:
 2748 0032 90F84100 		ldrb	r0, [r0, #65]	@ zero_extendqisi2
 2749 0036 C0B2     		uxtb	r0, r0
 2750 0038 7047     		bx	lr
 2751              	.L317:
 2752 003a 90F84200 		ldrb	r0, [r0, #66]	@ zero_extendqisi2
 2753 003e C0B2     		uxtb	r0, r0
 2754 0040 7047     		bx	lr
 2755              	.L316:
 2756 0042 90F84300 		ldrb	r0, [r0, #67]	@ zero_extendqisi2
 2757 0046 C0B2     		uxtb	r0, r0
 2758 0048 7047     		bx	lr
 2760              		.section	.text.HAL_TIM_DMABurstState,"ax",%progbits
 2761              		.align	1
 2762              		.global	HAL_TIM_DMABurstState
 2763              		.syntax unified
 2764              		.thumb
 2765              		.thumb_func
 2767              	HAL_TIM_DMABurstState:
ARM GAS  /var/folders/0f/x4_g94q9649fs6s33cksjfb00000gn/T//ccmft7Jl.s 			page 47


 2768              		@ args = 0, pretend = 0, frame = 0
 2769              		@ frame_needed = 0, uses_anonymous_args = 0
 2770              		@ link register save eliminated.
 2771 0000 90F84800 		ldrb	r0, [r0, #72]	@ zero_extendqisi2
 2772 0004 7047     		bx	lr
 2774              		.section	.text.TIM_Base_SetConfig,"ax",%progbits
 2775              		.align	1
 2776              		.global	TIM_Base_SetConfig
 2777              		.syntax unified
 2778              		.thumb
 2779              		.thumb_func
 2781              	TIM_Base_SetConfig:
 2782              		@ args = 0, pretend = 0, frame = 0
 2783              		@ frame_needed = 0, uses_anonymous_args = 0
 2784              		@ link register save eliminated.
 2785 0000 70B4     		push	{r4, r5, r6}
 2786 0002 0368     		ldr	r3, [r0]
 2787 0004 3C4A     		ldr	r2, .L334
 2788 0006 9042     		cmp	r0, r2
 2789 0008 14BF     		ite	ne
 2790 000a 0022     		movne	r2, #0
 2791 000c 0122     		moveq	r2, #1
 2792 000e B0F1804F 		cmp	r0, #1073741824
 2793 0012 14BF     		ite	ne
 2794 0014 1446     		movne	r4, r2
 2795 0016 42F00104 		orreq	r4, r2, #1
 2796 001a ACB9     		cbnz	r4, .L326
 2797 001c 374D     		ldr	r5, .L334+4
 2798 001e A842     		cmp	r0, r5
 2799 0020 14BF     		ite	ne
 2800 0022 0025     		movne	r5, #0
 2801 0024 0125     		moveq	r5, #1
 2802 0026 364E     		ldr	r6, .L334+8
 2803 0028 B042     		cmp	r0, r6
 2804 002a 0DD0     		beq	.L326
 2805 002c 65B9     		cbnz	r5, .L326
 2806 002e 05F18045 		add	r5, r5, #1073741824
 2807 0032 05F58235 		add	r5, r5, #66560
 2808 0036 A842     		cmp	r0, r5
 2809 0038 14BF     		ite	ne
 2810 003a 0025     		movne	r5, #0
 2811 003c 0125     		moveq	r5, #1
 2812 003e 06F50066 		add	r6, r6, #2048
 2813 0042 B042     		cmp	r0, r6
 2814 0044 00D0     		beq	.L326
 2815 0046 1DB1     		cbz	r5, .L327
 2816              	.L326:
 2817 0048 23F07003 		bic	r3, r3, #112
 2818 004c 4D68     		ldr	r5, [r1, #4]
 2819 004e 2B43     		orrs	r3, r3, r5
 2820              	.L327:
 2821 0050 002C     		cmp	r4, #0
 2822 0052 33D1     		bne	.L329
 2823 0054 294C     		ldr	r4, .L334+4
 2824 0056 A042     		cmp	r0, r4
 2825 0058 14BF     		ite	ne
 2826 005a 0024     		movne	r4, #0
ARM GAS  /var/folders/0f/x4_g94q9649fs6s33cksjfb00000gn/T//ccmft7Jl.s 			page 48


 2827 005c 0124     		moveq	r4, #1
 2828 005e 284D     		ldr	r5, .L334+8
 2829 0060 A842     		cmp	r0, r5
 2830 0062 2BD0     		beq	.L329
 2831 0064 54BB     		cbnz	r4, .L329
 2832 0066 04F18044 		add	r4, r4, #1073741824
 2833 006a 04F58234 		add	r4, r4, #66560
 2834 006e A042     		cmp	r0, r4
 2835 0070 14BF     		ite	ne
 2836 0072 0024     		movne	r4, #0
 2837 0074 0124     		moveq	r4, #1
 2838 0076 05F50065 		add	r5, r5, #2048
 2839 007a A842     		cmp	r0, r5
 2840 007c 1ED0     		beq	.L329
 2841 007e ECB9     		cbnz	r4, .L329
 2842 0080 204C     		ldr	r4, .L334+12
 2843 0082 A042     		cmp	r0, r4
 2844 0084 14BF     		ite	ne
 2845 0086 0024     		movne	r4, #0
 2846 0088 0124     		moveq	r4, #1
 2847 008a 05F59A35 		add	r5, r5, #78848
 2848 008e A842     		cmp	r0, r5
 2849 0090 14D0     		beq	.L329
 2850 0092 9CB9     		cbnz	r4, .L329
 2851 0094 1C4C     		ldr	r4, .L334+16
 2852 0096 A042     		cmp	r0, r4
 2853 0098 14BF     		ite	ne
 2854 009a 0024     		movne	r4, #0
 2855 009c 0124     		moveq	r4, #1
 2856 009e 05F50065 		add	r5, r5, #2048
 2857 00a2 A842     		cmp	r0, r5
 2858 00a4 0AD0     		beq	.L329
 2859 00a6 4CB9     		cbnz	r4, .L329
 2860 00a8 184C     		ldr	r4, .L334+20
 2861 00aa A042     		cmp	r0, r4
 2862 00ac 14BF     		ite	ne
 2863 00ae 0024     		movne	r4, #0
 2864 00b0 0124     		moveq	r4, #1
 2865 00b2 A5F59635 		sub	r5, r5, #76800
 2866 00b6 A842     		cmp	r0, r5
 2867 00b8 00D0     		beq	.L329
 2868 00ba 1CB1     		cbz	r4, .L330
 2869              	.L329:
 2870 00bc 23F44073 		bic	r3, r3, #768
 2871 00c0 CC68     		ldr	r4, [r1, #12]
 2872 00c2 2343     		orrs	r3, r3, r4
 2873              	.L330:
 2874 00c4 23F08003 		bic	r3, r3, #128
 2875 00c8 4C69     		ldr	r4, [r1, #20]
 2876 00ca 2343     		orrs	r3, r3, r4
 2877 00cc 8C68     		ldr	r4, [r1, #8]
 2878 00ce C462     		str	r4, [r0, #44]
 2879 00d0 0C68     		ldr	r4, [r1]
 2880 00d2 8462     		str	r4, [r0, #40]
 2881 00d4 0E4C     		ldr	r4, .L334+24
 2882 00d6 A042     		cmp	r0, r4
 2883 00d8 08BF     		it	eq
ARM GAS  /var/folders/0f/x4_g94q9649fs6s33cksjfb00000gn/T//ccmft7Jl.s 			page 49


 2884 00da 42F00102 		orreq	r2, r2, #1
 2885 00de 0AB1     		cbz	r2, .L332
 2886 00e0 0A69     		ldr	r2, [r1, #16]
 2887 00e2 0263     		str	r2, [r0, #48]
 2888              	.L332:
 2889 00e4 0268     		ldr	r2, [r0]
 2890 00e6 42F00402 		orr	r2, r2, #4
 2891 00ea 0260     		str	r2, [r0]
 2892 00ec 0122     		movs	r2, #1
 2893 00ee 4261     		str	r2, [r0, #20]
 2894 00f0 0360     		str	r3, [r0]
 2895 00f2 70BC     		pop	{r4, r5, r6}
 2896 00f4 7047     		bx	lr
 2897              	.L335:
 2898 00f6 00BF     		.align	2
 2899              	.L334:
 2900 00f8 00000140 		.word	1073807360
 2901 00fc 00080040 		.word	1073743872
 2902 0100 00040040 		.word	1073742848
 2903 0104 00440140 		.word	1073824768
 2904 0108 00180040 		.word	1073747968
 2905 010c 00200040 		.word	1073750016
 2906 0110 00040140 		.word	1073808384
 2908              		.section	.text.HAL_TIM_Base_Init,"ax",%progbits
 2909              		.align	1
 2910              		.global	HAL_TIM_Base_Init
 2911              		.syntax unified
 2912              		.thumb
 2913              		.thumb_func
 2915              	HAL_TIM_Base_Init:
 2916              		@ args = 0, pretend = 0, frame = 0
 2917              		@ frame_needed = 0, uses_anonymous_args = 0
 2918 0000 60B3     		cbz	r0, .L339
 2919 0002 10B5     		push	{r4, lr}
 2920 0004 0446     		mov	r4, r0
 2921 0006 90F83D30 		ldrb	r3, [r0, #61]	@ zero_extendqisi2
 2922 000a 13B3     		cbz	r3, .L344
 2923              	.L338:
 2924 000c 0223     		movs	r3, #2
 2925 000e 84F83D30 		strb	r3, [r4, #61]
 2926 0012 2146     		mov	r1, r4
 2927 0014 51F8040B 		ldr	r0, [r1], #4
 2928 0018 FFF7FEFF 		bl	TIM_Base_SetConfig
 2929 001c 0123     		movs	r3, #1
 2930 001e 84F84830 		strb	r3, [r4, #72]
 2931 0022 84F83E30 		strb	r3, [r4, #62]
 2932 0026 84F83F30 		strb	r3, [r4, #63]
 2933 002a 84F84030 		strb	r3, [r4, #64]
 2934 002e 84F84130 		strb	r3, [r4, #65]
 2935 0032 84F84230 		strb	r3, [r4, #66]
 2936 0036 84F84330 		strb	r3, [r4, #67]
 2937 003a 84F84430 		strb	r3, [r4, #68]
 2938 003e 84F84530 		strb	r3, [r4, #69]
 2939 0042 84F84630 		strb	r3, [r4, #70]
 2940 0046 84F84730 		strb	r3, [r4, #71]
 2941 004a 84F83D30 		strb	r3, [r4, #61]
 2942 004e 0020     		movs	r0, #0
ARM GAS  /var/folders/0f/x4_g94q9649fs6s33cksjfb00000gn/T//ccmft7Jl.s 			page 50


 2943 0050 10BD     		pop	{r4, pc}
 2944              	.L344:
 2945 0052 80F83C30 		strb	r3, [r0, #60]
 2946 0056 FFF7FEFF 		bl	HAL_TIM_Base_MspInit
 2947 005a D7E7     		b	.L338
 2948              	.L339:
 2949 005c 0120     		movs	r0, #1
 2950 005e 7047     		bx	lr
 2952              		.section	.text.HAL_TIM_OC_Init,"ax",%progbits
 2953              		.align	1
 2954              		.global	HAL_TIM_OC_Init
 2955              		.syntax unified
 2956              		.thumb
 2957              		.thumb_func
 2959              	HAL_TIM_OC_Init:
 2960              		@ args = 0, pretend = 0, frame = 0
 2961              		@ frame_needed = 0, uses_anonymous_args = 0
 2962 0000 60B3     		cbz	r0, .L348
 2963 0002 10B5     		push	{r4, lr}
 2964 0004 0446     		mov	r4, r0
 2965 0006 90F83D30 		ldrb	r3, [r0, #61]	@ zero_extendqisi2
 2966 000a 13B3     		cbz	r3, .L353
 2967              	.L347:
 2968 000c 0223     		movs	r3, #2
 2969 000e 84F83D30 		strb	r3, [r4, #61]
 2970 0012 2146     		mov	r1, r4
 2971 0014 51F8040B 		ldr	r0, [r1], #4
 2972 0018 FFF7FEFF 		bl	TIM_Base_SetConfig
 2973 001c 0123     		movs	r3, #1
 2974 001e 84F84830 		strb	r3, [r4, #72]
 2975 0022 84F83E30 		strb	r3, [r4, #62]
 2976 0026 84F83F30 		strb	r3, [r4, #63]
 2977 002a 84F84030 		strb	r3, [r4, #64]
 2978 002e 84F84130 		strb	r3, [r4, #65]
 2979 0032 84F84230 		strb	r3, [r4, #66]
 2980 0036 84F84330 		strb	r3, [r4, #67]
 2981 003a 84F84430 		strb	r3, [r4, #68]
 2982 003e 84F84530 		strb	r3, [r4, #69]
 2983 0042 84F84630 		strb	r3, [r4, #70]
 2984 0046 84F84730 		strb	r3, [r4, #71]
 2985 004a 84F83D30 		strb	r3, [r4, #61]
 2986 004e 0020     		movs	r0, #0
 2987 0050 10BD     		pop	{r4, pc}
 2988              	.L353:
 2989 0052 80F83C30 		strb	r3, [r0, #60]
 2990 0056 FFF7FEFF 		bl	HAL_TIM_OC_MspInit
 2991 005a D7E7     		b	.L347
 2992              	.L348:
 2993 005c 0120     		movs	r0, #1
 2994 005e 7047     		bx	lr
 2996              		.section	.text.HAL_TIM_PWM_Init,"ax",%progbits
 2997              		.align	1
 2998              		.global	HAL_TIM_PWM_Init
 2999              		.syntax unified
 3000              		.thumb
 3001              		.thumb_func
 3003              	HAL_TIM_PWM_Init:
ARM GAS  /var/folders/0f/x4_g94q9649fs6s33cksjfb00000gn/T//ccmft7Jl.s 			page 51


 3004              		@ args = 0, pretend = 0, frame = 0
 3005              		@ frame_needed = 0, uses_anonymous_args = 0
 3006 0000 60B3     		cbz	r0, .L357
 3007 0002 10B5     		push	{r4, lr}
 3008 0004 0446     		mov	r4, r0
 3009 0006 90F83D30 		ldrb	r3, [r0, #61]	@ zero_extendqisi2
 3010 000a 13B3     		cbz	r3, .L362
 3011              	.L356:
 3012 000c 0223     		movs	r3, #2
 3013 000e 84F83D30 		strb	r3, [r4, #61]
 3014 0012 2146     		mov	r1, r4
 3015 0014 51F8040B 		ldr	r0, [r1], #4
 3016 0018 FFF7FEFF 		bl	TIM_Base_SetConfig
 3017 001c 0123     		movs	r3, #1
 3018 001e 84F84830 		strb	r3, [r4, #72]
 3019 0022 84F83E30 		strb	r3, [r4, #62]
 3020 0026 84F83F30 		strb	r3, [r4, #63]
 3021 002a 84F84030 		strb	r3, [r4, #64]
 3022 002e 84F84130 		strb	r3, [r4, #65]
 3023 0032 84F84230 		strb	r3, [r4, #66]
 3024 0036 84F84330 		strb	r3, [r4, #67]
 3025 003a 84F84430 		strb	r3, [r4, #68]
 3026 003e 84F84530 		strb	r3, [r4, #69]
 3027 0042 84F84630 		strb	r3, [r4, #70]
 3028 0046 84F84730 		strb	r3, [r4, #71]
 3029 004a 84F83D30 		strb	r3, [r4, #61]
 3030 004e 0020     		movs	r0, #0
 3031 0050 10BD     		pop	{r4, pc}
 3032              	.L362:
 3033 0052 80F83C30 		strb	r3, [r0, #60]
 3034 0056 FFF7FEFF 		bl	HAL_TIM_PWM_MspInit
 3035 005a D7E7     		b	.L356
 3036              	.L357:
 3037 005c 0120     		movs	r0, #1
 3038 005e 7047     		bx	lr
 3040              		.section	.text.HAL_TIM_IC_Init,"ax",%progbits
 3041              		.align	1
 3042              		.global	HAL_TIM_IC_Init
 3043              		.syntax unified
 3044              		.thumb
 3045              		.thumb_func
 3047              	HAL_TIM_IC_Init:
 3048              		@ args = 0, pretend = 0, frame = 0
 3049              		@ frame_needed = 0, uses_anonymous_args = 0
 3050 0000 60B3     		cbz	r0, .L366
 3051 0002 10B5     		push	{r4, lr}
 3052 0004 0446     		mov	r4, r0
 3053 0006 90F83D30 		ldrb	r3, [r0, #61]	@ zero_extendqisi2
 3054 000a 13B3     		cbz	r3, .L371
 3055              	.L365:
 3056 000c 0223     		movs	r3, #2
 3057 000e 84F83D30 		strb	r3, [r4, #61]
 3058 0012 2146     		mov	r1, r4
 3059 0014 51F8040B 		ldr	r0, [r1], #4
 3060 0018 FFF7FEFF 		bl	TIM_Base_SetConfig
 3061 001c 0123     		movs	r3, #1
 3062 001e 84F84830 		strb	r3, [r4, #72]
ARM GAS  /var/folders/0f/x4_g94q9649fs6s33cksjfb00000gn/T//ccmft7Jl.s 			page 52


 3063 0022 84F83E30 		strb	r3, [r4, #62]
 3064 0026 84F83F30 		strb	r3, [r4, #63]
 3065 002a 84F84030 		strb	r3, [r4, #64]
 3066 002e 84F84130 		strb	r3, [r4, #65]
 3067 0032 84F84230 		strb	r3, [r4, #66]
 3068 0036 84F84330 		strb	r3, [r4, #67]
 3069 003a 84F84430 		strb	r3, [r4, #68]
 3070 003e 84F84530 		strb	r3, [r4, #69]
 3071 0042 84F84630 		strb	r3, [r4, #70]
 3072 0046 84F84730 		strb	r3, [r4, #71]
 3073 004a 84F83D30 		strb	r3, [r4, #61]
 3074 004e 0020     		movs	r0, #0
 3075 0050 10BD     		pop	{r4, pc}
 3076              	.L371:
 3077 0052 80F83C30 		strb	r3, [r0, #60]
 3078 0056 FFF7FEFF 		bl	HAL_TIM_IC_MspInit
 3079 005a D7E7     		b	.L365
 3080              	.L366:
 3081 005c 0120     		movs	r0, #1
 3082 005e 7047     		bx	lr
 3084              		.section	.text.HAL_TIM_OnePulse_Init,"ax",%progbits
 3085              		.align	1
 3086              		.global	HAL_TIM_OnePulse_Init
 3087              		.syntax unified
 3088              		.thumb
 3089              		.thumb_func
 3091              	HAL_TIM_OnePulse_Init:
 3092              		@ args = 0, pretend = 0, frame = 0
 3093              		@ frame_needed = 0, uses_anonymous_args = 0
 3094 0000 50B3     		cbz	r0, .L375
 3095 0002 38B5     		push	{r3, r4, r5, lr}
 3096 0004 0D46     		mov	r5, r1
 3097 0006 0446     		mov	r4, r0
 3098 0008 90F83D30 		ldrb	r3, [r0, #61]	@ zero_extendqisi2
 3099 000c FBB1     		cbz	r3, .L380
 3100              	.L374:
 3101 000e 0223     		movs	r3, #2
 3102 0010 84F83D30 		strb	r3, [r4, #61]
 3103 0014 2146     		mov	r1, r4
 3104 0016 51F8040B 		ldr	r0, [r1], #4
 3105 001a FFF7FEFF 		bl	TIM_Base_SetConfig
 3106 001e 2268     		ldr	r2, [r4]
 3107 0020 1368     		ldr	r3, [r2]
 3108 0022 23F00803 		bic	r3, r3, #8
 3109 0026 1360     		str	r3, [r2]
 3110 0028 2268     		ldr	r2, [r4]
 3111 002a 1368     		ldr	r3, [r2]
 3112 002c 2B43     		orrs	r3, r3, r5
 3113 002e 1360     		str	r3, [r2]
 3114 0030 0123     		movs	r3, #1
 3115 0032 84F84830 		strb	r3, [r4, #72]
 3116 0036 84F83E30 		strb	r3, [r4, #62]
 3117 003a 84F83F30 		strb	r3, [r4, #63]
 3118 003e 84F84430 		strb	r3, [r4, #68]
 3119 0042 84F84530 		strb	r3, [r4, #69]
 3120 0046 84F83D30 		strb	r3, [r4, #61]
 3121 004a 0020     		movs	r0, #0
ARM GAS  /var/folders/0f/x4_g94q9649fs6s33cksjfb00000gn/T//ccmft7Jl.s 			page 53


 3122 004c 38BD     		pop	{r3, r4, r5, pc}
 3123              	.L380:
 3124 004e 80F83C30 		strb	r3, [r0, #60]
 3125 0052 FFF7FEFF 		bl	HAL_TIM_OnePulse_MspInit
 3126 0056 DAE7     		b	.L374
 3127              	.L375:
 3128 0058 0120     		movs	r0, #1
 3129 005a 7047     		bx	lr
 3131              		.section	.text.HAL_TIM_Encoder_Init,"ax",%progbits
 3132              		.align	1
 3133              		.global	HAL_TIM_Encoder_Init
 3134              		.syntax unified
 3135              		.thumb
 3136              		.thumb_func
 3138              	HAL_TIM_Encoder_Init:
 3139              		@ args = 0, pretend = 0, frame = 0
 3140              		@ frame_needed = 0, uses_anonymous_args = 0
 3141 0000 0028     		cmp	r0, #0
 3142 0002 4DD0     		beq	.L384
 3143 0004 F8B5     		push	{r3, r4, r5, r6, r7, lr}
 3144 0006 0D46     		mov	r5, r1
 3145 0008 0446     		mov	r4, r0
 3146 000a 90F83D30 		ldrb	r3, [r0, #61]	@ zero_extendqisi2
 3147 000e 002B     		cmp	r3, #0
 3148 0010 41D0     		beq	.L389
 3149              	.L383:
 3150 0012 0223     		movs	r3, #2
 3151 0014 84F83D30 		strb	r3, [r4, #61]
 3152 0018 2268     		ldr	r2, [r4]
 3153 001a 9168     		ldr	r1, [r2, #8]
 3154 001c 214B     		ldr	r3, .L390
 3155 001e 0B40     		ands	r3, r3, r1
 3156 0020 9360     		str	r3, [r2, #8]
 3157 0022 2146     		mov	r1, r4
 3158 0024 51F8040B 		ldr	r0, [r1], #4
 3159 0028 FFF7FEFF 		bl	TIM_Base_SetConfig
 3160 002c 2168     		ldr	r1, [r4]
 3161 002e 8A68     		ldr	r2, [r1, #8]
 3162 0030 8B69     		ldr	r3, [r1, #24]
 3163 0032 0E6A     		ldr	r6, [r1, #32]
 3164 0034 2868     		ldr	r0, [r5]
 3165 0036 1043     		orrs	r0, r0, r2
 3166 0038 1B4A     		ldr	r2, .L390+4
 3167 003a 1A40     		ands	r2, r2, r3
 3168 003c AB68     		ldr	r3, [r5, #8]
 3169 003e AF69     		ldr	r7, [r5, #24]
 3170 0040 43EA0723 		orr	r3, r3, r7, lsl #8
 3171 0044 1343     		orrs	r3, r3, r2
 3172 0046 194A     		ldr	r2, .L390+8
 3173 0048 1A40     		ands	r2, r2, r3
 3174 004a EB68     		ldr	r3, [r5, #12]
 3175 004c EF69     		ldr	r7, [r5, #28]
 3176 004e 43EA0723 		orr	r3, r3, r7, lsl #8
 3177 0052 1A43     		orrs	r2, r2, r3
 3178 0054 2B6A     		ldr	r3, [r5, #32]
 3179 0056 1B03     		lsls	r3, r3, #12
 3180 0058 2F69     		ldr	r7, [r5, #16]
ARM GAS  /var/folders/0f/x4_g94q9649fs6s33cksjfb00000gn/T//ccmft7Jl.s 			page 54


 3181 005a 43EA0713 		orr	r3, r3, r7, lsl #4
 3182 005e 1343     		orrs	r3, r3, r2
 3183 0060 26F0AA06 		bic	r6, r6, #170
 3184 0064 6A68     		ldr	r2, [r5, #4]
 3185 0066 6D69     		ldr	r5, [r5, #20]
 3186 0068 42EA0512 		orr	r2, r2, r5, lsl #4
 3187 006c 3243     		orrs	r2, r2, r6
 3188 006e 8860     		str	r0, [r1, #8]
 3189 0070 2168     		ldr	r1, [r4]
 3190 0072 8B61     		str	r3, [r1, #24]
 3191 0074 2368     		ldr	r3, [r4]
 3192 0076 1A62     		str	r2, [r3, #32]
 3193 0078 0123     		movs	r3, #1
 3194 007a 84F84830 		strb	r3, [r4, #72]
 3195 007e 84F83E30 		strb	r3, [r4, #62]
 3196 0082 84F83F30 		strb	r3, [r4, #63]
 3197 0086 84F84430 		strb	r3, [r4, #68]
 3198 008a 84F84530 		strb	r3, [r4, #69]
 3199 008e 84F83D30 		strb	r3, [r4, #61]
 3200 0092 0020     		movs	r0, #0
 3201 0094 F8BD     		pop	{r3, r4, r5, r6, r7, pc}
 3202              	.L389:
 3203 0096 80F83C30 		strb	r3, [r0, #60]
 3204 009a FFF7FEFF 		bl	HAL_TIM_Encoder_MspInit
 3205 009e B8E7     		b	.L383
 3206              	.L384:
 3207 00a0 0120     		movs	r0, #1
 3208 00a2 7047     		bx	lr
 3209              	.L391:
 3210              		.align	2
 3211              	.L390:
 3212 00a4 F8BFFEFF 		.word	-81928
 3213 00a8 FCFCFFFF 		.word	-772
 3214 00ac 0303FFFF 		.word	-64765
 3216              		.section	.text.TIM_OC2_SetConfig,"ax",%progbits
 3217              		.align	1
 3218              		.global	TIM_OC2_SetConfig
 3219              		.syntax unified
 3220              		.thumb
 3221              		.thumb_func
 3223              	TIM_OC2_SetConfig:
 3224              		@ args = 0, pretend = 0, frame = 0
 3225              		@ frame_needed = 0, uses_anonymous_args = 0
 3226              		@ link register save eliminated.
 3227 0000 70B4     		push	{r4, r5, r6}
 3228 0002 036A     		ldr	r3, [r0, #32]
 3229 0004 026A     		ldr	r2, [r0, #32]
 3230 0006 22F01002 		bic	r2, r2, #16
 3231 000a 0262     		str	r2, [r0, #32]
 3232 000c 4268     		ldr	r2, [r0, #4]
 3233 000e 8569     		ldr	r5, [r0, #24]
 3234 0010 144C     		ldr	r4, .L396
 3235 0012 2C40     		ands	r4, r4, r5
 3236 0014 0D68     		ldr	r5, [r1]
 3237 0016 44EA0525 		orr	r5, r4, r5, lsl #8
 3238 001a 23F02003 		bic	r3, r3, #32
 3239 001e 8C68     		ldr	r4, [r1, #8]
ARM GAS  /var/folders/0f/x4_g94q9649fs6s33cksjfb00000gn/T//ccmft7Jl.s 			page 55


 3240 0020 43EA0413 		orr	r3, r3, r4, lsl #4
 3241 0024 104C     		ldr	r4, .L396+4
 3242 0026 114E     		ldr	r6, .L396+8
 3243 0028 B042     		cmp	r0, r6
 3244 002a 18BF     		it	ne
 3245 002c A042     		cmpne	r0, r4
 3246 002e 0CBF     		ite	eq
 3247 0030 0124     		moveq	r4, #1
 3248 0032 0024     		movne	r4, #0
 3249 0034 06D1     		bne	.L393
 3250 0036 23F08003 		bic	r3, r3, #128
 3251 003a CE68     		ldr	r6, [r1, #12]
 3252 003c 43EA0613 		orr	r3, r3, r6, lsl #4
 3253 0040 23F04003 		bic	r3, r3, #64
 3254              	.L393:
 3255 0044 3CB1     		cbz	r4, .L394
 3256 0046 22F44062 		bic	r2, r2, #3072
 3257 004a 4C69     		ldr	r4, [r1, #20]
 3258 004c 42EA8402 		orr	r2, r2, r4, lsl #2
 3259 0050 8C69     		ldr	r4, [r1, #24]
 3260 0052 42EA8402 		orr	r2, r2, r4, lsl #2
 3261              	.L394:
 3262 0056 4260     		str	r2, [r0, #4]
 3263 0058 8561     		str	r5, [r0, #24]
 3264 005a 4A68     		ldr	r2, [r1, #4]
 3265 005c 8263     		str	r2, [r0, #56]
 3266 005e 0362     		str	r3, [r0, #32]
 3267 0060 70BC     		pop	{r4, r5, r6}
 3268 0062 7047     		bx	lr
 3269              	.L397:
 3270              		.align	2
 3271              	.L396:
 3272 0064 FF8CFFFE 		.word	-16806657
 3273 0068 00000140 		.word	1073807360
 3274 006c 00040140 		.word	1073808384
 3276              		.section	.text.HAL_TIM_OC_ConfigChannel,"ax",%progbits
 3277              		.align	1
 3278              		.global	HAL_TIM_OC_ConfigChannel
 3279              		.syntax unified
 3280              		.thumb
 3281              		.thumb_func
 3283              	HAL_TIM_OC_ConfigChannel:
 3284              		@ args = 0, pretend = 0, frame = 0
 3285              		@ frame_needed = 0, uses_anonymous_args = 0
 3286 0000 90F83C30 		ldrb	r3, [r0, #60]	@ zero_extendqisi2
 3287 0004 012B     		cmp	r3, #1
 3288 0006 36D0     		beq	.L408
 3289 0008 10B5     		push	{r4, lr}
 3290 000a 0446     		mov	r4, r0
 3291 000c 0123     		movs	r3, #1
 3292 000e 80F83C30 		strb	r3, [r0, #60]
 3293 0012 142A     		cmp	r2, #20
 3294 0014 2AD8     		bhi	.L409
 3295 0016 DFE802F0 		tbb	[pc, r2]
 3296              	.L402:
 3297 001a 0B       		.byte	(.L407-.L402)/2
 3298 001b 29       		.byte	(.L409-.L402)/2
ARM GAS  /var/folders/0f/x4_g94q9649fs6s33cksjfb00000gn/T//ccmft7Jl.s 			page 56


 3299 001c 29       		.byte	(.L409-.L402)/2
 3300 001d 29       		.byte	(.L409-.L402)/2
 3301 001e 10       		.byte	(.L406-.L402)/2
 3302 001f 29       		.byte	(.L409-.L402)/2
 3303 0020 29       		.byte	(.L409-.L402)/2
 3304 0021 29       		.byte	(.L409-.L402)/2
 3305 0022 15       		.byte	(.L405-.L402)/2
 3306 0023 29       		.byte	(.L409-.L402)/2
 3307 0024 29       		.byte	(.L409-.L402)/2
 3308 0025 29       		.byte	(.L409-.L402)/2
 3309 0026 1A       		.byte	(.L404-.L402)/2
 3310 0027 29       		.byte	(.L409-.L402)/2
 3311 0028 29       		.byte	(.L409-.L402)/2
 3312 0029 29       		.byte	(.L409-.L402)/2
 3313 002a 1F       		.byte	(.L403-.L402)/2
 3314 002b 29       		.byte	(.L409-.L402)/2
 3315 002c 29       		.byte	(.L409-.L402)/2
 3316 002d 29       		.byte	(.L409-.L402)/2
 3317 002e 24       		.byte	(.L401-.L402)/2
 3318 002f 00       		.p2align 1
 3319              	.L407:
 3320 0030 0068     		ldr	r0, [r0]
 3321 0032 FFF7FEFF 		bl	TIM_OC1_SetConfig
 3322 0036 0020     		movs	r0, #0
 3323 0038 19E0     		b	.L400
 3324              	.L406:
 3325 003a 0068     		ldr	r0, [r0]
 3326 003c FFF7FEFF 		bl	TIM_OC2_SetConfig
 3327 0040 0020     		movs	r0, #0
 3328 0042 14E0     		b	.L400
 3329              	.L405:
 3330 0044 0068     		ldr	r0, [r0]
 3331 0046 FFF7FEFF 		bl	TIM_OC3_SetConfig
 3332 004a 0020     		movs	r0, #0
 3333 004c 0FE0     		b	.L400
 3334              	.L404:
 3335 004e 0068     		ldr	r0, [r0]
 3336 0050 FFF7FEFF 		bl	TIM_OC4_SetConfig
 3337 0054 0020     		movs	r0, #0
 3338 0056 0AE0     		b	.L400
 3339              	.L403:
 3340 0058 0068     		ldr	r0, [r0]
 3341 005a FFF7FEFF 		bl	TIM_OC5_SetConfig
 3342 005e 0020     		movs	r0, #0
 3343 0060 05E0     		b	.L400
 3344              	.L401:
 3345 0062 0068     		ldr	r0, [r0]
 3346 0064 FFF7FEFF 		bl	TIM_OC6_SetConfig
 3347 0068 0020     		movs	r0, #0
 3348 006a 00E0     		b	.L400
 3349              	.L409:
 3350 006c 0120     		movs	r0, #1
 3351              	.L400:
 3352 006e 0023     		movs	r3, #0
 3353 0070 84F83C30 		strb	r3, [r4, #60]
 3354 0074 10BD     		pop	{r4, pc}
 3355              	.L408:
ARM GAS  /var/folders/0f/x4_g94q9649fs6s33cksjfb00000gn/T//ccmft7Jl.s 			page 57


 3356 0076 0220     		movs	r0, #2
 3357 0078 7047     		bx	lr
 3359              		.section	.text.HAL_TIM_PWM_ConfigChannel,"ax",%progbits
 3360              		.align	1
 3361              		.global	HAL_TIM_PWM_ConfigChannel
 3362              		.syntax unified
 3363              		.thumb
 3364              		.thumb_func
 3366              	HAL_TIM_PWM_ConfigChannel:
 3367              		@ args = 0, pretend = 0, frame = 0
 3368              		@ frame_needed = 0, uses_anonymous_args = 0
 3369 0000 38B5     		push	{r3, r4, r5, lr}
 3370 0002 90F83C30 		ldrb	r3, [r0, #60]	@ zero_extendqisi2
 3371 0006 012B     		cmp	r3, #1
 3372 0008 00F09580 		beq	.L424
 3373 000c 0446     		mov	r4, r0
 3374 000e 0D46     		mov	r5, r1
 3375 0010 0123     		movs	r3, #1
 3376 0012 80F83C30 		strb	r3, [r0, #60]
 3377 0016 142A     		cmp	r2, #20
 3378 0018 00F28880 		bhi	.L425
 3379 001c DFE802F0 		tbb	[pc, r2]
 3380              	.L418:
 3381 0020 0B       		.byte	(.L423-.L418)/2
 3382 0021 86       		.byte	(.L425-.L418)/2
 3383 0022 86       		.byte	(.L425-.L418)/2
 3384 0023 86       		.byte	(.L425-.L418)/2
 3385 0024 1F       		.byte	(.L422-.L418)/2
 3386 0025 86       		.byte	(.L425-.L418)/2
 3387 0026 86       		.byte	(.L425-.L418)/2
 3388 0027 86       		.byte	(.L425-.L418)/2
 3389 0028 34       		.byte	(.L421-.L418)/2
 3390 0029 86       		.byte	(.L425-.L418)/2
 3391 002a 86       		.byte	(.L425-.L418)/2
 3392 002b 86       		.byte	(.L425-.L418)/2
 3393 002c 48       		.byte	(.L420-.L418)/2
 3394 002d 86       		.byte	(.L425-.L418)/2
 3395 002e 86       		.byte	(.L425-.L418)/2
 3396 002f 86       		.byte	(.L425-.L418)/2
 3397 0030 5D       		.byte	(.L419-.L418)/2
 3398 0031 86       		.byte	(.L425-.L418)/2
 3399 0032 86       		.byte	(.L425-.L418)/2
 3400 0033 86       		.byte	(.L425-.L418)/2
 3401 0034 71       		.byte	(.L417-.L418)/2
 3402 0035 00       		.p2align 1
 3403              	.L423:
 3404 0036 0068     		ldr	r0, [r0]
 3405 0038 FFF7FEFF 		bl	TIM_OC1_SetConfig
 3406 003c 2268     		ldr	r2, [r4]
 3407 003e 9369     		ldr	r3, [r2, #24]
 3408 0040 43F00803 		orr	r3, r3, #8
 3409 0044 9361     		str	r3, [r2, #24]
 3410 0046 2268     		ldr	r2, [r4]
 3411 0048 9369     		ldr	r3, [r2, #24]
 3412 004a 23F00403 		bic	r3, r3, #4
 3413 004e 9361     		str	r3, [r2, #24]
 3414 0050 2268     		ldr	r2, [r4]
ARM GAS  /var/folders/0f/x4_g94q9649fs6s33cksjfb00000gn/T//ccmft7Jl.s 			page 58


 3415 0052 9369     		ldr	r3, [r2, #24]
 3416 0054 2969     		ldr	r1, [r5, #16]
 3417 0056 0B43     		orrs	r3, r3, r1
 3418 0058 9361     		str	r3, [r2, #24]
 3419 005a 0020     		movs	r0, #0
 3420 005c 67E0     		b	.L416
 3421              	.L422:
 3422 005e 0068     		ldr	r0, [r0]
 3423 0060 FFF7FEFF 		bl	TIM_OC2_SetConfig
 3424 0064 2268     		ldr	r2, [r4]
 3425 0066 9369     		ldr	r3, [r2, #24]
 3426 0068 43F40063 		orr	r3, r3, #2048
 3427 006c 9361     		str	r3, [r2, #24]
 3428 006e 2268     		ldr	r2, [r4]
 3429 0070 9369     		ldr	r3, [r2, #24]
 3430 0072 23F48063 		bic	r3, r3, #1024
 3431 0076 9361     		str	r3, [r2, #24]
 3432 0078 2268     		ldr	r2, [r4]
 3433 007a 9369     		ldr	r3, [r2, #24]
 3434 007c 2969     		ldr	r1, [r5, #16]
 3435 007e 43EA0123 		orr	r3, r3, r1, lsl #8
 3436 0082 9361     		str	r3, [r2, #24]
 3437 0084 0020     		movs	r0, #0
 3438 0086 52E0     		b	.L416
 3439              	.L421:
 3440 0088 0068     		ldr	r0, [r0]
 3441 008a FFF7FEFF 		bl	TIM_OC3_SetConfig
 3442 008e 2268     		ldr	r2, [r4]
 3443 0090 D369     		ldr	r3, [r2, #28]
 3444 0092 43F00803 		orr	r3, r3, #8
 3445 0096 D361     		str	r3, [r2, #28]
 3446 0098 2268     		ldr	r2, [r4]
 3447 009a D369     		ldr	r3, [r2, #28]
 3448 009c 23F00403 		bic	r3, r3, #4
 3449 00a0 D361     		str	r3, [r2, #28]
 3450 00a2 2268     		ldr	r2, [r4]
 3451 00a4 D369     		ldr	r3, [r2, #28]
 3452 00a6 2969     		ldr	r1, [r5, #16]
 3453 00a8 0B43     		orrs	r3, r3, r1
 3454 00aa D361     		str	r3, [r2, #28]
 3455 00ac 0020     		movs	r0, #0
 3456 00ae 3EE0     		b	.L416
 3457              	.L420:
 3458 00b0 0068     		ldr	r0, [r0]
 3459 00b2 FFF7FEFF 		bl	TIM_OC4_SetConfig
 3460 00b6 2268     		ldr	r2, [r4]
 3461 00b8 D369     		ldr	r3, [r2, #28]
 3462 00ba 43F40063 		orr	r3, r3, #2048
 3463 00be D361     		str	r3, [r2, #28]
 3464 00c0 2268     		ldr	r2, [r4]
 3465 00c2 D369     		ldr	r3, [r2, #28]
 3466 00c4 23F48063 		bic	r3, r3, #1024
 3467 00c8 D361     		str	r3, [r2, #28]
 3468 00ca 2268     		ldr	r2, [r4]
 3469 00cc D369     		ldr	r3, [r2, #28]
 3470 00ce 2969     		ldr	r1, [r5, #16]
 3471 00d0 43EA0123 		orr	r3, r3, r1, lsl #8
ARM GAS  /var/folders/0f/x4_g94q9649fs6s33cksjfb00000gn/T//ccmft7Jl.s 			page 59


 3472 00d4 D361     		str	r3, [r2, #28]
 3473 00d6 0020     		movs	r0, #0
 3474 00d8 29E0     		b	.L416
 3475              	.L419:
 3476 00da 0068     		ldr	r0, [r0]
 3477 00dc FFF7FEFF 		bl	TIM_OC5_SetConfig
 3478 00e0 2268     		ldr	r2, [r4]
 3479 00e2 536D     		ldr	r3, [r2, #84]
 3480 00e4 43F00803 		orr	r3, r3, #8
 3481 00e8 5365     		str	r3, [r2, #84]
 3482 00ea 2268     		ldr	r2, [r4]
 3483 00ec 536D     		ldr	r3, [r2, #84]
 3484 00ee 23F00403 		bic	r3, r3, #4
 3485 00f2 5365     		str	r3, [r2, #84]
 3486 00f4 2268     		ldr	r2, [r4]
 3487 00f6 536D     		ldr	r3, [r2, #84]
 3488 00f8 2969     		ldr	r1, [r5, #16]
 3489 00fa 0B43     		orrs	r3, r3, r1
 3490 00fc 5365     		str	r3, [r2, #84]
 3491 00fe 0020     		movs	r0, #0
 3492 0100 15E0     		b	.L416
 3493              	.L417:
 3494 0102 0068     		ldr	r0, [r0]
 3495 0104 FFF7FEFF 		bl	TIM_OC6_SetConfig
 3496 0108 2268     		ldr	r2, [r4]
 3497 010a 536D     		ldr	r3, [r2, #84]
 3498 010c 43F40063 		orr	r3, r3, #2048
 3499 0110 5365     		str	r3, [r2, #84]
 3500 0112 2268     		ldr	r2, [r4]
 3501 0114 536D     		ldr	r3, [r2, #84]
 3502 0116 23F48063 		bic	r3, r3, #1024
 3503 011a 5365     		str	r3, [r2, #84]
 3504 011c 2268     		ldr	r2, [r4]
 3505 011e 536D     		ldr	r3, [r2, #84]
 3506 0120 2969     		ldr	r1, [r5, #16]
 3507 0122 43EA0123 		orr	r3, r3, r1, lsl #8
 3508 0126 5365     		str	r3, [r2, #84]
 3509 0128 0020     		movs	r0, #0
 3510 012a 00E0     		b	.L416
 3511              	.L425:
 3512 012c 0120     		movs	r0, #1
 3513              	.L416:
 3514 012e 0023     		movs	r3, #0
 3515 0130 84F83C30 		strb	r3, [r4, #60]
 3516              	.L415:
 3517 0134 38BD     		pop	{r3, r4, r5, pc}
 3518              	.L424:
 3519 0136 0220     		movs	r0, #2
 3520 0138 FCE7     		b	.L415
 3522              		.section	.text.TIM_TI1_SetConfig,"ax",%progbits
 3523              		.align	1
 3524              		.global	TIM_TI1_SetConfig
 3525              		.syntax unified
 3526              		.thumb
 3527              		.thumb_func
 3529              	TIM_TI1_SetConfig:
 3530              		@ args = 0, pretend = 0, frame = 0
ARM GAS  /var/folders/0f/x4_g94q9649fs6s33cksjfb00000gn/T//ccmft7Jl.s 			page 60


 3531              		@ frame_needed = 0, uses_anonymous_args = 0
 3532              		@ link register save eliminated.
 3533 0000 70B4     		push	{r4, r5, r6}
 3534 0002 9446     		mov	ip, r2
 3535 0004 066A     		ldr	r6, [r0, #32]
 3536 0006 046A     		ldr	r4, [r0, #32]
 3537 0008 24F00104 		bic	r4, r4, #1
 3538 000c 0462     		str	r4, [r0, #32]
 3539 000e 8469     		ldr	r4, [r0, #24]
 3540 0010 1D4D     		ldr	r5, .L431
 3541 0012 B0F1804F 		cmp	r0, #1073741824
 3542 0016 18BF     		it	ne
 3543 0018 A842     		cmpne	r0, r5
 3544 001a 23D0     		beq	.L428
 3545 001c 1B4A     		ldr	r2, .L431+4
 3546 001e 9042     		cmp	r0, r2
 3547 0020 14BF     		ite	ne
 3548 0022 0022     		movne	r2, #0
 3549 0024 0122     		moveq	r2, #1
 3550 0026 A5F57C45 		sub	r5, r5, #64512
 3551 002a A842     		cmp	r0, r5
 3552 002c 1AD0     		beq	.L428
 3553 002e CAB9     		cbnz	r2, .L428
 3554 0030 02F18042 		add	r2, r2, #1073741824
 3555 0034 02F58232 		add	r2, r2, #66560
 3556 0038 9042     		cmp	r0, r2
 3557 003a 14BF     		ite	ne
 3558 003c 0022     		movne	r2, #0
 3559 003e 0122     		moveq	r2, #1
 3560 0040 05F50065 		add	r5, r5, #2048
 3561 0044 A842     		cmp	r0, r5
 3562 0046 0DD0     		beq	.L428
 3563 0048 62B9     		cbnz	r2, .L428
 3564 004a 114A     		ldr	r2, .L431+8
 3565 004c 9042     		cmp	r0, r2
 3566 004e 14BF     		ite	ne
 3567 0050 0022     		movne	r2, #0
 3568 0052 0122     		moveq	r2, #1
 3569 0054 05F59A35 		add	r5, r5, #78848
 3570 0058 A842     		cmp	r0, r5
 3571 005a 03D0     		beq	.L428
 3572 005c 12B9     		cbnz	r2, .L428
 3573 005e 44F00102 		orr	r2, r4, #1
 3574 0062 03E0     		b	.L429
 3575              	.L428:
 3576 0064 24F00302 		bic	r2, r4, #3
 3577 0068 42EA0C02 		orr	r2, r2, ip
 3578              	.L429:
 3579 006c 22F0F002 		bic	r2, r2, #240
 3580 0070 1B01     		lsls	r3, r3, #4
 3581 0072 DBB2     		uxtb	r3, r3
 3582 0074 1343     		orrs	r3, r3, r2
 3583 0076 26F00A02 		bic	r2, r6, #10
 3584 007a 01F00A01 		and	r1, r1, #10
 3585 007e 1143     		orrs	r1, r1, r2
 3586 0080 8361     		str	r3, [r0, #24]
 3587 0082 0162     		str	r1, [r0, #32]
ARM GAS  /var/folders/0f/x4_g94q9649fs6s33cksjfb00000gn/T//ccmft7Jl.s 			page 61


 3588 0084 70BC     		pop	{r4, r5, r6}
 3589 0086 7047     		bx	lr
 3590              	.L432:
 3591              		.align	2
 3592              	.L431:
 3593 0088 00000140 		.word	1073807360
 3594 008c 00080040 		.word	1073743872
 3595 0090 00180040 		.word	1073747968
 3597              		.section	.text.HAL_TIM_IC_ConfigChannel,"ax",%progbits
 3598              		.align	1
 3599              		.global	HAL_TIM_IC_ConfigChannel
 3600              		.syntax unified
 3601              		.thumb
 3602              		.thumb_func
 3604              	HAL_TIM_IC_ConfigChannel:
 3605              		@ args = 0, pretend = 0, frame = 0
 3606              		@ frame_needed = 0, uses_anonymous_args = 0
 3607 0000 38B5     		push	{r3, r4, r5, lr}
 3608 0002 90F83C30 		ldrb	r3, [r0, #60]	@ zero_extendqisi2
 3609 0006 012B     		cmp	r3, #1
 3610 0008 5ED0     		beq	.L441
 3611 000a 0446     		mov	r4, r0
 3612 000c 0D46     		mov	r5, r1
 3613 000e 0123     		movs	r3, #1
 3614 0010 80F83C30 		strb	r3, [r0, #60]
 3615 0014 0C2A     		cmp	r2, #12
 3616 0016 52D8     		bhi	.L442
 3617 0018 DFE802F0 		tbb	[pc, r2]
 3618              	.L437:
 3619 001c 07       		.byte	(.L440-.L437)/2
 3620 001d 51       		.byte	(.L442-.L437)/2
 3621 001e 51       		.byte	(.L442-.L437)/2
 3622 001f 51       		.byte	(.L442-.L437)/2
 3623 0020 19       		.byte	(.L439-.L437)/2
 3624 0021 51       		.byte	(.L442-.L437)/2
 3625 0022 51       		.byte	(.L442-.L437)/2
 3626 0023 51       		.byte	(.L442-.L437)/2
 3627 0024 2C       		.byte	(.L438-.L437)/2
 3628 0025 51       		.byte	(.L442-.L437)/2
 3629 0026 51       		.byte	(.L442-.L437)/2
 3630 0027 51       		.byte	(.L442-.L437)/2
 3631 0028 3E       		.byte	(.L436-.L437)/2
 3632 0029 00       		.p2align 1
 3633              	.L440:
 3634 002a CB68     		ldr	r3, [r1, #12]
 3635 002c 4A68     		ldr	r2, [r1, #4]
 3636 002e 0968     		ldr	r1, [r1]
 3637 0030 0068     		ldr	r0, [r0]
 3638 0032 FFF7FEFF 		bl	TIM_TI1_SetConfig
 3639 0036 2268     		ldr	r2, [r4]
 3640 0038 9369     		ldr	r3, [r2, #24]
 3641 003a 23F00C03 		bic	r3, r3, #12
 3642 003e 9361     		str	r3, [r2, #24]
 3643 0040 2268     		ldr	r2, [r4]
 3644 0042 9369     		ldr	r3, [r2, #24]
 3645 0044 A968     		ldr	r1, [r5, #8]
 3646 0046 0B43     		orrs	r3, r3, r1
ARM GAS  /var/folders/0f/x4_g94q9649fs6s33cksjfb00000gn/T//ccmft7Jl.s 			page 62


 3647 0048 9361     		str	r3, [r2, #24]
 3648 004a 0020     		movs	r0, #0
 3649 004c 38E0     		b	.L435
 3650              	.L439:
 3651 004e CB68     		ldr	r3, [r1, #12]
 3652 0050 4A68     		ldr	r2, [r1, #4]
 3653 0052 0968     		ldr	r1, [r1]
 3654 0054 0068     		ldr	r0, [r0]
 3655 0056 FFF7FEFF 		bl	TIM_TI2_SetConfig
 3656 005a 2268     		ldr	r2, [r4]
 3657 005c 9369     		ldr	r3, [r2, #24]
 3658 005e 23F44063 		bic	r3, r3, #3072
 3659 0062 9361     		str	r3, [r2, #24]
 3660 0064 2268     		ldr	r2, [r4]
 3661 0066 9369     		ldr	r3, [r2, #24]
 3662 0068 A968     		ldr	r1, [r5, #8]
 3663 006a 43EA0123 		orr	r3, r3, r1, lsl #8
 3664 006e 9361     		str	r3, [r2, #24]
 3665 0070 0020     		movs	r0, #0
 3666 0072 25E0     		b	.L435
 3667              	.L438:
 3668 0074 CB68     		ldr	r3, [r1, #12]
 3669 0076 4A68     		ldr	r2, [r1, #4]
 3670 0078 0968     		ldr	r1, [r1]
 3671 007a 0068     		ldr	r0, [r0]
 3672 007c FFF7FEFF 		bl	TIM_TI3_SetConfig
 3673 0080 2268     		ldr	r2, [r4]
 3674 0082 D369     		ldr	r3, [r2, #28]
 3675 0084 23F00C03 		bic	r3, r3, #12
 3676 0088 D361     		str	r3, [r2, #28]
 3677 008a 2268     		ldr	r2, [r4]
 3678 008c D369     		ldr	r3, [r2, #28]
 3679 008e A968     		ldr	r1, [r5, #8]
 3680 0090 0B43     		orrs	r3, r3, r1
 3681 0092 D361     		str	r3, [r2, #28]
 3682 0094 0020     		movs	r0, #0
 3683 0096 13E0     		b	.L435
 3684              	.L436:
 3685 0098 CB68     		ldr	r3, [r1, #12]
 3686 009a 4A68     		ldr	r2, [r1, #4]
 3687 009c 0968     		ldr	r1, [r1]
 3688 009e 0068     		ldr	r0, [r0]
 3689 00a0 FFF7FEFF 		bl	TIM_TI4_SetConfig
 3690 00a4 2268     		ldr	r2, [r4]
 3691 00a6 D369     		ldr	r3, [r2, #28]
 3692 00a8 23F44063 		bic	r3, r3, #3072
 3693 00ac D361     		str	r3, [r2, #28]
 3694 00ae 2268     		ldr	r2, [r4]
 3695 00b0 D369     		ldr	r3, [r2, #28]
 3696 00b2 A968     		ldr	r1, [r5, #8]
 3697 00b4 43EA0123 		orr	r3, r3, r1, lsl #8
 3698 00b8 D361     		str	r3, [r2, #28]
 3699 00ba 0020     		movs	r0, #0
 3700 00bc 00E0     		b	.L435
 3701              	.L442:
 3702 00be 0120     		movs	r0, #1
 3703              	.L435:
ARM GAS  /var/folders/0f/x4_g94q9649fs6s33cksjfb00000gn/T//ccmft7Jl.s 			page 63


 3704 00c0 0023     		movs	r3, #0
 3705 00c2 84F83C30 		strb	r3, [r4, #60]
 3706              	.L434:
 3707 00c6 38BD     		pop	{r3, r4, r5, pc}
 3708              	.L441:
 3709 00c8 0220     		movs	r0, #2
 3710 00ca FCE7     		b	.L434
 3712              		.section	.text.HAL_TIM_OnePulse_ConfigChannel,"ax",%progbits
 3713              		.align	1
 3714              		.global	HAL_TIM_OnePulse_ConfigChannel
 3715              		.syntax unified
 3716              		.thumb
 3717              		.thumb_func
 3719              	HAL_TIM_OnePulse_ConfigChannel:
 3720              		@ args = 0, pretend = 0, frame = 32
 3721              		@ frame_needed = 0, uses_anonymous_args = 0
 3722 0000 9A42     		cmp	r2, r3
 3723 0002 76D0     		beq	.L452
 3724 0004 70B5     		push	{r4, r5, r6, lr}
 3725 0006 88B0     		sub	sp, sp, #32
 3726 0008 0446     		mov	r4, r0
 3727 000a 0D46     		mov	r5, r1
 3728 000c 1E46     		mov	r6, r3
 3729 000e 90F83C30 		ldrb	r3, [r0, #60]	@ zero_extendqisi2
 3730 0012 012B     		cmp	r3, #1
 3731 0014 6FD0     		beq	.L453
 3732 0016 0123     		movs	r3, #1
 3733 0018 80F83C30 		strb	r3, [r0, #60]
 3734 001c 0223     		movs	r3, #2
 3735 001e 80F83D30 		strb	r3, [r0, #61]
 3736 0022 0B68     		ldr	r3, [r1]
 3737 0024 0193     		str	r3, [sp, #4]
 3738 0026 4B68     		ldr	r3, [r1, #4]
 3739 0028 0293     		str	r3, [sp, #8]
 3740 002a 8B68     		ldr	r3, [r1, #8]
 3741 002c 0393     		str	r3, [sp, #12]
 3742 002e CB68     		ldr	r3, [r1, #12]
 3743 0030 0493     		str	r3, [sp, #16]
 3744 0032 0B69     		ldr	r3, [r1, #16]
 3745 0034 0693     		str	r3, [sp, #24]
 3746 0036 4B69     		ldr	r3, [r1, #20]
 3747 0038 0793     		str	r3, [sp, #28]
 3748 003a 52B1     		cbz	r2, .L446
 3749 003c 042A     		cmp	r2, #4
 3750 003e 11D0     		beq	.L447
 3751 0040 0120     		movs	r0, #1
 3752              	.L448:
 3753 0042 0123     		movs	r3, #1
 3754 0044 84F83D30 		strb	r3, [r4, #61]
 3755 0048 0023     		movs	r3, #0
 3756 004a 84F83C30 		strb	r3, [r4, #60]
 3757              	.L445:
 3758 004e 08B0     		add	sp, sp, #32
 3759              		@ sp needed
 3760 0050 70BD     		pop	{r4, r5, r6, pc}
 3761              	.L446:
 3762 0052 01A9     		add	r1, sp, #4
ARM GAS  /var/folders/0f/x4_g94q9649fs6s33cksjfb00000gn/T//ccmft7Jl.s 			page 64


 3763 0054 0068     		ldr	r0, [r0]
 3764 0056 FFF7FEFF 		bl	TIM_OC1_SetConfig
 3765              	.L449:
 3766 005a 46B1     		cbz	r6, .L450
 3767 005c 042E     		cmp	r6, #4
 3768 005e 27D0     		beq	.L451
 3769 0060 0120     		movs	r0, #1
 3770 0062 EEE7     		b	.L448
 3771              	.L447:
 3772 0064 01A9     		add	r1, sp, #4
 3773 0066 0068     		ldr	r0, [r0]
 3774 0068 FFF7FEFF 		bl	TIM_OC2_SetConfig
 3775 006c F5E7     		b	.L449
 3776              	.L450:
 3777 006e 2B6A     		ldr	r3, [r5, #32]
 3778 0070 EA69     		ldr	r2, [r5, #28]
 3779 0072 A969     		ldr	r1, [r5, #24]
 3780 0074 2068     		ldr	r0, [r4]
 3781 0076 FFF7FEFF 		bl	TIM_TI1_SetConfig
 3782 007a 2268     		ldr	r2, [r4]
 3783 007c 9369     		ldr	r3, [r2, #24]
 3784 007e 23F00C03 		bic	r3, r3, #12
 3785 0082 9361     		str	r3, [r2, #24]
 3786 0084 2268     		ldr	r2, [r4]
 3787 0086 9368     		ldr	r3, [r2, #8]
 3788 0088 23F07003 		bic	r3, r3, #112
 3789 008c 9360     		str	r3, [r2, #8]
 3790 008e 2268     		ldr	r2, [r4]
 3791 0090 9368     		ldr	r3, [r2, #8]
 3792 0092 43F05003 		orr	r3, r3, #80
 3793 0096 9360     		str	r3, [r2, #8]
 3794 0098 2268     		ldr	r2, [r4]
 3795 009a 9168     		ldr	r1, [r2, #8]
 3796 009c 174B     		ldr	r3, .L458
 3797 009e 0B40     		ands	r3, r3, r1
 3798 00a0 9360     		str	r3, [r2, #8]
 3799 00a2 2268     		ldr	r2, [r4]
 3800 00a4 9368     		ldr	r3, [r2, #8]
 3801 00a6 43F00603 		orr	r3, r3, #6
 3802 00aa 9360     		str	r3, [r2, #8]
 3803 00ac 0020     		movs	r0, #0
 3804 00ae C8E7     		b	.L448
 3805              	.L451:
 3806 00b0 2B6A     		ldr	r3, [r5, #32]
 3807 00b2 EA69     		ldr	r2, [r5, #28]
 3808 00b4 A969     		ldr	r1, [r5, #24]
 3809 00b6 2068     		ldr	r0, [r4]
 3810 00b8 FFF7FEFF 		bl	TIM_TI2_SetConfig
 3811 00bc 2268     		ldr	r2, [r4]
 3812 00be 9369     		ldr	r3, [r2, #24]
 3813 00c0 23F44063 		bic	r3, r3, #3072
 3814 00c4 9361     		str	r3, [r2, #24]
 3815 00c6 2268     		ldr	r2, [r4]
 3816 00c8 9368     		ldr	r3, [r2, #8]
 3817 00ca 23F07003 		bic	r3, r3, #112
 3818 00ce 9360     		str	r3, [r2, #8]
 3819 00d0 2268     		ldr	r2, [r4]
ARM GAS  /var/folders/0f/x4_g94q9649fs6s33cksjfb00000gn/T//ccmft7Jl.s 			page 65


 3820 00d2 9368     		ldr	r3, [r2, #8]
 3821 00d4 43F06003 		orr	r3, r3, #96
 3822 00d8 9360     		str	r3, [r2, #8]
 3823 00da 2268     		ldr	r2, [r4]
 3824 00dc 9168     		ldr	r1, [r2, #8]
 3825 00de 074B     		ldr	r3, .L458
 3826 00e0 0B40     		ands	r3, r3, r1
 3827 00e2 9360     		str	r3, [r2, #8]
 3828 00e4 2268     		ldr	r2, [r4]
 3829 00e6 9368     		ldr	r3, [r2, #8]
 3830 00e8 43F00603 		orr	r3, r3, #6
 3831 00ec 9360     		str	r3, [r2, #8]
 3832 00ee 0020     		movs	r0, #0
 3833 00f0 A7E7     		b	.L448
 3834              	.L452:
 3835 00f2 0120     		movs	r0, #1
 3836 00f4 7047     		bx	lr
 3837              	.L453:
 3838 00f6 0220     		movs	r0, #2
 3839 00f8 A9E7     		b	.L445
 3840              	.L459:
 3841 00fa 00BF     		.align	2
 3842              	.L458:
 3843 00fc F8FFFEFF 		.word	-65544
 3845              		.section	.text.TIM_ETR_SetConfig,"ax",%progbits
 3846              		.align	1
 3847              		.global	TIM_ETR_SetConfig
 3848              		.syntax unified
 3849              		.thumb
 3850              		.thumb_func
 3852              	TIM_ETR_SetConfig:
 3853              		@ args = 0, pretend = 0, frame = 0
 3854              		@ frame_needed = 0, uses_anonymous_args = 0
 3855              		@ link register save eliminated.
 3856 0000 10B4     		push	{r4}
 3857 0002 8468     		ldr	r4, [r0, #8]
 3858 0004 24F47F4C 		bic	ip, r4, #65280
 3859 0008 42EA0322 		orr	r2, r2, r3, lsl #8
 3860 000c 0A43     		orrs	r2, r2, r1
 3861 000e 42EA0C02 		orr	r2, r2, ip
 3862 0012 8260     		str	r2, [r0, #8]
 3863 0014 5DF8044B 		ldr	r4, [sp], #4
 3864 0018 7047     		bx	lr
 3866              		.section	.text.HAL_TIM_ConfigOCrefClear,"ax",%progbits
 3867              		.align	1
 3868              		.global	HAL_TIM_ConfigOCrefClear
 3869              		.syntax unified
 3870              		.thumb
 3871              		.thumb_func
 3873              	HAL_TIM_ConfigOCrefClear:
 3874              		@ args = 0, pretend = 0, frame = 0
 3875              		@ frame_needed = 0, uses_anonymous_args = 0
 3876 0000 90F83C30 		ldrb	r3, [r0, #60]	@ zero_extendqisi2
 3877 0004 012B     		cmp	r3, #1
 3878 0006 00F09B80 		beq	.L482
 3879 000a 70B5     		push	{r4, r5, r6, lr}
 3880 000c 0446     		mov	r4, r0
ARM GAS  /var/folders/0f/x4_g94q9649fs6s33cksjfb00000gn/T//ccmft7Jl.s 			page 66


 3881 000e 0D46     		mov	r5, r1
 3882 0010 1646     		mov	r6, r2
 3883 0012 0123     		movs	r3, #1
 3884 0014 80F83C30 		strb	r3, [r0, #60]
 3885 0018 0223     		movs	r3, #2
 3886 001a 80F83D30 		strb	r3, [r0, #61]
 3887 001e 4B68     		ldr	r3, [r1, #4]
 3888 0020 4BB1     		cbz	r3, .L464
 3889 0022 012B     		cmp	r3, #1
 3890 0024 1BD0     		beq	.L465
 3891 0026 0120     		movs	r0, #1
 3892              	.L466:
 3893 0028 0123     		movs	r3, #1
 3894 002a 84F83D30 		strb	r3, [r4, #61]
 3895 002e 0023     		movs	r3, #0
 3896 0030 84F83C30 		strb	r3, [r4, #60]
 3897              	.L463:
 3898 0034 70BD     		pop	{r4, r5, r6, pc}
 3899              	.L464:
 3900 0036 0268     		ldr	r2, [r0]
 3901 0038 9368     		ldr	r3, [r2, #8]
 3902 003a 23F47F43 		bic	r3, r3, #65280
 3903 003e 9360     		str	r3, [r2, #8]
 3904              	.L467:
 3905 0040 142E     		cmp	r6, #20
 3906 0042 7BD8     		bhi	.L483
 3907 0044 DFE806F0 		tbb	[pc, r6]
 3908              	.L470:
 3909 0048 1A       		.byte	(.L475-.L470)/2
 3910 0049 7A       		.byte	(.L483-.L470)/2
 3911 004a 7A       		.byte	(.L483-.L470)/2
 3912 004b 7A       		.byte	(.L483-.L470)/2
 3913 004c 2A       		.byte	(.L474-.L470)/2
 3914 004d 7A       		.byte	(.L483-.L470)/2
 3915 004e 7A       		.byte	(.L483-.L470)/2
 3916 004f 7A       		.byte	(.L483-.L470)/2
 3917 0050 3A       		.byte	(.L473-.L470)/2
 3918 0051 7A       		.byte	(.L483-.L470)/2
 3919 0052 7A       		.byte	(.L483-.L470)/2
 3920 0053 7A       		.byte	(.L483-.L470)/2
 3921 0054 4A       		.byte	(.L472-.L470)/2
 3922 0055 7A       		.byte	(.L483-.L470)/2
 3923 0056 7A       		.byte	(.L483-.L470)/2
 3924 0057 7A       		.byte	(.L483-.L470)/2
 3925 0058 5A       		.byte	(.L471-.L470)/2
 3926 0059 7A       		.byte	(.L483-.L470)/2
 3927 005a 7A       		.byte	(.L483-.L470)/2
 3928 005b 7A       		.byte	(.L483-.L470)/2
 3929 005c 6A       		.byte	(.L469-.L470)/2
 3930 005d 00       		.p2align 1
 3931              	.L465:
 3932 005e C968     		ldr	r1, [r1, #12]
 3933 0060 31B1     		cbz	r1, .L468
 3934 0062 0120     		movs	r0, #1
 3935 0064 84F83D00 		strb	r0, [r4, #61]
 3936 0068 0023     		movs	r3, #0
 3937 006a 84F83C30 		strb	r3, [r4, #60]
ARM GAS  /var/folders/0f/x4_g94q9649fs6s33cksjfb00000gn/T//ccmft7Jl.s 			page 67


 3938 006e E1E7     		b	.L463
 3939              	.L468:
 3940 0070 2B69     		ldr	r3, [r5, #16]
 3941 0072 AA68     		ldr	r2, [r5, #8]
 3942 0074 0068     		ldr	r0, [r0]
 3943 0076 FFF7FEFF 		bl	TIM_ETR_SetConfig
 3944 007a E1E7     		b	.L467
 3945              	.L475:
 3946 007c 2B68     		ldr	r3, [r5]
 3947 007e 33B1     		cbz	r3, .L476
 3948 0080 2268     		ldr	r2, [r4]
 3949 0082 9369     		ldr	r3, [r2, #24]
 3950 0084 43F08003 		orr	r3, r3, #128
 3951 0088 9361     		str	r3, [r2, #24]
 3952 008a 0020     		movs	r0, #0
 3953 008c CCE7     		b	.L466
 3954              	.L476:
 3955 008e 2268     		ldr	r2, [r4]
 3956 0090 9369     		ldr	r3, [r2, #24]
 3957 0092 23F08003 		bic	r3, r3, #128
 3958 0096 9361     		str	r3, [r2, #24]
 3959 0098 0020     		movs	r0, #0
 3960 009a C5E7     		b	.L466
 3961              	.L474:
 3962 009c 2B68     		ldr	r3, [r5]
 3963 009e 33B1     		cbz	r3, .L477
 3964 00a0 2268     		ldr	r2, [r4]
 3965 00a2 9369     		ldr	r3, [r2, #24]
 3966 00a4 43F40043 		orr	r3, r3, #32768
 3967 00a8 9361     		str	r3, [r2, #24]
 3968 00aa 0020     		movs	r0, #0
 3969 00ac BCE7     		b	.L466
 3970              	.L477:
 3971 00ae 2268     		ldr	r2, [r4]
 3972 00b0 9369     		ldr	r3, [r2, #24]
 3973 00b2 23F40043 		bic	r3, r3, #32768
 3974 00b6 9361     		str	r3, [r2, #24]
 3975 00b8 0020     		movs	r0, #0
 3976 00ba B5E7     		b	.L466
 3977              	.L473:
 3978 00bc 2B68     		ldr	r3, [r5]
 3979 00be 33B1     		cbz	r3, .L478
 3980 00c0 2268     		ldr	r2, [r4]
 3981 00c2 D369     		ldr	r3, [r2, #28]
 3982 00c4 43F08003 		orr	r3, r3, #128
 3983 00c8 D361     		str	r3, [r2, #28]
 3984 00ca 0020     		movs	r0, #0
 3985 00cc ACE7     		b	.L466
 3986              	.L478:
 3987 00ce 2268     		ldr	r2, [r4]
 3988 00d0 D369     		ldr	r3, [r2, #28]
 3989 00d2 23F08003 		bic	r3, r3, #128
 3990 00d6 D361     		str	r3, [r2, #28]
 3991 00d8 0020     		movs	r0, #0
 3992 00da A5E7     		b	.L466
 3993              	.L472:
 3994 00dc 2B68     		ldr	r3, [r5]
ARM GAS  /var/folders/0f/x4_g94q9649fs6s33cksjfb00000gn/T//ccmft7Jl.s 			page 68


 3995 00de 33B1     		cbz	r3, .L479
 3996 00e0 2268     		ldr	r2, [r4]
 3997 00e2 D369     		ldr	r3, [r2, #28]
 3998 00e4 43F40043 		orr	r3, r3, #32768
 3999 00e8 D361     		str	r3, [r2, #28]
 4000 00ea 0020     		movs	r0, #0
 4001 00ec 9CE7     		b	.L466
 4002              	.L479:
 4003 00ee 2268     		ldr	r2, [r4]
 4004 00f0 D369     		ldr	r3, [r2, #28]
 4005 00f2 23F40043 		bic	r3, r3, #32768
 4006 00f6 D361     		str	r3, [r2, #28]
 4007 00f8 0020     		movs	r0, #0
 4008 00fa 95E7     		b	.L466
 4009              	.L471:
 4010 00fc 2B68     		ldr	r3, [r5]
 4011 00fe 33B1     		cbz	r3, .L480
 4012 0100 2268     		ldr	r2, [r4]
 4013 0102 536D     		ldr	r3, [r2, #84]
 4014 0104 43F08003 		orr	r3, r3, #128
 4015 0108 5365     		str	r3, [r2, #84]
 4016 010a 0020     		movs	r0, #0
 4017 010c 8CE7     		b	.L466
 4018              	.L480:
 4019 010e 2268     		ldr	r2, [r4]
 4020 0110 536D     		ldr	r3, [r2, #84]
 4021 0112 23F08003 		bic	r3, r3, #128
 4022 0116 5365     		str	r3, [r2, #84]
 4023 0118 0020     		movs	r0, #0
 4024 011a 85E7     		b	.L466
 4025              	.L469:
 4026 011c 2B68     		ldr	r3, [r5]
 4027 011e 33B1     		cbz	r3, .L481
 4028 0120 2268     		ldr	r2, [r4]
 4029 0122 536D     		ldr	r3, [r2, #84]
 4030 0124 43F40043 		orr	r3, r3, #32768
 4031 0128 5365     		str	r3, [r2, #84]
 4032 012a 0020     		movs	r0, #0
 4033 012c 7CE7     		b	.L466
 4034              	.L481:
 4035 012e 2268     		ldr	r2, [r4]
 4036 0130 536D     		ldr	r3, [r2, #84]
 4037 0132 23F40043 		bic	r3, r3, #32768
 4038 0136 5365     		str	r3, [r2, #84]
 4039 0138 0020     		movs	r0, #0
 4040 013a 75E7     		b	.L466
 4041              	.L483:
 4042 013c 0020     		movs	r0, #0
 4043 013e 73E7     		b	.L466
 4044              	.L482:
 4045 0140 0220     		movs	r0, #2
 4046 0142 7047     		bx	lr
 4048              		.section	.text.HAL_TIM_ConfigClockSource,"ax",%progbits
 4049              		.align	1
 4050              		.global	HAL_TIM_ConfigClockSource
 4051              		.syntax unified
 4052              		.thumb
ARM GAS  /var/folders/0f/x4_g94q9649fs6s33cksjfb00000gn/T//ccmft7Jl.s 			page 69


 4053              		.thumb_func
 4055              	HAL_TIM_ConfigClockSource:
 4056              		@ args = 0, pretend = 0, frame = 0
 4057              		@ frame_needed = 0, uses_anonymous_args = 0
 4058 0000 90F83C30 		ldrb	r3, [r0, #60]	@ zero_extendqisi2
 4059 0004 012B     		cmp	r3, #1
 4060 0006 76D0     		beq	.L499
 4061 0008 10B5     		push	{r4, lr}
 4062 000a 0446     		mov	r4, r0
 4063 000c 0123     		movs	r3, #1
 4064 000e 80F83C30 		strb	r3, [r0, #60]
 4065 0012 0223     		movs	r3, #2
 4066 0014 80F83D30 		strb	r3, [r0, #61]
 4067 0018 0268     		ldr	r2, [r0]
 4068 001a 9068     		ldr	r0, [r2, #8]
 4069 001c 374B     		ldr	r3, .L508
 4070 001e 0340     		ands	r3, r3, r0
 4071 0020 9360     		str	r3, [r2, #8]
 4072 0022 0B68     		ldr	r3, [r1]
 4073 0024 602B     		cmp	r3, #96
 4074 0026 4CD0     		beq	.L490
 4075 0028 23D8     		bhi	.L491
 4076 002a 402B     		cmp	r3, #64
 4077 002c 54D0     		beq	.L492
 4078 002e 11D8     		bhi	.L493
 4079 0030 202B     		cmp	r3, #32
 4080 0032 03D0     		beq	.L494
 4081 0034 0AD8     		bhi	.L495
 4082 0036 0BB1     		cbz	r3, .L494
 4083 0038 102B     		cmp	r3, #16
 4084 003a 05D1     		bne	.L506
 4085              	.L494:
 4086 003c 1946     		mov	r1, r3
 4087 003e 2068     		ldr	r0, [r4]
 4088 0040 FFF7FEFF 		bl	TIM_ITRx_SetConfig
 4089 0044 0020     		movs	r0, #0
 4090 0046 28E0     		b	.L496
 4091              	.L506:
 4092 0048 0120     		movs	r0, #1
 4093 004a 26E0     		b	.L496
 4094              	.L495:
 4095 004c 302B     		cmp	r3, #48
 4096 004e F5D0     		beq	.L494
 4097 0050 0120     		movs	r0, #1
 4098 0052 22E0     		b	.L496
 4099              	.L493:
 4100 0054 502B     		cmp	r3, #80
 4101 0056 0AD1     		bne	.L507
 4102 0058 CA68     		ldr	r2, [r1, #12]
 4103 005a 4968     		ldr	r1, [r1, #4]
 4104 005c 2068     		ldr	r0, [r4]
 4105 005e FFF7FEFF 		bl	TIM_TI1_ConfigInputStage
 4106 0062 5021     		movs	r1, #80
 4107 0064 2068     		ldr	r0, [r4]
 4108 0066 FFF7FEFF 		bl	TIM_ITRx_SetConfig
 4109 006a 0020     		movs	r0, #0
 4110 006c 15E0     		b	.L496
ARM GAS  /var/folders/0f/x4_g94q9649fs6s33cksjfb00000gn/T//ccmft7Jl.s 			page 70


 4111              	.L507:
 4112 006e 0120     		movs	r0, #1
 4113 0070 13E0     		b	.L496
 4114              	.L491:
 4115 0072 B3F5805F 		cmp	r3, #4096
 4116 0076 3AD0     		beq	.L500
 4117 0078 B3F5005F 		cmp	r3, #8192
 4118 007c 14D0     		beq	.L498
 4119 007e 702B     		cmp	r3, #112
 4120 0080 37D1     		bne	.L501
 4121 0082 CB68     		ldr	r3, [r1, #12]
 4122 0084 4A68     		ldr	r2, [r1, #4]
 4123 0086 8968     		ldr	r1, [r1, #8]
 4124 0088 2068     		ldr	r0, [r4]
 4125 008a FFF7FEFF 		bl	TIM_ETR_SetConfig
 4126 008e 2268     		ldr	r2, [r4]
 4127 0090 9368     		ldr	r3, [r2, #8]
 4128 0092 43F07703 		orr	r3, r3, #119
 4129 0096 9360     		str	r3, [r2, #8]
 4130 0098 0020     		movs	r0, #0
 4131              	.L496:
 4132 009a 0123     		movs	r3, #1
 4133 009c 84F83D30 		strb	r3, [r4, #61]
 4134 00a0 0023     		movs	r3, #0
 4135 00a2 84F83C30 		strb	r3, [r4, #60]
 4136 00a6 10BD     		pop	{r4, pc}
 4137              	.L498:
 4138 00a8 CB68     		ldr	r3, [r1, #12]
 4139 00aa 4A68     		ldr	r2, [r1, #4]
 4140 00ac 8968     		ldr	r1, [r1, #8]
 4141 00ae 2068     		ldr	r0, [r4]
 4142 00b0 FFF7FEFF 		bl	TIM_ETR_SetConfig
 4143 00b4 2268     		ldr	r2, [r4]
 4144 00b6 9368     		ldr	r3, [r2, #8]
 4145 00b8 43F48043 		orr	r3, r3, #16384
 4146 00bc 9360     		str	r3, [r2, #8]
 4147 00be 0020     		movs	r0, #0
 4148 00c0 EBE7     		b	.L496
 4149              	.L490:
 4150 00c2 CA68     		ldr	r2, [r1, #12]
 4151 00c4 4968     		ldr	r1, [r1, #4]
 4152 00c6 2068     		ldr	r0, [r4]
 4153 00c8 FFF7FEFF 		bl	TIM_TI2_ConfigInputStage
 4154 00cc 6021     		movs	r1, #96
 4155 00ce 2068     		ldr	r0, [r4]
 4156 00d0 FFF7FEFF 		bl	TIM_ITRx_SetConfig
 4157 00d4 0020     		movs	r0, #0
 4158 00d6 E0E7     		b	.L496
 4159              	.L492:
 4160 00d8 CA68     		ldr	r2, [r1, #12]
 4161 00da 4968     		ldr	r1, [r1, #4]
 4162 00dc 2068     		ldr	r0, [r4]
 4163 00de FFF7FEFF 		bl	TIM_TI1_ConfigInputStage
 4164 00e2 4021     		movs	r1, #64
 4165 00e4 2068     		ldr	r0, [r4]
 4166 00e6 FFF7FEFF 		bl	TIM_ITRx_SetConfig
 4167 00ea 0020     		movs	r0, #0
ARM GAS  /var/folders/0f/x4_g94q9649fs6s33cksjfb00000gn/T//ccmft7Jl.s 			page 71


 4168 00ec D5E7     		b	.L496
 4169              	.L500:
 4170 00ee 0020     		movs	r0, #0
 4171 00f0 D3E7     		b	.L496
 4172              	.L501:
 4173 00f2 0120     		movs	r0, #1
 4174 00f4 D1E7     		b	.L496
 4175              	.L499:
 4176 00f6 0220     		movs	r0, #2
 4177 00f8 7047     		bx	lr
 4178              	.L509:
 4179 00fa 00BF     		.align	2
 4180              	.L508:
 4181 00fc 8800FEFF 		.word	-130936
 4183              		.section	.text.TIM_SlaveTimer_SetConfig,"ax",%progbits
 4184              		.align	1
 4185              		.syntax unified
 4186              		.thumb
 4187              		.thumb_func
 4189              	TIM_SlaveTimer_SetConfig:
 4190              		@ args = 0, pretend = 0, frame = 0
 4191              		@ frame_needed = 0, uses_anonymous_args = 0
 4192 0000 10B5     		push	{r4, lr}
 4193 0002 0468     		ldr	r4, [r0]
 4194 0004 A268     		ldr	r2, [r4, #8]
 4195 0006 22F07002 		bic	r2, r2, #112
 4196 000a 4B68     		ldr	r3, [r1, #4]
 4197 000c 1343     		orrs	r3, r3, r2
 4198 000e 2A4A     		ldr	r2, .L526
 4199 0010 1A40     		ands	r2, r2, r3
 4200 0012 0B68     		ldr	r3, [r1]
 4201 0014 1343     		orrs	r3, r3, r2
 4202 0016 A360     		str	r3, [r4, #8]
 4203 0018 4B68     		ldr	r3, [r1, #4]
 4204 001a 502B     		cmp	r3, #80
 4205 001c 30D0     		beq	.L511
 4206 001e 0BD9     		bls	.L525
 4207 0020 602B     		cmp	r3, #96
 4208 0022 34D0     		beq	.L516
 4209 0024 702B     		cmp	r3, #112
 4210 0026 43D1     		bne	.L522
 4211 0028 0B69     		ldr	r3, [r1, #16]
 4212 002a 8A68     		ldr	r2, [r1, #8]
 4213 002c C968     		ldr	r1, [r1, #12]
 4214 002e 0068     		ldr	r0, [r0]
 4215 0030 FFF7FEFF 		bl	TIM_ETR_SetConfig
 4216 0034 0020     		movs	r0, #0
 4217              	.L514:
 4218 0036 10BD     		pop	{r4, pc}
 4219              	.L525:
 4220 0038 402B     		cmp	r3, #64
 4221 003a 0CD0     		beq	.L513
 4222 003c 2ED8     		bhi	.L517
 4223 003e 202B     		cmp	r3, #32
 4224 0040 2ED0     		beq	.L518
 4225 0042 04D8     		bhi	.L515
 4226 0044 73B3     		cbz	r3, .L519
ARM GAS  /var/folders/0f/x4_g94q9649fs6s33cksjfb00000gn/T//ccmft7Jl.s 			page 72


 4227 0046 102B     		cmp	r3, #16
 4228 0048 2ED1     		bne	.L520
 4229 004a 0020     		movs	r0, #0
 4230 004c F3E7     		b	.L514
 4231              	.L515:
 4232 004e 302B     		cmp	r3, #48
 4233 0050 2CD1     		bne	.L521
 4234 0052 0020     		movs	r0, #0
 4235 0054 EFE7     		b	.L514
 4236              	.L513:
 4237 0056 0B68     		ldr	r3, [r1]
 4238 0058 052B     		cmp	r3, #5
 4239 005a 2BD0     		beq	.L523
 4240 005c 0368     		ldr	r3, [r0]
 4241 005e 1C6A     		ldr	r4, [r3, #32]
 4242 0060 1A6A     		ldr	r2, [r3, #32]
 4243 0062 22F00102 		bic	r2, r2, #1
 4244 0066 1A62     		str	r2, [r3, #32]
 4245 0068 0268     		ldr	r2, [r0]
 4246 006a 9369     		ldr	r3, [r2, #24]
 4247 006c 23F0F003 		bic	r3, r3, #240
 4248 0070 0969     		ldr	r1, [r1, #16]
 4249 0072 43EA0113 		orr	r3, r3, r1, lsl #4
 4250 0076 9361     		str	r3, [r2, #24]
 4251 0078 0368     		ldr	r3, [r0]
 4252 007a 1C62     		str	r4, [r3, #32]
 4253 007c 0020     		movs	r0, #0
 4254 007e DAE7     		b	.L514
 4255              	.L511:
 4256 0080 0A69     		ldr	r2, [r1, #16]
 4257 0082 8968     		ldr	r1, [r1, #8]
 4258 0084 0068     		ldr	r0, [r0]
 4259 0086 FFF7FEFF 		bl	TIM_TI1_ConfigInputStage
 4260 008a 0020     		movs	r0, #0
 4261 008c D3E7     		b	.L514
 4262              	.L516:
 4263 008e 0A69     		ldr	r2, [r1, #16]
 4264 0090 8968     		ldr	r1, [r1, #8]
 4265 0092 0068     		ldr	r0, [r0]
 4266 0094 FFF7FEFF 		bl	TIM_TI2_ConfigInputStage
 4267 0098 0020     		movs	r0, #0
 4268 009a CCE7     		b	.L514
 4269              	.L517:
 4270 009c 0120     		movs	r0, #1
 4271 009e CAE7     		b	.L514
 4272              	.L518:
 4273 00a0 0020     		movs	r0, #0
 4274 00a2 C8E7     		b	.L514
 4275              	.L519:
 4276 00a4 0020     		movs	r0, #0
 4277 00a6 C6E7     		b	.L514
 4278              	.L520:
 4279 00a8 0120     		movs	r0, #1
 4280 00aa C4E7     		b	.L514
 4281              	.L521:
 4282 00ac 0120     		movs	r0, #1
 4283 00ae C2E7     		b	.L514
ARM GAS  /var/folders/0f/x4_g94q9649fs6s33cksjfb00000gn/T//ccmft7Jl.s 			page 73


 4284              	.L522:
 4285 00b0 0120     		movs	r0, #1
 4286 00b2 C0E7     		b	.L514
 4287              	.L523:
 4288 00b4 0120     		movs	r0, #1
 4289 00b6 BEE7     		b	.L514
 4290              	.L527:
 4291              		.align	2
 4292              	.L526:
 4293 00b8 F8FFFEFF 		.word	-65544
 4295              		.section	.text.HAL_TIM_SlaveConfigSynchro,"ax",%progbits
 4296              		.align	1
 4297              		.global	HAL_TIM_SlaveConfigSynchro
 4298              		.syntax unified
 4299              		.thumb
 4300              		.thumb_func
 4302              	HAL_TIM_SlaveConfigSynchro:
 4303              		@ args = 0, pretend = 0, frame = 0
 4304              		@ frame_needed = 0, uses_anonymous_args = 0
 4305 0000 90F83C30 		ldrb	r3, [r0, #60]	@ zero_extendqisi2
 4306 0004 012B     		cmp	r3, #1
 4307 0006 22D0     		beq	.L531
 4308 0008 10B5     		push	{r4, lr}
 4309 000a 0446     		mov	r4, r0
 4310 000c 0123     		movs	r3, #1
 4311 000e 80F83C30 		strb	r3, [r0, #60]
 4312 0012 0223     		movs	r3, #2
 4313 0014 80F83D30 		strb	r3, [r0, #61]
 4314 0018 FFF7FEFF 		bl	TIM_SlaveTimer_SetConfig
 4315 001c 80B9     		cbnz	r0, .L536
 4316 001e 2268     		ldr	r2, [r4]
 4317 0020 D368     		ldr	r3, [r2, #12]
 4318 0022 23F04003 		bic	r3, r3, #64
 4319 0026 D360     		str	r3, [r2, #12]
 4320 0028 2268     		ldr	r2, [r4]
 4321 002a D368     		ldr	r3, [r2, #12]
 4322 002c 23F48043 		bic	r3, r3, #16384
 4323 0030 D360     		str	r3, [r2, #12]
 4324 0032 0123     		movs	r3, #1
 4325 0034 84F83D30 		strb	r3, [r4, #61]
 4326 0038 0023     		movs	r3, #0
 4327 003a 84F83C30 		strb	r3, [r4, #60]
 4328              	.L529:
 4329 003e 10BD     		pop	{r4, pc}
 4330              	.L536:
 4331 0040 0120     		movs	r0, #1
 4332 0042 84F83D00 		strb	r0, [r4, #61]
 4333 0046 0023     		movs	r3, #0
 4334 0048 84F83C30 		strb	r3, [r4, #60]
 4335 004c F7E7     		b	.L529
 4336              	.L531:
 4337 004e 0220     		movs	r0, #2
 4338 0050 7047     		bx	lr
 4340              		.section	.text.HAL_TIM_SlaveConfigSynchro_IT,"ax",%progbits
 4341              		.align	1
 4342              		.global	HAL_TIM_SlaveConfigSynchro_IT
 4343              		.syntax unified
ARM GAS  /var/folders/0f/x4_g94q9649fs6s33cksjfb00000gn/T//ccmft7Jl.s 			page 74


 4344              		.thumb
 4345              		.thumb_func
 4347              	HAL_TIM_SlaveConfigSynchro_IT:
 4348              		@ args = 0, pretend = 0, frame = 0
 4349              		@ frame_needed = 0, uses_anonymous_args = 0
 4350 0000 90F83C30 		ldrb	r3, [r0, #60]	@ zero_extendqisi2
 4351 0004 012B     		cmp	r3, #1
 4352 0006 22D0     		beq	.L540
 4353 0008 10B5     		push	{r4, lr}
 4354 000a 0446     		mov	r4, r0
 4355 000c 0123     		movs	r3, #1
 4356 000e 80F83C30 		strb	r3, [r0, #60]
 4357 0012 0223     		movs	r3, #2
 4358 0014 80F83D30 		strb	r3, [r0, #61]
 4359 0018 FFF7FEFF 		bl	TIM_SlaveTimer_SetConfig
 4360 001c 80B9     		cbnz	r0, .L545
 4361 001e 2268     		ldr	r2, [r4]
 4362 0020 D368     		ldr	r3, [r2, #12]
 4363 0022 43F04003 		orr	r3, r3, #64
 4364 0026 D360     		str	r3, [r2, #12]
 4365 0028 2268     		ldr	r2, [r4]
 4366 002a D368     		ldr	r3, [r2, #12]
 4367 002c 23F48043 		bic	r3, r3, #16384
 4368 0030 D360     		str	r3, [r2, #12]
 4369 0032 0123     		movs	r3, #1
 4370 0034 84F83D30 		strb	r3, [r4, #61]
 4371 0038 0023     		movs	r3, #0
 4372 003a 84F83C30 		strb	r3, [r4, #60]
 4373              	.L538:
 4374 003e 10BD     		pop	{r4, pc}
 4375              	.L545:
 4376 0040 0120     		movs	r0, #1
 4377 0042 84F83D00 		strb	r0, [r4, #61]
 4378 0046 0023     		movs	r3, #0
 4379 0048 84F83C30 		strb	r3, [r4, #60]
 4380 004c F7E7     		b	.L538
 4381              	.L540:
 4382 004e 0220     		movs	r0, #2
 4383 0050 7047     		bx	lr
 4385              		.section	.text.TIM_CCxChannelCmd,"ax",%progbits
 4386              		.align	1
 4387              		.global	TIM_CCxChannelCmd
 4388              		.syntax unified
 4389              		.thumb
 4390              		.thumb_func
 4392              	TIM_CCxChannelCmd:
 4393              		@ args = 0, pretend = 0, frame = 0
 4394              		@ frame_needed = 0, uses_anonymous_args = 0
 4395              		@ link register save eliminated.
 4396 0000 01F01F01 		and	r1, r1, #31
 4397 0004 4FF0010C 		mov	ip, #1
 4398 0008 0CFA01FC 		lsl	ip, ip, r1
 4399 000c 036A     		ldr	r3, [r0, #32]
 4400 000e 23EA0C03 		bic	r3, r3, ip
 4401 0012 0362     		str	r3, [r0, #32]
 4402 0014 036A     		ldr	r3, [r0, #32]
 4403 0016 8A40     		lsls	r2, r2, r1
ARM GAS  /var/folders/0f/x4_g94q9649fs6s33cksjfb00000gn/T//ccmft7Jl.s 			page 75


 4404 0018 1343     		orrs	r3, r3, r2
 4405 001a 0362     		str	r3, [r0, #32]
 4406 001c 7047     		bx	lr
 4408              		.section	.text.HAL_TIM_OC_Start,"ax",%progbits
 4409              		.align	1
 4410              		.global	HAL_TIM_OC_Start
 4411              		.syntax unified
 4412              		.thumb
 4413              		.thumb_func
 4415              	HAL_TIM_OC_Start:
 4416              		@ args = 0, pretend = 0, frame = 0
 4417              		@ frame_needed = 0, uses_anonymous_args = 0
 4418 0000 10B5     		push	{r4, lr}
 4419 0002 0446     		mov	r4, r0
 4420 0004 1029     		cmp	r1, #16
 4421 0006 28D8     		bhi	.L548
 4422 0008 DFE801F0 		tbb	[pc, r1]
 4423              	.L550:
 4424 000c 09       		.byte	(.L554-.L550)/2
 4425 000d 27       		.byte	(.L548-.L550)/2
 4426 000e 27       		.byte	(.L548-.L550)/2
 4427 000f 27       		.byte	(.L548-.L550)/2
 4428 0010 0F       		.byte	(.L553-.L550)/2
 4429 0011 27       		.byte	(.L548-.L550)/2
 4430 0012 27       		.byte	(.L548-.L550)/2
 4431 0013 27       		.byte	(.L548-.L550)/2
 4432 0014 15       		.byte	(.L552-.L550)/2
 4433 0015 27       		.byte	(.L548-.L550)/2
 4434 0016 27       		.byte	(.L548-.L550)/2
 4435 0017 27       		.byte	(.L548-.L550)/2
 4436 0018 1B       		.byte	(.L551-.L550)/2
 4437 0019 27       		.byte	(.L548-.L550)/2
 4438 001a 27       		.byte	(.L548-.L550)/2
 4439 001b 27       		.byte	(.L548-.L550)/2
 4440 001c 21       		.byte	(.L549-.L550)/2
 4441 001d 00       		.p2align 1
 4442              	.L554:
 4443 001e 90F83E30 		ldrb	r3, [r0, #62]	@ zero_extendqisi2
 4444 0022 013B     		subs	r3, r3, #1
 4445 0024 18BF     		it	ne
 4446 0026 0123     		movne	r3, #1
 4447 0028 1CE0     		b	.L555
 4448              	.L553:
 4449 002a 90F83F30 		ldrb	r3, [r0, #63]	@ zero_extendqisi2
 4450 002e 013B     		subs	r3, r3, #1
 4451 0030 18BF     		it	ne
 4452 0032 0123     		movne	r3, #1
 4453 0034 16E0     		b	.L555
 4454              	.L552:
 4455 0036 90F84030 		ldrb	r3, [r0, #64]	@ zero_extendqisi2
 4456 003a 013B     		subs	r3, r3, #1
 4457 003c 18BF     		it	ne
 4458 003e 0123     		movne	r3, #1
 4459 0040 10E0     		b	.L555
 4460              	.L551:
 4461 0042 90F84130 		ldrb	r3, [r0, #65]	@ zero_extendqisi2
 4462 0046 013B     		subs	r3, r3, #1
ARM GAS  /var/folders/0f/x4_g94q9649fs6s33cksjfb00000gn/T//ccmft7Jl.s 			page 76


 4463 0048 18BF     		it	ne
 4464 004a 0123     		movne	r3, #1
 4465 004c 0AE0     		b	.L555
 4466              	.L549:
 4467 004e 90F84230 		ldrb	r3, [r0, #66]	@ zero_extendqisi2
 4468 0052 013B     		subs	r3, r3, #1
 4469 0054 18BF     		it	ne
 4470 0056 0123     		movne	r3, #1
 4471 0058 04E0     		b	.L555
 4472              	.L548:
 4473 005a 90F84330 		ldrb	r3, [r0, #67]	@ zero_extendqisi2
 4474 005e 013B     		subs	r3, r3, #1
 4475 0060 18BF     		it	ne
 4476 0062 0123     		movne	r3, #1
 4477              	.L555:
 4478 0064 002B     		cmp	r3, #0
 4479 0066 65D1     		bne	.L568
 4480 0068 1029     		cmp	r1, #16
 4481 006a 1ED8     		bhi	.L557
 4482 006c DFE801F0 		tbb	[pc, r1]
 4483              	.L559:
 4484 0070 09       		.byte	(.L563-.L559)/2
 4485 0071 1D       		.byte	(.L557-.L559)/2
 4486 0072 1D       		.byte	(.L557-.L559)/2
 4487 0073 1D       		.byte	(.L557-.L559)/2
 4488 0074 0D       		.byte	(.L562-.L559)/2
 4489 0075 1D       		.byte	(.L557-.L559)/2
 4490 0076 1D       		.byte	(.L557-.L559)/2
 4491 0077 1D       		.byte	(.L557-.L559)/2
 4492 0078 11       		.byte	(.L561-.L559)/2
 4493 0079 1D       		.byte	(.L557-.L559)/2
 4494 007a 1D       		.byte	(.L557-.L559)/2
 4495 007b 1D       		.byte	(.L557-.L559)/2
 4496 007c 15       		.byte	(.L560-.L559)/2
 4497 007d 1D       		.byte	(.L557-.L559)/2
 4498 007e 1D       		.byte	(.L557-.L559)/2
 4499 007f 1D       		.byte	(.L557-.L559)/2
 4500 0080 19       		.byte	(.L558-.L559)/2
 4501 0081 00       		.p2align 1
 4502              	.L563:
 4503 0082 0223     		movs	r3, #2
 4504 0084 84F83E30 		strb	r3, [r4, #62]
 4505 0088 12E0     		b	.L564
 4506              	.L562:
 4507 008a 0223     		movs	r3, #2
 4508 008c 84F83F30 		strb	r3, [r4, #63]
 4509 0090 0EE0     		b	.L564
 4510              	.L561:
 4511 0092 0223     		movs	r3, #2
 4512 0094 84F84030 		strb	r3, [r4, #64]
 4513 0098 0AE0     		b	.L564
 4514              	.L560:
 4515 009a 0223     		movs	r3, #2
 4516 009c 84F84130 		strb	r3, [r4, #65]
 4517 00a0 06E0     		b	.L564
 4518              	.L558:
 4519 00a2 0223     		movs	r3, #2
ARM GAS  /var/folders/0f/x4_g94q9649fs6s33cksjfb00000gn/T//ccmft7Jl.s 			page 77


 4520 00a4 84F84230 		strb	r3, [r4, #66]
 4521 00a8 02E0     		b	.L564
 4522              	.L557:
 4523 00aa 0223     		movs	r3, #2
 4524 00ac 84F84330 		strb	r3, [r4, #67]
 4525              	.L564:
 4526 00b0 0122     		movs	r2, #1
 4527 00b2 2068     		ldr	r0, [r4]
 4528 00b4 FFF7FEFF 		bl	TIM_CCxChannelCmd
 4529 00b8 2368     		ldr	r3, [r4]
 4530 00ba 2049     		ldr	r1, .L571
 4531 00bc 204A     		ldr	r2, .L571+4
 4532 00be 9342     		cmp	r3, r2
 4533 00c0 18BF     		it	ne
 4534 00c2 8B42     		cmpne	r3, r1
 4535 00c4 03D1     		bne	.L565
 4536 00c6 5A6C     		ldr	r2, [r3, #68]
 4537 00c8 42F40042 		orr	r2, r2, #32768
 4538 00cc 5A64     		str	r2, [r3, #68]
 4539              	.L565:
 4540 00ce 2368     		ldr	r3, [r4]
 4541 00d0 1A4A     		ldr	r2, .L571
 4542 00d2 B3F1804F 		cmp	r3, #1073741824
 4543 00d6 18BF     		it	ne
 4544 00d8 9342     		cmpne	r3, r2
 4545 00da 1DD0     		beq	.L566
 4546 00dc A2F57C42 		sub	r2, r2, #64512
 4547 00e0 9342     		cmp	r3, r2
 4548 00e2 19D0     		beq	.L566
 4549 00e4 02F58062 		add	r2, r2, #1024
 4550 00e8 9342     		cmp	r3, r2
 4551 00ea 15D0     		beq	.L566
 4552 00ec 02F58062 		add	r2, r2, #1024
 4553 00f0 9342     		cmp	r3, r2
 4554 00f2 11D0     		beq	.L566
 4555 00f4 02F57842 		add	r2, r2, #63488
 4556 00f8 9342     		cmp	r3, r2
 4557 00fa 0DD0     		beq	.L566
 4558 00fc 02F57052 		add	r2, r2, #15360
 4559 0100 9342     		cmp	r3, r2
 4560 0102 09D0     		beq	.L566
 4561 0104 A2F59432 		sub	r2, r2, #75776
 4562 0108 9342     		cmp	r3, r2
 4563 010a 05D0     		beq	.L566
 4564 010c 1A68     		ldr	r2, [r3]
 4565 010e 42F00102 		orr	r2, r2, #1
 4566 0112 1A60     		str	r2, [r3]
 4567 0114 0020     		movs	r0, #0
 4568 0116 0EE0     		b	.L556
 4569              	.L566:
 4570 0118 9968     		ldr	r1, [r3, #8]
 4571 011a 0A4A     		ldr	r2, .L571+8
 4572 011c 0A40     		ands	r2, r2, r1
 4573 011e 062A     		cmp	r2, #6
 4574 0120 18BF     		it	ne
 4575 0122 B2F5803F 		cmpne	r2, #65536
 4576 0126 07D0     		beq	.L569
ARM GAS  /var/folders/0f/x4_g94q9649fs6s33cksjfb00000gn/T//ccmft7Jl.s 			page 78


 4577 0128 1A68     		ldr	r2, [r3]
 4578 012a 42F00102 		orr	r2, r2, #1
 4579 012e 1A60     		str	r2, [r3]
 4580 0130 0020     		movs	r0, #0
 4581 0132 00E0     		b	.L556
 4582              	.L568:
 4583 0134 0120     		movs	r0, #1
 4584              	.L556:
 4585 0136 10BD     		pop	{r4, pc}
 4586              	.L569:
 4587 0138 0020     		movs	r0, #0
 4588 013a FCE7     		b	.L556
 4589              	.L572:
 4590              		.align	2
 4591              	.L571:
 4592 013c 00000140 		.word	1073807360
 4593 0140 00040140 		.word	1073808384
 4594 0144 07000100 		.word	65543
 4596              		.section	.text.HAL_TIM_OC_Stop,"ax",%progbits
 4597              		.align	1
 4598              		.global	HAL_TIM_OC_Stop
 4599              		.syntax unified
 4600              		.thumb
 4601              		.thumb_func
 4603              	HAL_TIM_OC_Stop:
 4604              		@ args = 0, pretend = 0, frame = 0
 4605              		@ frame_needed = 0, uses_anonymous_args = 0
 4606 0000 38B5     		push	{r3, r4, r5, lr}
 4607 0002 0446     		mov	r4, r0
 4608 0004 0D46     		mov	r5, r1
 4609 0006 0022     		movs	r2, #0
 4610 0008 0068     		ldr	r0, [r0]
 4611 000a FFF7FEFF 		bl	TIM_CCxChannelCmd
 4612 000e 2368     		ldr	r3, [r4]
 4613 0010 2349     		ldr	r1, .L585
 4614 0012 244A     		ldr	r2, .L585+4
 4615 0014 9342     		cmp	r3, r2
 4616 0016 18BF     		it	ne
 4617 0018 8B42     		cmpne	r3, r1
 4618 001a 0CD1     		bne	.L574
 4619 001c 196A     		ldr	r1, [r3, #32]
 4620 001e 224A     		ldr	r2, .L585+8
 4621 0020 0A40     		ands	r2, r2, r1
 4622 0022 42B9     		cbnz	r2, .L574
 4623 0024 196A     		ldr	r1, [r3, #32]
 4624 0026 40F24442 		movw	r2, #1092
 4625 002a 1142     		tst	r1, r2
 4626 002c 03D1     		bne	.L574
 4627 002e 5A6C     		ldr	r2, [r3, #68]
 4628 0030 22F40042 		bic	r2, r2, #32768
 4629 0034 5A64     		str	r2, [r3, #68]
 4630              	.L574:
 4631 0036 2268     		ldr	r2, [r4]
 4632 0038 116A     		ldr	r1, [r2, #32]
 4633 003a 1B4B     		ldr	r3, .L585+8
 4634 003c 0B40     		ands	r3, r3, r1
 4635 003e 43B9     		cbnz	r3, .L575
ARM GAS  /var/folders/0f/x4_g94q9649fs6s33cksjfb00000gn/T//ccmft7Jl.s 			page 79


 4636 0040 116A     		ldr	r1, [r2, #32]
 4637 0042 40F24443 		movw	r3, #1092
 4638 0046 1942     		tst	r1, r3
 4639 0048 03D1     		bne	.L575
 4640 004a 1368     		ldr	r3, [r2]
 4641 004c 23F00103 		bic	r3, r3, #1
 4642 0050 1360     		str	r3, [r2]
 4643              	.L575:
 4644 0052 102D     		cmp	r5, #16
 4645 0054 1ED8     		bhi	.L576
 4646 0056 DFE805F0 		tbb	[pc, r5]
 4647              	.L578:
 4648 005a 09       		.byte	(.L582-.L578)/2
 4649 005b 1D       		.byte	(.L576-.L578)/2
 4650 005c 1D       		.byte	(.L576-.L578)/2
 4651 005d 1D       		.byte	(.L576-.L578)/2
 4652 005e 0D       		.byte	(.L581-.L578)/2
 4653 005f 1D       		.byte	(.L576-.L578)/2
 4654 0060 1D       		.byte	(.L576-.L578)/2
 4655 0061 1D       		.byte	(.L576-.L578)/2
 4656 0062 11       		.byte	(.L580-.L578)/2
 4657 0063 1D       		.byte	(.L576-.L578)/2
 4658 0064 1D       		.byte	(.L576-.L578)/2
 4659 0065 1D       		.byte	(.L576-.L578)/2
 4660 0066 15       		.byte	(.L579-.L578)/2
 4661 0067 1D       		.byte	(.L576-.L578)/2
 4662 0068 1D       		.byte	(.L576-.L578)/2
 4663 0069 1D       		.byte	(.L576-.L578)/2
 4664 006a 19       		.byte	(.L577-.L578)/2
 4665 006b 00       		.p2align 1
 4666              	.L582:
 4667 006c 0123     		movs	r3, #1
 4668 006e 84F83E30 		strb	r3, [r4, #62]
 4669 0072 12E0     		b	.L583
 4670              	.L581:
 4671 0074 0123     		movs	r3, #1
 4672 0076 84F83F30 		strb	r3, [r4, #63]
 4673 007a 0EE0     		b	.L583
 4674              	.L580:
 4675 007c 0123     		movs	r3, #1
 4676 007e 84F84030 		strb	r3, [r4, #64]
 4677 0082 0AE0     		b	.L583
 4678              	.L579:
 4679 0084 0123     		movs	r3, #1
 4680 0086 84F84130 		strb	r3, [r4, #65]
 4681 008a 06E0     		b	.L583
 4682              	.L577:
 4683 008c 0123     		movs	r3, #1
 4684 008e 84F84230 		strb	r3, [r4, #66]
 4685 0092 02E0     		b	.L583
 4686              	.L576:
 4687 0094 0123     		movs	r3, #1
 4688 0096 84F84330 		strb	r3, [r4, #67]
 4689              	.L583:
 4690 009a 0020     		movs	r0, #0
 4691 009c 38BD     		pop	{r3, r4, r5, pc}
 4692              	.L586:
ARM GAS  /var/folders/0f/x4_g94q9649fs6s33cksjfb00000gn/T//ccmft7Jl.s 			page 80


 4693 009e 00BF     		.align	2
 4694              	.L585:
 4695 00a0 00000140 		.word	1073807360
 4696 00a4 00040140 		.word	1073808384
 4697 00a8 11111100 		.word	1118481
 4699              		.section	.text.HAL_TIM_OC_Start_IT,"ax",%progbits
 4700              		.align	1
 4701              		.global	HAL_TIM_OC_Start_IT
 4702              		.syntax unified
 4703              		.thumb
 4704              		.thumb_func
 4706              	HAL_TIM_OC_Start_IT:
 4707              		@ args = 0, pretend = 0, frame = 0
 4708              		@ frame_needed = 0, uses_anonymous_args = 0
 4709 0000 10B5     		push	{r4, lr}
 4710 0002 0446     		mov	r4, r0
 4711 0004 1029     		cmp	r1, #16
 4712 0006 28D8     		bhi	.L588
 4713 0008 DFE801F0 		tbb	[pc, r1]
 4714              	.L590:
 4715 000c 09       		.byte	(.L594-.L590)/2
 4716 000d 27       		.byte	(.L588-.L590)/2
 4717 000e 27       		.byte	(.L588-.L590)/2
 4718 000f 27       		.byte	(.L588-.L590)/2
 4719 0010 0F       		.byte	(.L593-.L590)/2
 4720 0011 27       		.byte	(.L588-.L590)/2
 4721 0012 27       		.byte	(.L588-.L590)/2
 4722 0013 27       		.byte	(.L588-.L590)/2
 4723 0014 15       		.byte	(.L592-.L590)/2
 4724 0015 27       		.byte	(.L588-.L590)/2
 4725 0016 27       		.byte	(.L588-.L590)/2
 4726 0017 27       		.byte	(.L588-.L590)/2
 4727 0018 1B       		.byte	(.L591-.L590)/2
 4728 0019 27       		.byte	(.L588-.L590)/2
 4729 001a 27       		.byte	(.L588-.L590)/2
 4730 001b 27       		.byte	(.L588-.L590)/2
 4731 001c 21       		.byte	(.L589-.L590)/2
 4732 001d 00       		.p2align 1
 4733              	.L594:
 4734 001e 90F83E30 		ldrb	r3, [r0, #62]	@ zero_extendqisi2
 4735 0022 013B     		subs	r3, r3, #1
 4736 0024 18BF     		it	ne
 4737 0026 0123     		movne	r3, #1
 4738 0028 1CE0     		b	.L595
 4739              	.L593:
 4740 002a 90F83F30 		ldrb	r3, [r0, #63]	@ zero_extendqisi2
 4741 002e 013B     		subs	r3, r3, #1
 4742 0030 18BF     		it	ne
 4743 0032 0123     		movne	r3, #1
 4744 0034 16E0     		b	.L595
 4745              	.L592:
 4746 0036 90F84030 		ldrb	r3, [r0, #64]	@ zero_extendqisi2
 4747 003a 013B     		subs	r3, r3, #1
 4748 003c 18BF     		it	ne
 4749 003e 0123     		movne	r3, #1
 4750 0040 10E0     		b	.L595
 4751              	.L591:
ARM GAS  /var/folders/0f/x4_g94q9649fs6s33cksjfb00000gn/T//ccmft7Jl.s 			page 81


 4752 0042 90F84130 		ldrb	r3, [r0, #65]	@ zero_extendqisi2
 4753 0046 013B     		subs	r3, r3, #1
 4754 0048 18BF     		it	ne
 4755 004a 0123     		movne	r3, #1
 4756 004c 0AE0     		b	.L595
 4757              	.L589:
 4758 004e 90F84230 		ldrb	r3, [r0, #66]	@ zero_extendqisi2
 4759 0052 013B     		subs	r3, r3, #1
 4760 0054 18BF     		it	ne
 4761 0056 0123     		movne	r3, #1
 4762 0058 04E0     		b	.L595
 4763              	.L588:
 4764 005a 90F84330 		ldrb	r3, [r0, #67]	@ zero_extendqisi2
 4765 005e 013B     		subs	r3, r3, #1
 4766 0060 18BF     		it	ne
 4767 0062 0123     		movne	r3, #1
 4768              	.L595:
 4769 0064 002B     		cmp	r3, #0
 4770 0066 40F09980 		bne	.L613
 4771 006a 1029     		cmp	r1, #16
 4772 006c 66D8     		bhi	.L597
 4773 006e DFE801F0 		tbb	[pc, r1]
 4774              	.L599:
 4775 0072 09       		.byte	(.L603-.L599)/2
 4776 0073 65       		.byte	(.L597-.L599)/2
 4777 0074 65       		.byte	(.L597-.L599)/2
 4778 0075 65       		.byte	(.L597-.L599)/2
 4779 0076 45       		.byte	(.L602-.L599)/2
 4780 0077 65       		.byte	(.L597-.L599)/2
 4781 0078 65       		.byte	(.L597-.L599)/2
 4782 0079 65       		.byte	(.L597-.L599)/2
 4783 007a 4E       		.byte	(.L601-.L599)/2
 4784 007b 65       		.byte	(.L597-.L599)/2
 4785 007c 65       		.byte	(.L597-.L599)/2
 4786 007d 65       		.byte	(.L597-.L599)/2
 4787 007e 57       		.byte	(.L600-.L599)/2
 4788 007f 65       		.byte	(.L597-.L599)/2
 4789 0080 65       		.byte	(.L597-.L599)/2
 4790 0081 65       		.byte	(.L597-.L599)/2
 4791 0082 60       		.byte	(.L598-.L599)/2
 4792 0083 00       		.p2align 1
 4793              	.L603:
 4794 0084 0223     		movs	r3, #2
 4795 0086 84F83E30 		strb	r3, [r4, #62]
 4796              	.L604:
 4797 008a 2268     		ldr	r2, [r4]
 4798 008c D368     		ldr	r3, [r2, #12]
 4799 008e 43F00203 		orr	r3, r3, #2
 4800 0092 D360     		str	r3, [r2, #12]
 4801              	.L609:
 4802 0094 0122     		movs	r2, #1
 4803 0096 2068     		ldr	r0, [r4]
 4804 0098 FFF7FEFF 		bl	TIM_CCxChannelCmd
 4805 009c 2368     		ldr	r3, [r4]
 4806 009e 4249     		ldr	r1, .L621
 4807 00a0 424A     		ldr	r2, .L621+4
 4808 00a2 9342     		cmp	r3, r2
ARM GAS  /var/folders/0f/x4_g94q9649fs6s33cksjfb00000gn/T//ccmft7Jl.s 			page 82


 4809 00a4 18BF     		it	ne
 4810 00a6 8B42     		cmpne	r3, r1
 4811 00a8 03D1     		bne	.L610
 4812 00aa 5A6C     		ldr	r2, [r3, #68]
 4813 00ac 42F40042 		orr	r2, r2, #32768
 4814 00b0 5A64     		str	r2, [r3, #68]
 4815              	.L610:
 4816 00b2 2368     		ldr	r3, [r4]
 4817 00b4 3C4A     		ldr	r2, .L621
 4818 00b6 B3F1804F 		cmp	r3, #1073741824
 4819 00ba 18BF     		it	ne
 4820 00bc 9342     		cmpne	r3, r2
 4821 00be 5FD0     		beq	.L611
 4822 00c0 A2F57C42 		sub	r2, r2, #64512
 4823 00c4 9342     		cmp	r3, r2
 4824 00c6 5BD0     		beq	.L611
 4825 00c8 02F58062 		add	r2, r2, #1024
 4826 00cc 9342     		cmp	r3, r2
 4827 00ce 57D0     		beq	.L611
 4828 00d0 02F58062 		add	r2, r2, #1024
 4829 00d4 9342     		cmp	r3, r2
 4830 00d6 53D0     		beq	.L611
 4831 00d8 02F57842 		add	r2, r2, #63488
 4832 00dc 9342     		cmp	r3, r2
 4833 00de 4FD0     		beq	.L611
 4834 00e0 02F57052 		add	r2, r2, #15360
 4835 00e4 9342     		cmp	r3, r2
 4836 00e6 4BD0     		beq	.L611
 4837 00e8 A2F59432 		sub	r2, r2, #75776
 4838 00ec 9342     		cmp	r3, r2
 4839 00ee 47D0     		beq	.L611
 4840 00f0 1A68     		ldr	r2, [r3]
 4841 00f2 42F00102 		orr	r2, r2, #1
 4842 00f6 1A60     		str	r2, [r3]
 4843 00f8 0020     		movs	r0, #0
 4844 00fa 50E0     		b	.L596
 4845              	.L602:
 4846 00fc 0223     		movs	r3, #2
 4847 00fe 84F83F30 		strb	r3, [r4, #63]
 4848              	.L605:
 4849 0102 2268     		ldr	r2, [r4]
 4850 0104 D368     		ldr	r3, [r2, #12]
 4851 0106 43F00403 		orr	r3, r3, #4
 4852 010a D360     		str	r3, [r2, #12]
 4853 010c C2E7     		b	.L609
 4854              	.L601:
 4855 010e 0223     		movs	r3, #2
 4856 0110 84F84030 		strb	r3, [r4, #64]
 4857              	.L606:
 4858 0114 2268     		ldr	r2, [r4]
 4859 0116 D368     		ldr	r3, [r2, #12]
 4860 0118 43F00803 		orr	r3, r3, #8
 4861 011c D360     		str	r3, [r2, #12]
 4862 011e B9E7     		b	.L609
 4863              	.L600:
 4864 0120 0223     		movs	r3, #2
 4865 0122 84F84130 		strb	r3, [r4, #65]
ARM GAS  /var/folders/0f/x4_g94q9649fs6s33cksjfb00000gn/T//ccmft7Jl.s 			page 83


 4866              	.L607:
 4867 0126 2268     		ldr	r2, [r4]
 4868 0128 D368     		ldr	r3, [r2, #12]
 4869 012a 43F01003 		orr	r3, r3, #16
 4870 012e D360     		str	r3, [r2, #12]
 4871 0130 B0E7     		b	.L609
 4872              	.L598:
 4873 0132 0223     		movs	r3, #2
 4874 0134 84F84230 		strb	r3, [r4, #66]
 4875 0138 0120     		movs	r0, #1
 4876 013a 30E0     		b	.L596
 4877              	.L597:
 4878 013c 0223     		movs	r3, #2
 4879 013e 84F84330 		strb	r3, [r4, #67]
 4880 0142 0C29     		cmp	r1, #12
 4881 0144 2CD8     		bhi	.L614
 4882 0146 01A3     		adr	r3, .L608
 4883 0148 53F821F0 		ldr	pc, [r3, r1, lsl #2]
 4884              		.p2align 2
 4885              	.L608:
 4886 014c 8B000000 		.word	.L604+1
 4887 0150 A1010000 		.word	.L614+1
 4888 0154 A1010000 		.word	.L614+1
 4889 0158 A1010000 		.word	.L614+1
 4890 015c 03010000 		.word	.L605+1
 4891 0160 A1010000 		.word	.L614+1
 4892 0164 A1010000 		.word	.L614+1
 4893 0168 A1010000 		.word	.L614+1
 4894 016c 15010000 		.word	.L606+1
 4895 0170 A1010000 		.word	.L614+1
 4896 0174 A1010000 		.word	.L614+1
 4897 0178 A1010000 		.word	.L614+1
 4898 017c 27010000 		.word	.L607+1
 4899              		.p2align 1
 4900              	.L611:
 4901 0180 9968     		ldr	r1, [r3, #8]
 4902 0182 0B4A     		ldr	r2, .L621+8
 4903 0184 0A40     		ands	r2, r2, r1
 4904 0186 062A     		cmp	r2, #6
 4905 0188 18BF     		it	ne
 4906 018a B2F5803F 		cmpne	r2, #65536
 4907 018e 09D0     		beq	.L615
 4908 0190 1A68     		ldr	r2, [r3]
 4909 0192 42F00102 		orr	r2, r2, #1
 4910 0196 1A60     		str	r2, [r3]
 4911 0198 0020     		movs	r0, #0
 4912 019a 00E0     		b	.L596
 4913              	.L613:
 4914 019c 0120     		movs	r0, #1
 4915              	.L596:
 4916 019e 10BD     		pop	{r4, pc}
 4917              	.L614:
 4918 01a0 0120     		movs	r0, #1
 4919 01a2 FCE7     		b	.L596
 4920              	.L615:
 4921 01a4 0020     		movs	r0, #0
 4922 01a6 FAE7     		b	.L596
ARM GAS  /var/folders/0f/x4_g94q9649fs6s33cksjfb00000gn/T//ccmft7Jl.s 			page 84


 4923              	.L622:
 4924              		.align	2
 4925              	.L621:
 4926 01a8 00000140 		.word	1073807360
 4927 01ac 00040140 		.word	1073808384
 4928 01b0 07000100 		.word	65543
 4930              		.section	.text.HAL_TIM_OC_Stop_IT,"ax",%progbits
 4931              		.align	1
 4932              		.global	HAL_TIM_OC_Stop_IT
 4933              		.syntax unified
 4934              		.thumb
 4935              		.thumb_func
 4937              	HAL_TIM_OC_Stop_IT:
 4938              		@ args = 0, pretend = 0, frame = 0
 4939              		@ frame_needed = 0, uses_anonymous_args = 0
 4940 0000 38B5     		push	{r3, r4, r5, lr}
 4941 0002 0546     		mov	r5, r0
 4942 0004 0C46     		mov	r4, r1
 4943 0006 0C29     		cmp	r1, #12
 4944 0008 71D8     		bhi	.L640
 4945 000a DFE801F0 		tbb	[pc, r1]
 4946              	.L626:
 4947 000e 07       		.byte	(.L629-.L626)/2
 4948 000f 70       		.byte	(.L640-.L626)/2
 4949 0010 70       		.byte	(.L640-.L626)/2
 4950 0011 70       		.byte	(.L640-.L626)/2
 4951 0012 40       		.byte	(.L628-.L626)/2
 4952 0013 70       		.byte	(.L640-.L626)/2
 4953 0014 70       		.byte	(.L640-.L626)/2
 4954 0015 70       		.byte	(.L640-.L626)/2
 4955 0016 46       		.byte	(.L627-.L626)/2
 4956 0017 70       		.byte	(.L640-.L626)/2
 4957 0018 70       		.byte	(.L640-.L626)/2
 4958 0019 70       		.byte	(.L640-.L626)/2
 4959 001a 4C       		.byte	(.L625-.L626)/2
 4960 001b 00       		.p2align 1
 4961              	.L629:
 4962 001c 0268     		ldr	r2, [r0]
 4963 001e D368     		ldr	r3, [r2, #12]
 4964 0020 23F00203 		bic	r3, r3, #2
 4965 0024 D360     		str	r3, [r2, #12]
 4966              	.L630:
 4967 0026 0022     		movs	r2, #0
 4968 0028 2146     		mov	r1, r4
 4969 002a 2868     		ldr	r0, [r5]
 4970 002c FFF7FEFF 		bl	TIM_CCxChannelCmd
 4971 0030 2B68     		ldr	r3, [r5]
 4972 0032 3049     		ldr	r1, .L642
 4973 0034 304A     		ldr	r2, .L642+4
 4974 0036 9342     		cmp	r3, r2
 4975 0038 18BF     		it	ne
 4976 003a 8B42     		cmpne	r3, r1
 4977 003c 0CD1     		bne	.L631
 4978 003e 196A     		ldr	r1, [r3, #32]
 4979 0040 2E4A     		ldr	r2, .L642+8
 4980 0042 0A40     		ands	r2, r2, r1
 4981 0044 42B9     		cbnz	r2, .L631
ARM GAS  /var/folders/0f/x4_g94q9649fs6s33cksjfb00000gn/T//ccmft7Jl.s 			page 85


 4982 0046 196A     		ldr	r1, [r3, #32]
 4983 0048 40F24442 		movw	r2, #1092
 4984 004c 1142     		tst	r1, r2
 4985 004e 03D1     		bne	.L631
 4986 0050 5A6C     		ldr	r2, [r3, #68]
 4987 0052 22F40042 		bic	r2, r2, #32768
 4988 0056 5A64     		str	r2, [r3, #68]
 4989              	.L631:
 4990 0058 2A68     		ldr	r2, [r5]
 4991 005a 116A     		ldr	r1, [r2, #32]
 4992 005c 274B     		ldr	r3, .L642+8
 4993 005e 0B40     		ands	r3, r3, r1
 4994 0060 43B9     		cbnz	r3, .L632
 4995 0062 116A     		ldr	r1, [r2, #32]
 4996 0064 40F24443 		movw	r3, #1092
 4997 0068 1942     		tst	r1, r3
 4998 006a 03D1     		bne	.L632
 4999 006c 1368     		ldr	r3, [r2]
 5000 006e 23F00103 		bic	r3, r3, #1
 5001 0072 1360     		str	r3, [r2]
 5002              	.L632:
 5003 0074 102C     		cmp	r4, #16
 5004 0076 35D8     		bhi	.L633
 5005 0078 DFE804F0 		tbb	[pc, r4]
 5006              	.L635:
 5007 007c 1B       		.byte	(.L639-.L635)/2
 5008 007d 34       		.byte	(.L633-.L635)/2
 5009 007e 34       		.byte	(.L633-.L635)/2
 5010 007f 34       		.byte	(.L633-.L635)/2
 5011 0080 20       		.byte	(.L638-.L635)/2
 5012 0081 34       		.byte	(.L633-.L635)/2
 5013 0082 34       		.byte	(.L633-.L635)/2
 5014 0083 34       		.byte	(.L633-.L635)/2
 5015 0084 25       		.byte	(.L637-.L635)/2
 5016 0085 34       		.byte	(.L633-.L635)/2
 5017 0086 34       		.byte	(.L633-.L635)/2
 5018 0087 34       		.byte	(.L633-.L635)/2
 5019 0088 2A       		.byte	(.L636-.L635)/2
 5020 0089 34       		.byte	(.L633-.L635)/2
 5021 008a 34       		.byte	(.L633-.L635)/2
 5022 008b 34       		.byte	(.L633-.L635)/2
 5023 008c 2F       		.byte	(.L634-.L635)/2
 5024 008d 00       		.p2align 1
 5025              	.L628:
 5026 008e 0268     		ldr	r2, [r0]
 5027 0090 D368     		ldr	r3, [r2, #12]
 5028 0092 23F00403 		bic	r3, r3, #4
 5029 0096 D360     		str	r3, [r2, #12]
 5030 0098 C5E7     		b	.L630
 5031              	.L627:
 5032 009a 0268     		ldr	r2, [r0]
 5033 009c D368     		ldr	r3, [r2, #12]
 5034 009e 23F00803 		bic	r3, r3, #8
 5035 00a2 D360     		str	r3, [r2, #12]
 5036 00a4 BFE7     		b	.L630
 5037              	.L625:
 5038 00a6 0268     		ldr	r2, [r0]
ARM GAS  /var/folders/0f/x4_g94q9649fs6s33cksjfb00000gn/T//ccmft7Jl.s 			page 86


 5039 00a8 D368     		ldr	r3, [r2, #12]
 5040 00aa 23F01003 		bic	r3, r3, #16
 5041 00ae D360     		str	r3, [r2, #12]
 5042 00b0 B9E7     		b	.L630
 5043              	.L639:
 5044 00b2 0123     		movs	r3, #1
 5045 00b4 85F83E30 		strb	r3, [r5, #62]
 5046 00b8 0020     		movs	r0, #0
 5047 00ba 19E0     		b	.L624
 5048              	.L638:
 5049 00bc 0123     		movs	r3, #1
 5050 00be 85F83F30 		strb	r3, [r5, #63]
 5051 00c2 0020     		movs	r0, #0
 5052 00c4 14E0     		b	.L624
 5053              	.L637:
 5054 00c6 0123     		movs	r3, #1
 5055 00c8 85F84030 		strb	r3, [r5, #64]
 5056 00cc 0020     		movs	r0, #0
 5057 00ce 0FE0     		b	.L624
 5058              	.L636:
 5059 00d0 0123     		movs	r3, #1
 5060 00d2 85F84130 		strb	r3, [r5, #65]
 5061 00d6 0020     		movs	r0, #0
 5062 00d8 0AE0     		b	.L624
 5063              	.L634:
 5064 00da 0123     		movs	r3, #1
 5065 00dc 85F84230 		strb	r3, [r5, #66]
 5066 00e0 0020     		movs	r0, #0
 5067 00e2 05E0     		b	.L624
 5068              	.L633:
 5069 00e4 0123     		movs	r3, #1
 5070 00e6 85F84330 		strb	r3, [r5, #67]
 5071 00ea 0020     		movs	r0, #0
 5072 00ec 00E0     		b	.L624
 5073              	.L640:
 5074 00ee 0120     		movs	r0, #1
 5075              	.L624:
 5076 00f0 38BD     		pop	{r3, r4, r5, pc}
 5077              	.L643:
 5078 00f2 00BF     		.align	2
 5079              	.L642:
 5080 00f4 00000140 		.word	1073807360
 5081 00f8 00040140 		.word	1073808384
 5082 00fc 11111100 		.word	1118481
 5084              		.section	.text.HAL_TIM_OC_Start_DMA,"ax",%progbits
 5085              		.align	1
 5086              		.global	HAL_TIM_OC_Start_DMA
 5087              		.syntax unified
 5088              		.thumb
 5089              		.thumb_func
 5091              	HAL_TIM_OC_Start_DMA:
 5092              		@ args = 0, pretend = 0, frame = 0
 5093              		@ frame_needed = 0, uses_anonymous_args = 0
 5094 0000 38B5     		push	{r3, r4, r5, lr}
 5095 0002 0546     		mov	r5, r0
 5096 0004 0C46     		mov	r4, r1
 5097 0006 1146     		mov	r1, r2
ARM GAS  /var/folders/0f/x4_g94q9649fs6s33cksjfb00000gn/T//ccmft7Jl.s 			page 87


 5098 0008 102C     		cmp	r4, #16
 5099 000a 2DD8     		bhi	.L645
 5100 000c DFE804F0 		tbb	[pc, r4]
 5101              	.L647:
 5102 0010 09       		.byte	(.L651-.L647)/2
 5103 0011 2C       		.byte	(.L645-.L647)/2
 5104 0012 2C       		.byte	(.L645-.L647)/2
 5105 0013 2C       		.byte	(.L645-.L647)/2
 5106 0014 10       		.byte	(.L650-.L647)/2
 5107 0015 2C       		.byte	(.L645-.L647)/2
 5108 0016 2C       		.byte	(.L645-.L647)/2
 5109 0017 2C       		.byte	(.L645-.L647)/2
 5110 0018 17       		.byte	(.L649-.L647)/2
 5111 0019 2C       		.byte	(.L645-.L647)/2
 5112 001a 2C       		.byte	(.L645-.L647)/2
 5113 001b 2C       		.byte	(.L645-.L647)/2
 5114 001c 1E       		.byte	(.L648-.L647)/2
 5115 001d 2C       		.byte	(.L645-.L647)/2
 5116 001e 2C       		.byte	(.L645-.L647)/2
 5117 001f 2C       		.byte	(.L645-.L647)/2
 5118 0020 25       		.byte	(.L646-.L647)/2
 5119 0021 00       		.p2align 1
 5120              	.L651:
 5121 0022 90F83E00 		ldrb	r0, [r0, #62]	@ zero_extendqisi2
 5122 0026 0228     		cmp	r0, #2
 5123 0028 14BF     		ite	ne
 5124 002a 0020     		movne	r0, #0
 5125 002c 0120     		moveq	r0, #1
 5126 002e 21E0     		b	.L652
 5127              	.L650:
 5128 0030 90F83F00 		ldrb	r0, [r0, #63]	@ zero_extendqisi2
 5129 0034 0228     		cmp	r0, #2
 5130 0036 14BF     		ite	ne
 5131 0038 0020     		movne	r0, #0
 5132 003a 0120     		moveq	r0, #1
 5133 003c 1AE0     		b	.L652
 5134              	.L649:
 5135 003e 90F84000 		ldrb	r0, [r0, #64]	@ zero_extendqisi2
 5136 0042 0228     		cmp	r0, #2
 5137 0044 14BF     		ite	ne
 5138 0046 0020     		movne	r0, #0
 5139 0048 0120     		moveq	r0, #1
 5140 004a 13E0     		b	.L652
 5141              	.L648:
 5142 004c 90F84100 		ldrb	r0, [r0, #65]	@ zero_extendqisi2
 5143 0050 0228     		cmp	r0, #2
 5144 0052 14BF     		ite	ne
 5145 0054 0020     		movne	r0, #0
 5146 0056 0120     		moveq	r0, #1
 5147 0058 0CE0     		b	.L652
 5148              	.L646:
 5149 005a 90F84200 		ldrb	r0, [r0, #66]	@ zero_extendqisi2
 5150 005e 0228     		cmp	r0, #2
 5151 0060 14BF     		ite	ne
 5152 0062 0020     		movne	r0, #0
 5153 0064 0120     		moveq	r0, #1
 5154 0066 05E0     		b	.L652
ARM GAS  /var/folders/0f/x4_g94q9649fs6s33cksjfb00000gn/T//ccmft7Jl.s 			page 88


 5155              	.L645:
 5156 0068 90F84300 		ldrb	r0, [r0, #67]	@ zero_extendqisi2
 5157 006c 0228     		cmp	r0, #2
 5158 006e 14BF     		ite	ne
 5159 0070 0020     		movne	r0, #0
 5160 0072 0120     		moveq	r0, #1
 5161              	.L652:
 5162 0074 0028     		cmp	r0, #0
 5163 0076 40F01F81 		bne	.L678
 5164 007a 102C     		cmp	r4, #16
 5165 007c 2DD8     		bhi	.L654
 5166 007e DFE804F0 		tbb	[pc, r4]
 5167              	.L656:
 5168 0082 09       		.byte	(.L660-.L656)/2
 5169 0083 2C       		.byte	(.L654-.L656)/2
 5170 0084 2C       		.byte	(.L654-.L656)/2
 5171 0085 2C       		.byte	(.L654-.L656)/2
 5172 0086 10       		.byte	(.L659-.L656)/2
 5173 0087 2C       		.byte	(.L654-.L656)/2
 5174 0088 2C       		.byte	(.L654-.L656)/2
 5175 0089 2C       		.byte	(.L654-.L656)/2
 5176 008a 17       		.byte	(.L658-.L656)/2
 5177 008b 2C       		.byte	(.L654-.L656)/2
 5178 008c 2C       		.byte	(.L654-.L656)/2
 5179 008d 2C       		.byte	(.L654-.L656)/2
 5180 008e 1E       		.byte	(.L657-.L656)/2
 5181 008f 2C       		.byte	(.L654-.L656)/2
 5182 0090 2C       		.byte	(.L654-.L656)/2
 5183 0091 2C       		.byte	(.L654-.L656)/2
 5184 0092 25       		.byte	(.L655-.L656)/2
 5185 0093 00       		.p2align 1
 5186              	.L660:
 5187 0094 95F83E20 		ldrb	r2, [r5, #62]	@ zero_extendqisi2
 5188 0098 012A     		cmp	r2, #1
 5189 009a 14BF     		ite	ne
 5190 009c 0022     		movne	r2, #0
 5191 009e 0122     		moveq	r2, #1
 5192 00a0 21E0     		b	.L661
 5193              	.L659:
 5194 00a2 95F83F20 		ldrb	r2, [r5, #63]	@ zero_extendqisi2
 5195 00a6 012A     		cmp	r2, #1
 5196 00a8 14BF     		ite	ne
 5197 00aa 0022     		movne	r2, #0
 5198 00ac 0122     		moveq	r2, #1
 5199 00ae 1AE0     		b	.L661
 5200              	.L658:
 5201 00b0 95F84020 		ldrb	r2, [r5, #64]	@ zero_extendqisi2
 5202 00b4 012A     		cmp	r2, #1
 5203 00b6 14BF     		ite	ne
 5204 00b8 0022     		movne	r2, #0
 5205 00ba 0122     		moveq	r2, #1
 5206 00bc 13E0     		b	.L661
 5207              	.L657:
 5208 00be 95F84120 		ldrb	r2, [r5, #65]	@ zero_extendqisi2
 5209 00c2 012A     		cmp	r2, #1
 5210 00c4 14BF     		ite	ne
 5211 00c6 0022     		movne	r2, #0
ARM GAS  /var/folders/0f/x4_g94q9649fs6s33cksjfb00000gn/T//ccmft7Jl.s 			page 89


 5212 00c8 0122     		moveq	r2, #1
 5213 00ca 0CE0     		b	.L661
 5214              	.L655:
 5215 00cc 95F84220 		ldrb	r2, [r5, #66]	@ zero_extendqisi2
 5216 00d0 012A     		cmp	r2, #1
 5217 00d2 14BF     		ite	ne
 5218 00d4 0022     		movne	r2, #0
 5219 00d6 0122     		moveq	r2, #1
 5220 00d8 05E0     		b	.L661
 5221              	.L654:
 5222 00da 95F84320 		ldrb	r2, [r5, #67]	@ zero_extendqisi2
 5223 00de 012A     		cmp	r2, #1
 5224 00e0 14BF     		ite	ne
 5225 00e2 0022     		movne	r2, #0
 5226 00e4 0122     		moveq	r2, #1
 5227              	.L661:
 5228 00e6 002A     		cmp	r2, #0
 5229 00e8 00F0E880 		beq	.L679
 5230 00ec 002B     		cmp	r3, #0
 5231 00ee 18BF     		it	ne
 5232 00f0 0029     		cmpne	r1, #0
 5233 00f2 00F0E580 		beq	.L680
 5234 00f6 102C     		cmp	r4, #16
 5235 00f8 00F2AE80 		bhi	.L662
 5236 00fc DFE804F0 		tbb	[pc, r4]
 5237              	.L664:
 5238 0100 09       		.byte	(.L668-.L664)/2
 5239 0101 AC       		.byte	(.L662-.L664)/2
 5240 0102 AC       		.byte	(.L662-.L664)/2
 5241 0103 AC       		.byte	(.L662-.L664)/2
 5242 0104 5C       		.byte	(.L667-.L664)/2
 5243 0105 AC       		.byte	(.L662-.L664)/2
 5244 0106 AC       		.byte	(.L662-.L664)/2
 5245 0107 AC       		.byte	(.L662-.L664)/2
 5246 0108 75       		.byte	(.L666-.L664)/2
 5247 0109 AC       		.byte	(.L662-.L664)/2
 5248 010a AC       		.byte	(.L662-.L664)/2
 5249 010b AC       		.byte	(.L662-.L664)/2
 5250 010c 8E       		.byte	(.L665-.L664)/2
 5251 010d AC       		.byte	(.L662-.L664)/2
 5252 010e AC       		.byte	(.L662-.L664)/2
 5253 010f AC       		.byte	(.L662-.L664)/2
 5254 0110 A7       		.byte	(.L663-.L664)/2
 5255 0111 00       		.p2align 1
 5256              	.L668:
 5257 0112 0222     		movs	r2, #2
 5258 0114 85F83E20 		strb	r2, [r5, #62]
 5259              	.L669:
 5260 0118 6A6A     		ldr	r2, [r5, #36]
 5261 011a 7048     		ldr	r0, .L692
 5262 011c D063     		str	r0, [r2, #60]
 5263 011e 6A6A     		ldr	r2, [r5, #36]
 5264 0120 6F48     		ldr	r0, .L692+4
 5265 0122 1064     		str	r0, [r2, #64]
 5266 0124 6A6A     		ldr	r2, [r5, #36]
 5267 0126 6F48     		ldr	r0, .L692+8
 5268 0128 D064     		str	r0, [r2, #76]
ARM GAS  /var/folders/0f/x4_g94q9649fs6s33cksjfb00000gn/T//ccmft7Jl.s 			page 90


 5269 012a 2A68     		ldr	r2, [r5]
 5270 012c 3432     		adds	r2, r2, #52
 5271 012e 686A     		ldr	r0, [r5, #36]
 5272 0130 FFF7FEFF 		bl	HAL_DMA_Start_IT
 5273 0134 0028     		cmp	r0, #0
 5274 0136 40F0C780 		bne	.L682
 5275 013a 2A68     		ldr	r2, [r5]
 5276 013c D368     		ldr	r3, [r2, #12]
 5277 013e 43F40073 		orr	r3, r3, #512
 5278 0142 D360     		str	r3, [r2, #12]
 5279              	.L674:
 5280 0144 0122     		movs	r2, #1
 5281 0146 2146     		mov	r1, r4
 5282 0148 2868     		ldr	r0, [r5]
 5283 014a FFF7FEFF 		bl	TIM_CCxChannelCmd
 5284 014e 2B68     		ldr	r3, [r5]
 5285 0150 6549     		ldr	r1, .L692+12
 5286 0152 664A     		ldr	r2, .L692+16
 5287 0154 9342     		cmp	r3, r2
 5288 0156 18BF     		it	ne
 5289 0158 8B42     		cmpne	r3, r1
 5290 015a 03D1     		bne	.L675
 5291 015c 5A6C     		ldr	r2, [r3, #68]
 5292 015e 42F40042 		orr	r2, r2, #32768
 5293 0162 5A64     		str	r2, [r3, #68]
 5294              	.L675:
 5295 0164 2B68     		ldr	r3, [r5]
 5296 0166 604A     		ldr	r2, .L692+12
 5297 0168 B3F1804F 		cmp	r3, #1073741824
 5298 016c 18BF     		it	ne
 5299 016e 9342     		cmpne	r3, r2
 5300 0170 00F09480 		beq	.L676
 5301 0174 A2F57C42 		sub	r2, r2, #64512
 5302 0178 9342     		cmp	r3, r2
 5303 017a 00F08F80 		beq	.L676
 5304 017e 02F58062 		add	r2, r2, #1024
 5305 0182 9342     		cmp	r3, r2
 5306 0184 00F08A80 		beq	.L676
 5307 0188 02F58062 		add	r2, r2, #1024
 5308 018c 9342     		cmp	r3, r2
 5309 018e 00F08580 		beq	.L676
 5310 0192 02F57842 		add	r2, r2, #63488
 5311 0196 9342     		cmp	r3, r2
 5312 0198 00F08080 		beq	.L676
 5313 019c 02F57052 		add	r2, r2, #15360
 5314 01a0 9342     		cmp	r3, r2
 5315 01a2 7BD0     		beq	.L676
 5316 01a4 A2F59432 		sub	r2, r2, #75776
 5317 01a8 9342     		cmp	r3, r2
 5318 01aa 77D0     		beq	.L676
 5319 01ac 1A68     		ldr	r2, [r3]
 5320 01ae 42F00102 		orr	r2, r2, #1
 5321 01b2 1A60     		str	r2, [r3]
 5322 01b4 0020     		movs	r0, #0
 5323 01b6 82E0     		b	.L653
 5324              	.L667:
 5325 01b8 0222     		movs	r2, #2
ARM GAS  /var/folders/0f/x4_g94q9649fs6s33cksjfb00000gn/T//ccmft7Jl.s 			page 91


 5326 01ba 85F83F20 		strb	r2, [r5, #63]
 5327              	.L670:
 5328 01be AA6A     		ldr	r2, [r5, #40]
 5329 01c0 4648     		ldr	r0, .L692
 5330 01c2 D063     		str	r0, [r2, #60]
 5331 01c4 AA6A     		ldr	r2, [r5, #40]
 5332 01c6 4648     		ldr	r0, .L692+4
 5333 01c8 1064     		str	r0, [r2, #64]
 5334 01ca AA6A     		ldr	r2, [r5, #40]
 5335 01cc 4548     		ldr	r0, .L692+8
 5336 01ce D064     		str	r0, [r2, #76]
 5337 01d0 2A68     		ldr	r2, [r5]
 5338 01d2 3832     		adds	r2, r2, #56
 5339 01d4 A86A     		ldr	r0, [r5, #40]
 5340 01d6 FFF7FEFF 		bl	HAL_DMA_Start_IT
 5341 01da 0028     		cmp	r0, #0
 5342 01dc 76D1     		bne	.L683
 5343 01de 2A68     		ldr	r2, [r5]
 5344 01e0 D368     		ldr	r3, [r2, #12]
 5345 01e2 43F48063 		orr	r3, r3, #1024
 5346 01e6 D360     		str	r3, [r2, #12]
 5347 01e8 ACE7     		b	.L674
 5348              	.L666:
 5349 01ea 0222     		movs	r2, #2
 5350 01ec 85F84020 		strb	r2, [r5, #64]
 5351              	.L671:
 5352 01f0 EA6A     		ldr	r2, [r5, #44]
 5353 01f2 3A48     		ldr	r0, .L692
 5354 01f4 D063     		str	r0, [r2, #60]
 5355 01f6 EA6A     		ldr	r2, [r5, #44]
 5356 01f8 3948     		ldr	r0, .L692+4
 5357 01fa 1064     		str	r0, [r2, #64]
 5358 01fc EA6A     		ldr	r2, [r5, #44]
 5359 01fe 3948     		ldr	r0, .L692+8
 5360 0200 D064     		str	r0, [r2, #76]
 5361 0202 2A68     		ldr	r2, [r5]
 5362 0204 3C32     		adds	r2, r2, #60
 5363 0206 E86A     		ldr	r0, [r5, #44]
 5364 0208 FFF7FEFF 		bl	HAL_DMA_Start_IT
 5365 020c 0028     		cmp	r0, #0
 5366 020e 5FD1     		bne	.L684
 5367 0210 2A68     		ldr	r2, [r5]
 5368 0212 D368     		ldr	r3, [r2, #12]
 5369 0214 43F40063 		orr	r3, r3, #2048
 5370 0218 D360     		str	r3, [r2, #12]
 5371 021a 93E7     		b	.L674
 5372              	.L665:
 5373 021c 0222     		movs	r2, #2
 5374 021e 85F84120 		strb	r2, [r5, #65]
 5375              	.L672:
 5376 0222 2A6B     		ldr	r2, [r5, #48]
 5377 0224 2D48     		ldr	r0, .L692
 5378 0226 D063     		str	r0, [r2, #60]
 5379 0228 2A6B     		ldr	r2, [r5, #48]
 5380 022a 2D48     		ldr	r0, .L692+4
 5381 022c 1064     		str	r0, [r2, #64]
 5382 022e 2A6B     		ldr	r2, [r5, #48]
ARM GAS  /var/folders/0f/x4_g94q9649fs6s33cksjfb00000gn/T//ccmft7Jl.s 			page 92


 5383 0230 2C48     		ldr	r0, .L692+8
 5384 0232 D064     		str	r0, [r2, #76]
 5385 0234 2A68     		ldr	r2, [r5]
 5386 0236 4032     		adds	r2, r2, #64
 5387 0238 286B     		ldr	r0, [r5, #48]
 5388 023a FFF7FEFF 		bl	HAL_DMA_Start_IT
 5389 023e 0028     		cmp	r0, #0
 5390 0240 48D1     		bne	.L685
 5391 0242 2A68     		ldr	r2, [r5]
 5392 0244 D368     		ldr	r3, [r2, #12]
 5393 0246 43F48053 		orr	r3, r3, #4096
 5394 024a D360     		str	r3, [r2, #12]
 5395 024c 7AE7     		b	.L674
 5396              	.L663:
 5397 024e 0223     		movs	r3, #2
 5398 0250 85F84230 		strb	r3, [r5, #66]
 5399 0254 0120     		movs	r0, #1
 5400 0256 32E0     		b	.L653
 5401              	.L662:
 5402 0258 0222     		movs	r2, #2
 5403 025a 85F84320 		strb	r2, [r5, #67]
 5404 025e 0C2C     		cmp	r4, #12
 5405 0260 30D8     		bhi	.L681
 5406 0262 01A2     		adr	r2, .L673
 5407 0264 52F824F0 		ldr	pc, [r2, r4, lsl #2]
 5408              		.p2align 2
 5409              	.L673:
 5410 0268 19010000 		.word	.L669+1
 5411 026c C5020000 		.word	.L681+1
 5412 0270 C5020000 		.word	.L681+1
 5413 0274 C5020000 		.word	.L681+1
 5414 0278 BF010000 		.word	.L670+1
 5415 027c C5020000 		.word	.L681+1
 5416 0280 C5020000 		.word	.L681+1
 5417 0284 C5020000 		.word	.L681+1
 5418 0288 F1010000 		.word	.L671+1
 5419 028c C5020000 		.word	.L681+1
 5420 0290 C5020000 		.word	.L681+1
 5421 0294 C5020000 		.word	.L681+1
 5422 0298 23020000 		.word	.L672+1
 5423              		.p2align 1
 5424              	.L676:
 5425 029c 9968     		ldr	r1, [r3, #8]
 5426 029e 144A     		ldr	r2, .L692+20
 5427 02a0 0A40     		ands	r2, r2, r1
 5428 02a2 062A     		cmp	r2, #6
 5429 02a4 18BF     		it	ne
 5430 02a6 B2F5803F 		cmpne	r2, #65536
 5431 02aa 15D0     		beq	.L686
 5432 02ac 1A68     		ldr	r2, [r3]
 5433 02ae 42F00102 		orr	r2, r2, #1
 5434 02b2 1A60     		str	r2, [r3]
 5435 02b4 0020     		movs	r0, #0
 5436 02b6 02E0     		b	.L653
 5437              	.L678:
 5438 02b8 0220     		movs	r0, #2
 5439 02ba 00E0     		b	.L653
ARM GAS  /var/folders/0f/x4_g94q9649fs6s33cksjfb00000gn/T//ccmft7Jl.s 			page 93


 5440              	.L679:
 5441 02bc 0120     		movs	r0, #1
 5442              	.L653:
 5443 02be 38BD     		pop	{r3, r4, r5, pc}
 5444              	.L680:
 5445 02c0 0120     		movs	r0, #1
 5446 02c2 FCE7     		b	.L653
 5447              	.L681:
 5448 02c4 0120     		movs	r0, #1
 5449 02c6 FAE7     		b	.L653
 5450              	.L682:
 5451 02c8 0120     		movs	r0, #1
 5452 02ca F8E7     		b	.L653
 5453              	.L683:
 5454 02cc 0120     		movs	r0, #1
 5455 02ce F6E7     		b	.L653
 5456              	.L684:
 5457 02d0 0120     		movs	r0, #1
 5458 02d2 F4E7     		b	.L653
 5459              	.L685:
 5460 02d4 0120     		movs	r0, #1
 5461 02d6 F2E7     		b	.L653
 5462              	.L686:
 5463 02d8 0020     		movs	r0, #0
 5464 02da F0E7     		b	.L653
 5465              	.L693:
 5466              		.align	2
 5467              	.L692:
 5468 02dc 00000000 		.word	TIM_DMADelayPulseCplt
 5469 02e0 00000000 		.word	TIM_DMADelayPulseHalfCplt
 5470 02e4 00000000 		.word	TIM_DMAError
 5471 02e8 00000140 		.word	1073807360
 5472 02ec 00040140 		.word	1073808384
 5473 02f0 07000100 		.word	65543
 5475              		.section	.text.HAL_TIM_OC_Stop_DMA,"ax",%progbits
 5476              		.align	1
 5477              		.global	HAL_TIM_OC_Stop_DMA
 5478              		.syntax unified
 5479              		.thumb
 5480              		.thumb_func
 5482              	HAL_TIM_OC_Stop_DMA:
 5483              		@ args = 0, pretend = 0, frame = 0
 5484              		@ frame_needed = 0, uses_anonymous_args = 0
 5485 0000 38B5     		push	{r3, r4, r5, lr}
 5486 0002 0546     		mov	r5, r0
 5487 0004 0C46     		mov	r4, r1
 5488 0006 0C29     		cmp	r1, #12
 5489 0008 7DD8     		bhi	.L711
 5490 000a DFE801F0 		tbb	[pc, r1]
 5491              	.L697:
 5492 000e 07       		.byte	(.L700-.L697)/2
 5493 000f 7C       		.byte	(.L711-.L697)/2
 5494 0010 7C       		.byte	(.L711-.L697)/2
 5495 0011 7C       		.byte	(.L711-.L697)/2
 5496 0012 43       		.byte	(.L699-.L697)/2
 5497 0013 7C       		.byte	(.L711-.L697)/2
 5498 0014 7C       		.byte	(.L711-.L697)/2
ARM GAS  /var/folders/0f/x4_g94q9649fs6s33cksjfb00000gn/T//ccmft7Jl.s 			page 94


 5499 0015 7C       		.byte	(.L711-.L697)/2
 5500 0016 4C       		.byte	(.L698-.L697)/2
 5501 0017 7C       		.byte	(.L711-.L697)/2
 5502 0018 7C       		.byte	(.L711-.L697)/2
 5503 0019 7C       		.byte	(.L711-.L697)/2
 5504 001a 55       		.byte	(.L696-.L697)/2
 5505 001b 00       		.p2align 1
 5506              	.L700:
 5507 001c 0268     		ldr	r2, [r0]
 5508 001e D368     		ldr	r3, [r2, #12]
 5509 0020 23F40073 		bic	r3, r3, #512
 5510 0024 D360     		str	r3, [r2, #12]
 5511 0026 406A     		ldr	r0, [r0, #36]
 5512 0028 FFF7FEFF 		bl	HAL_DMA_Abort_IT
 5513              	.L701:
 5514 002c 0022     		movs	r2, #0
 5515 002e 2146     		mov	r1, r4
 5516 0030 2868     		ldr	r0, [r5]
 5517 0032 FFF7FEFF 		bl	TIM_CCxChannelCmd
 5518 0036 2B68     		ldr	r3, [r5]
 5519 0038 3449     		ldr	r1, .L713
 5520 003a 354A     		ldr	r2, .L713+4
 5521 003c 9342     		cmp	r3, r2
 5522 003e 18BF     		it	ne
 5523 0040 8B42     		cmpne	r3, r1
 5524 0042 0CD1     		bne	.L702
 5525 0044 196A     		ldr	r1, [r3, #32]
 5526 0046 334A     		ldr	r2, .L713+8
 5527 0048 0A40     		ands	r2, r2, r1
 5528 004a 42B9     		cbnz	r2, .L702
 5529 004c 196A     		ldr	r1, [r3, #32]
 5530 004e 40F24442 		movw	r2, #1092
 5531 0052 1142     		tst	r1, r2
 5532 0054 03D1     		bne	.L702
 5533 0056 5A6C     		ldr	r2, [r3, #68]
 5534 0058 22F40042 		bic	r2, r2, #32768
 5535 005c 5A64     		str	r2, [r3, #68]
 5536              	.L702:
 5537 005e 2A68     		ldr	r2, [r5]
 5538 0060 116A     		ldr	r1, [r2, #32]
 5539 0062 2C4B     		ldr	r3, .L713+8
 5540 0064 0B40     		ands	r3, r3, r1
 5541 0066 43B9     		cbnz	r3, .L703
 5542 0068 116A     		ldr	r1, [r2, #32]
 5543 006a 40F24443 		movw	r3, #1092
 5544 006e 1942     		tst	r1, r3
 5545 0070 03D1     		bne	.L703
 5546 0072 1368     		ldr	r3, [r2]
 5547 0074 23F00103 		bic	r3, r3, #1
 5548 0078 1360     		str	r3, [r2]
 5549              	.L703:
 5550 007a 102C     		cmp	r4, #16
 5551 007c 3ED8     		bhi	.L704
 5552 007e DFE804F0 		tbb	[pc, r4]
 5553              	.L706:
 5554 0082 24       		.byte	(.L710-.L706)/2
 5555 0083 3D       		.byte	(.L704-.L706)/2
ARM GAS  /var/folders/0f/x4_g94q9649fs6s33cksjfb00000gn/T//ccmft7Jl.s 			page 95


 5556 0084 3D       		.byte	(.L704-.L706)/2
 5557 0085 3D       		.byte	(.L704-.L706)/2
 5558 0086 29       		.byte	(.L709-.L706)/2
 5559 0087 3D       		.byte	(.L704-.L706)/2
 5560 0088 3D       		.byte	(.L704-.L706)/2
 5561 0089 3D       		.byte	(.L704-.L706)/2
 5562 008a 2E       		.byte	(.L708-.L706)/2
 5563 008b 3D       		.byte	(.L704-.L706)/2
 5564 008c 3D       		.byte	(.L704-.L706)/2
 5565 008d 3D       		.byte	(.L704-.L706)/2
 5566 008e 33       		.byte	(.L707-.L706)/2
 5567 008f 3D       		.byte	(.L704-.L706)/2
 5568 0090 3D       		.byte	(.L704-.L706)/2
 5569 0091 3D       		.byte	(.L704-.L706)/2
 5570 0092 38       		.byte	(.L705-.L706)/2
 5571 0093 00       		.p2align 1
 5572              	.L699:
 5573 0094 0268     		ldr	r2, [r0]
 5574 0096 D368     		ldr	r3, [r2, #12]
 5575 0098 23F48063 		bic	r3, r3, #1024
 5576 009c D360     		str	r3, [r2, #12]
 5577 009e 806A     		ldr	r0, [r0, #40]
 5578 00a0 FFF7FEFF 		bl	HAL_DMA_Abort_IT
 5579 00a4 C2E7     		b	.L701
 5580              	.L698:
 5581 00a6 0268     		ldr	r2, [r0]
 5582 00a8 D368     		ldr	r3, [r2, #12]
 5583 00aa 23F40063 		bic	r3, r3, #2048
 5584 00ae D360     		str	r3, [r2, #12]
 5585 00b0 C06A     		ldr	r0, [r0, #44]
 5586 00b2 FFF7FEFF 		bl	HAL_DMA_Abort_IT
 5587 00b6 B9E7     		b	.L701
 5588              	.L696:
 5589 00b8 0268     		ldr	r2, [r0]
 5590 00ba D368     		ldr	r3, [r2, #12]
 5591 00bc 23F48053 		bic	r3, r3, #4096
 5592 00c0 D360     		str	r3, [r2, #12]
 5593 00c2 006B     		ldr	r0, [r0, #48]
 5594 00c4 FFF7FEFF 		bl	HAL_DMA_Abort_IT
 5595 00c8 B0E7     		b	.L701
 5596              	.L710:
 5597 00ca 0123     		movs	r3, #1
 5598 00cc 85F83E30 		strb	r3, [r5, #62]
 5599 00d0 0020     		movs	r0, #0
 5600 00d2 19E0     		b	.L695
 5601              	.L709:
 5602 00d4 0123     		movs	r3, #1
 5603 00d6 85F83F30 		strb	r3, [r5, #63]
 5604 00da 0020     		movs	r0, #0
 5605 00dc 14E0     		b	.L695
 5606              	.L708:
 5607 00de 0123     		movs	r3, #1
 5608 00e0 85F84030 		strb	r3, [r5, #64]
 5609 00e4 0020     		movs	r0, #0
 5610 00e6 0FE0     		b	.L695
 5611              	.L707:
 5612 00e8 0123     		movs	r3, #1
ARM GAS  /var/folders/0f/x4_g94q9649fs6s33cksjfb00000gn/T//ccmft7Jl.s 			page 96


 5613 00ea 85F84130 		strb	r3, [r5, #65]
 5614 00ee 0020     		movs	r0, #0
 5615 00f0 0AE0     		b	.L695
 5616              	.L705:
 5617 00f2 0123     		movs	r3, #1
 5618 00f4 85F84230 		strb	r3, [r5, #66]
 5619 00f8 0020     		movs	r0, #0
 5620 00fa 05E0     		b	.L695
 5621              	.L704:
 5622 00fc 0123     		movs	r3, #1
 5623 00fe 85F84330 		strb	r3, [r5, #67]
 5624 0102 0020     		movs	r0, #0
 5625 0104 00E0     		b	.L695
 5626              	.L711:
 5627 0106 0120     		movs	r0, #1
 5628              	.L695:
 5629 0108 38BD     		pop	{r3, r4, r5, pc}
 5630              	.L714:
 5631 010a 00BF     		.align	2
 5632              	.L713:
 5633 010c 00000140 		.word	1073807360
 5634 0110 00040140 		.word	1073808384
 5635 0114 11111100 		.word	1118481
 5637              		.section	.text.HAL_TIM_PWM_Start,"ax",%progbits
 5638              		.align	1
 5639              		.global	HAL_TIM_PWM_Start
 5640              		.syntax unified
 5641              		.thumb
 5642              		.thumb_func
 5644              	HAL_TIM_PWM_Start:
 5645              		@ args = 0, pretend = 0, frame = 0
 5646              		@ frame_needed = 0, uses_anonymous_args = 0
 5647 0000 10B5     		push	{r4, lr}
 5648 0002 0446     		mov	r4, r0
 5649 0004 1029     		cmp	r1, #16
 5650 0006 28D8     		bhi	.L716
 5651 0008 DFE801F0 		tbb	[pc, r1]
 5652              	.L718:
 5653 000c 09       		.byte	(.L722-.L718)/2
 5654 000d 27       		.byte	(.L716-.L718)/2
 5655 000e 27       		.byte	(.L716-.L718)/2
 5656 000f 27       		.byte	(.L716-.L718)/2
 5657 0010 0F       		.byte	(.L721-.L718)/2
 5658 0011 27       		.byte	(.L716-.L718)/2
 5659 0012 27       		.byte	(.L716-.L718)/2
 5660 0013 27       		.byte	(.L716-.L718)/2
 5661 0014 15       		.byte	(.L720-.L718)/2
 5662 0015 27       		.byte	(.L716-.L718)/2
 5663 0016 27       		.byte	(.L716-.L718)/2
 5664 0017 27       		.byte	(.L716-.L718)/2
 5665 0018 1B       		.byte	(.L719-.L718)/2
 5666 0019 27       		.byte	(.L716-.L718)/2
 5667 001a 27       		.byte	(.L716-.L718)/2
 5668 001b 27       		.byte	(.L716-.L718)/2
 5669 001c 21       		.byte	(.L717-.L718)/2
 5670 001d 00       		.p2align 1
 5671              	.L722:
ARM GAS  /var/folders/0f/x4_g94q9649fs6s33cksjfb00000gn/T//ccmft7Jl.s 			page 97


 5672 001e 90F83E30 		ldrb	r3, [r0, #62]	@ zero_extendqisi2
 5673 0022 013B     		subs	r3, r3, #1
 5674 0024 18BF     		it	ne
 5675 0026 0123     		movne	r3, #1
 5676 0028 1CE0     		b	.L723
 5677              	.L721:
 5678 002a 90F83F30 		ldrb	r3, [r0, #63]	@ zero_extendqisi2
 5679 002e 013B     		subs	r3, r3, #1
 5680 0030 18BF     		it	ne
 5681 0032 0123     		movne	r3, #1
 5682 0034 16E0     		b	.L723
 5683              	.L720:
 5684 0036 90F84030 		ldrb	r3, [r0, #64]	@ zero_extendqisi2
 5685 003a 013B     		subs	r3, r3, #1
 5686 003c 18BF     		it	ne
 5687 003e 0123     		movne	r3, #1
 5688 0040 10E0     		b	.L723
 5689              	.L719:
 5690 0042 90F84130 		ldrb	r3, [r0, #65]	@ zero_extendqisi2
 5691 0046 013B     		subs	r3, r3, #1
 5692 0048 18BF     		it	ne
 5693 004a 0123     		movne	r3, #1
 5694 004c 0AE0     		b	.L723
 5695              	.L717:
 5696 004e 90F84230 		ldrb	r3, [r0, #66]	@ zero_extendqisi2
 5697 0052 013B     		subs	r3, r3, #1
 5698 0054 18BF     		it	ne
 5699 0056 0123     		movne	r3, #1
 5700 0058 04E0     		b	.L723
 5701              	.L716:
 5702 005a 90F84330 		ldrb	r3, [r0, #67]	@ zero_extendqisi2
 5703 005e 013B     		subs	r3, r3, #1
 5704 0060 18BF     		it	ne
 5705 0062 0123     		movne	r3, #1
 5706              	.L723:
 5707 0064 002B     		cmp	r3, #0
 5708 0066 65D1     		bne	.L736
 5709 0068 1029     		cmp	r1, #16
 5710 006a 1ED8     		bhi	.L725
 5711 006c DFE801F0 		tbb	[pc, r1]
 5712              	.L727:
 5713 0070 09       		.byte	(.L731-.L727)/2
 5714 0071 1D       		.byte	(.L725-.L727)/2
 5715 0072 1D       		.byte	(.L725-.L727)/2
 5716 0073 1D       		.byte	(.L725-.L727)/2
 5717 0074 0D       		.byte	(.L730-.L727)/2
 5718 0075 1D       		.byte	(.L725-.L727)/2
 5719 0076 1D       		.byte	(.L725-.L727)/2
 5720 0077 1D       		.byte	(.L725-.L727)/2
 5721 0078 11       		.byte	(.L729-.L727)/2
 5722 0079 1D       		.byte	(.L725-.L727)/2
 5723 007a 1D       		.byte	(.L725-.L727)/2
 5724 007b 1D       		.byte	(.L725-.L727)/2
 5725 007c 15       		.byte	(.L728-.L727)/2
 5726 007d 1D       		.byte	(.L725-.L727)/2
 5727 007e 1D       		.byte	(.L725-.L727)/2
 5728 007f 1D       		.byte	(.L725-.L727)/2
ARM GAS  /var/folders/0f/x4_g94q9649fs6s33cksjfb00000gn/T//ccmft7Jl.s 			page 98


 5729 0080 19       		.byte	(.L726-.L727)/2
 5730 0081 00       		.p2align 1
 5731              	.L731:
 5732 0082 0223     		movs	r3, #2
 5733 0084 84F83E30 		strb	r3, [r4, #62]
 5734 0088 12E0     		b	.L732
 5735              	.L730:
 5736 008a 0223     		movs	r3, #2
 5737 008c 84F83F30 		strb	r3, [r4, #63]
 5738 0090 0EE0     		b	.L732
 5739              	.L729:
 5740 0092 0223     		movs	r3, #2
 5741 0094 84F84030 		strb	r3, [r4, #64]
 5742 0098 0AE0     		b	.L732
 5743              	.L728:
 5744 009a 0223     		movs	r3, #2
 5745 009c 84F84130 		strb	r3, [r4, #65]
 5746 00a0 06E0     		b	.L732
 5747              	.L726:
 5748 00a2 0223     		movs	r3, #2
 5749 00a4 84F84230 		strb	r3, [r4, #66]
 5750 00a8 02E0     		b	.L732
 5751              	.L725:
 5752 00aa 0223     		movs	r3, #2
 5753 00ac 84F84330 		strb	r3, [r4, #67]
 5754              	.L732:
 5755 00b0 0122     		movs	r2, #1
 5756 00b2 2068     		ldr	r0, [r4]
 5757 00b4 FFF7FEFF 		bl	TIM_CCxChannelCmd
 5758 00b8 2368     		ldr	r3, [r4]
 5759 00ba 2049     		ldr	r1, .L739
 5760 00bc 204A     		ldr	r2, .L739+4
 5761 00be 9342     		cmp	r3, r2
 5762 00c0 18BF     		it	ne
 5763 00c2 8B42     		cmpne	r3, r1
 5764 00c4 03D1     		bne	.L733
 5765 00c6 5A6C     		ldr	r2, [r3, #68]
 5766 00c8 42F40042 		orr	r2, r2, #32768
 5767 00cc 5A64     		str	r2, [r3, #68]
 5768              	.L733:
 5769 00ce 2368     		ldr	r3, [r4]
 5770 00d0 1A4A     		ldr	r2, .L739
 5771 00d2 B3F1804F 		cmp	r3, #1073741824
 5772 00d6 18BF     		it	ne
 5773 00d8 9342     		cmpne	r3, r2
 5774 00da 1DD0     		beq	.L734
 5775 00dc A2F57C42 		sub	r2, r2, #64512
 5776 00e0 9342     		cmp	r3, r2
 5777 00e2 19D0     		beq	.L734
 5778 00e4 02F58062 		add	r2, r2, #1024
 5779 00e8 9342     		cmp	r3, r2
 5780 00ea 15D0     		beq	.L734
 5781 00ec 02F58062 		add	r2, r2, #1024
 5782 00f0 9342     		cmp	r3, r2
 5783 00f2 11D0     		beq	.L734
 5784 00f4 02F57842 		add	r2, r2, #63488
 5785 00f8 9342     		cmp	r3, r2
ARM GAS  /var/folders/0f/x4_g94q9649fs6s33cksjfb00000gn/T//ccmft7Jl.s 			page 99


 5786 00fa 0DD0     		beq	.L734
 5787 00fc 02F57052 		add	r2, r2, #15360
 5788 0100 9342     		cmp	r3, r2
 5789 0102 09D0     		beq	.L734
 5790 0104 A2F59432 		sub	r2, r2, #75776
 5791 0108 9342     		cmp	r3, r2
 5792 010a 05D0     		beq	.L734
 5793 010c 1A68     		ldr	r2, [r3]
 5794 010e 42F00102 		orr	r2, r2, #1
 5795 0112 1A60     		str	r2, [r3]
 5796 0114 0020     		movs	r0, #0
 5797 0116 0EE0     		b	.L724
 5798              	.L734:
 5799 0118 9968     		ldr	r1, [r3, #8]
 5800 011a 0A4A     		ldr	r2, .L739+8
 5801 011c 0A40     		ands	r2, r2, r1
 5802 011e 062A     		cmp	r2, #6
 5803 0120 18BF     		it	ne
 5804 0122 B2F5803F 		cmpne	r2, #65536
 5805 0126 07D0     		beq	.L737
 5806 0128 1A68     		ldr	r2, [r3]
 5807 012a 42F00102 		orr	r2, r2, #1
 5808 012e 1A60     		str	r2, [r3]
 5809 0130 0020     		movs	r0, #0
 5810 0132 00E0     		b	.L724
 5811              	.L736:
 5812 0134 0120     		movs	r0, #1
 5813              	.L724:
 5814 0136 10BD     		pop	{r4, pc}
 5815              	.L737:
 5816 0138 0020     		movs	r0, #0
 5817 013a FCE7     		b	.L724
 5818              	.L740:
 5819              		.align	2
 5820              	.L739:
 5821 013c 00000140 		.word	1073807360
 5822 0140 00040140 		.word	1073808384
 5823 0144 07000100 		.word	65543
 5825              		.section	.text.HAL_TIM_PWM_Stop,"ax",%progbits
 5826              		.align	1
 5827              		.global	HAL_TIM_PWM_Stop
 5828              		.syntax unified
 5829              		.thumb
 5830              		.thumb_func
 5832              	HAL_TIM_PWM_Stop:
 5833              		@ args = 0, pretend = 0, frame = 0
 5834              		@ frame_needed = 0, uses_anonymous_args = 0
 5835 0000 38B5     		push	{r3, r4, r5, lr}
 5836 0002 0446     		mov	r4, r0
 5837 0004 0D46     		mov	r5, r1
 5838 0006 0022     		movs	r2, #0
 5839 0008 0068     		ldr	r0, [r0]
 5840 000a FFF7FEFF 		bl	TIM_CCxChannelCmd
 5841 000e 2368     		ldr	r3, [r4]
 5842 0010 2349     		ldr	r1, .L753
 5843 0012 244A     		ldr	r2, .L753+4
 5844 0014 9342     		cmp	r3, r2
ARM GAS  /var/folders/0f/x4_g94q9649fs6s33cksjfb00000gn/T//ccmft7Jl.s 			page 100


 5845 0016 18BF     		it	ne
 5846 0018 8B42     		cmpne	r3, r1
 5847 001a 0CD1     		bne	.L742
 5848 001c 196A     		ldr	r1, [r3, #32]
 5849 001e 224A     		ldr	r2, .L753+8
 5850 0020 0A40     		ands	r2, r2, r1
 5851 0022 42B9     		cbnz	r2, .L742
 5852 0024 196A     		ldr	r1, [r3, #32]
 5853 0026 40F24442 		movw	r2, #1092
 5854 002a 1142     		tst	r1, r2
 5855 002c 03D1     		bne	.L742
 5856 002e 5A6C     		ldr	r2, [r3, #68]
 5857 0030 22F40042 		bic	r2, r2, #32768
 5858 0034 5A64     		str	r2, [r3, #68]
 5859              	.L742:
 5860 0036 2268     		ldr	r2, [r4]
 5861 0038 116A     		ldr	r1, [r2, #32]
 5862 003a 1B4B     		ldr	r3, .L753+8
 5863 003c 0B40     		ands	r3, r3, r1
 5864 003e 43B9     		cbnz	r3, .L743
 5865 0040 116A     		ldr	r1, [r2, #32]
 5866 0042 40F24443 		movw	r3, #1092
 5867 0046 1942     		tst	r1, r3
 5868 0048 03D1     		bne	.L743
 5869 004a 1368     		ldr	r3, [r2]
 5870 004c 23F00103 		bic	r3, r3, #1
 5871 0050 1360     		str	r3, [r2]
 5872              	.L743:
 5873 0052 102D     		cmp	r5, #16
 5874 0054 1ED8     		bhi	.L744
 5875 0056 DFE805F0 		tbb	[pc, r5]
 5876              	.L746:
 5877 005a 09       		.byte	(.L750-.L746)/2
 5878 005b 1D       		.byte	(.L744-.L746)/2
 5879 005c 1D       		.byte	(.L744-.L746)/2
 5880 005d 1D       		.byte	(.L744-.L746)/2
 5881 005e 0D       		.byte	(.L749-.L746)/2
 5882 005f 1D       		.byte	(.L744-.L746)/2
 5883 0060 1D       		.byte	(.L744-.L746)/2
 5884 0061 1D       		.byte	(.L744-.L746)/2
 5885 0062 11       		.byte	(.L748-.L746)/2
 5886 0063 1D       		.byte	(.L744-.L746)/2
 5887 0064 1D       		.byte	(.L744-.L746)/2
 5888 0065 1D       		.byte	(.L744-.L746)/2
 5889 0066 15       		.byte	(.L747-.L746)/2
 5890 0067 1D       		.byte	(.L744-.L746)/2
 5891 0068 1D       		.byte	(.L744-.L746)/2
 5892 0069 1D       		.byte	(.L744-.L746)/2
 5893 006a 19       		.byte	(.L745-.L746)/2
 5894 006b 00       		.p2align 1
 5895              	.L750:
 5896 006c 0123     		movs	r3, #1
 5897 006e 84F83E30 		strb	r3, [r4, #62]
 5898 0072 12E0     		b	.L751
 5899              	.L749:
 5900 0074 0123     		movs	r3, #1
 5901 0076 84F83F30 		strb	r3, [r4, #63]
ARM GAS  /var/folders/0f/x4_g94q9649fs6s33cksjfb00000gn/T//ccmft7Jl.s 			page 101


 5902 007a 0EE0     		b	.L751
 5903              	.L748:
 5904 007c 0123     		movs	r3, #1
 5905 007e 84F84030 		strb	r3, [r4, #64]
 5906 0082 0AE0     		b	.L751
 5907              	.L747:
 5908 0084 0123     		movs	r3, #1
 5909 0086 84F84130 		strb	r3, [r4, #65]
 5910 008a 06E0     		b	.L751
 5911              	.L745:
 5912 008c 0123     		movs	r3, #1
 5913 008e 84F84230 		strb	r3, [r4, #66]
 5914 0092 02E0     		b	.L751
 5915              	.L744:
 5916 0094 0123     		movs	r3, #1
 5917 0096 84F84330 		strb	r3, [r4, #67]
 5918              	.L751:
 5919 009a 0020     		movs	r0, #0
 5920 009c 38BD     		pop	{r3, r4, r5, pc}
 5921              	.L754:
 5922 009e 00BF     		.align	2
 5923              	.L753:
 5924 00a0 00000140 		.word	1073807360
 5925 00a4 00040140 		.word	1073808384
 5926 00a8 11111100 		.word	1118481
 5928              		.section	.text.HAL_TIM_PWM_Start_IT,"ax",%progbits
 5929              		.align	1
 5930              		.global	HAL_TIM_PWM_Start_IT
 5931              		.syntax unified
 5932              		.thumb
 5933              		.thumb_func
 5935              	HAL_TIM_PWM_Start_IT:
 5936              		@ args = 0, pretend = 0, frame = 0
 5937              		@ frame_needed = 0, uses_anonymous_args = 0
 5938 0000 10B5     		push	{r4, lr}
 5939 0002 0446     		mov	r4, r0
 5940 0004 1029     		cmp	r1, #16
 5941 0006 28D8     		bhi	.L756
 5942 0008 DFE801F0 		tbb	[pc, r1]
 5943              	.L758:
 5944 000c 09       		.byte	(.L762-.L758)/2
 5945 000d 27       		.byte	(.L756-.L758)/2
 5946 000e 27       		.byte	(.L756-.L758)/2
 5947 000f 27       		.byte	(.L756-.L758)/2
 5948 0010 0F       		.byte	(.L761-.L758)/2
 5949 0011 27       		.byte	(.L756-.L758)/2
 5950 0012 27       		.byte	(.L756-.L758)/2
 5951 0013 27       		.byte	(.L756-.L758)/2
 5952 0014 15       		.byte	(.L760-.L758)/2
 5953 0015 27       		.byte	(.L756-.L758)/2
 5954 0016 27       		.byte	(.L756-.L758)/2
 5955 0017 27       		.byte	(.L756-.L758)/2
 5956 0018 1B       		.byte	(.L759-.L758)/2
 5957 0019 27       		.byte	(.L756-.L758)/2
 5958 001a 27       		.byte	(.L756-.L758)/2
 5959 001b 27       		.byte	(.L756-.L758)/2
 5960 001c 21       		.byte	(.L757-.L758)/2
ARM GAS  /var/folders/0f/x4_g94q9649fs6s33cksjfb00000gn/T//ccmft7Jl.s 			page 102


 5961 001d 00       		.p2align 1
 5962              	.L762:
 5963 001e 90F83E30 		ldrb	r3, [r0, #62]	@ zero_extendqisi2
 5964 0022 013B     		subs	r3, r3, #1
 5965 0024 18BF     		it	ne
 5966 0026 0123     		movne	r3, #1
 5967 0028 1CE0     		b	.L763
 5968              	.L761:
 5969 002a 90F83F30 		ldrb	r3, [r0, #63]	@ zero_extendqisi2
 5970 002e 013B     		subs	r3, r3, #1
 5971 0030 18BF     		it	ne
 5972 0032 0123     		movne	r3, #1
 5973 0034 16E0     		b	.L763
 5974              	.L760:
 5975 0036 90F84030 		ldrb	r3, [r0, #64]	@ zero_extendqisi2
 5976 003a 013B     		subs	r3, r3, #1
 5977 003c 18BF     		it	ne
 5978 003e 0123     		movne	r3, #1
 5979 0040 10E0     		b	.L763
 5980              	.L759:
 5981 0042 90F84130 		ldrb	r3, [r0, #65]	@ zero_extendqisi2
 5982 0046 013B     		subs	r3, r3, #1
 5983 0048 18BF     		it	ne
 5984 004a 0123     		movne	r3, #1
 5985 004c 0AE0     		b	.L763
 5986              	.L757:
 5987 004e 90F84230 		ldrb	r3, [r0, #66]	@ zero_extendqisi2
 5988 0052 013B     		subs	r3, r3, #1
 5989 0054 18BF     		it	ne
 5990 0056 0123     		movne	r3, #1
 5991 0058 04E0     		b	.L763
 5992              	.L756:
 5993 005a 90F84330 		ldrb	r3, [r0, #67]	@ zero_extendqisi2
 5994 005e 013B     		subs	r3, r3, #1
 5995 0060 18BF     		it	ne
 5996 0062 0123     		movne	r3, #1
 5997              	.L763:
 5998 0064 002B     		cmp	r3, #0
 5999 0066 40F09980 		bne	.L781
 6000 006a 1029     		cmp	r1, #16
 6001 006c 66D8     		bhi	.L765
 6002 006e DFE801F0 		tbb	[pc, r1]
 6003              	.L767:
 6004 0072 09       		.byte	(.L771-.L767)/2
 6005 0073 65       		.byte	(.L765-.L767)/2
 6006 0074 65       		.byte	(.L765-.L767)/2
 6007 0075 65       		.byte	(.L765-.L767)/2
 6008 0076 45       		.byte	(.L770-.L767)/2
 6009 0077 65       		.byte	(.L765-.L767)/2
 6010 0078 65       		.byte	(.L765-.L767)/2
 6011 0079 65       		.byte	(.L765-.L767)/2
 6012 007a 4E       		.byte	(.L769-.L767)/2
 6013 007b 65       		.byte	(.L765-.L767)/2
 6014 007c 65       		.byte	(.L765-.L767)/2
 6015 007d 65       		.byte	(.L765-.L767)/2
 6016 007e 57       		.byte	(.L768-.L767)/2
 6017 007f 65       		.byte	(.L765-.L767)/2
ARM GAS  /var/folders/0f/x4_g94q9649fs6s33cksjfb00000gn/T//ccmft7Jl.s 			page 103


 6018 0080 65       		.byte	(.L765-.L767)/2
 6019 0081 65       		.byte	(.L765-.L767)/2
 6020 0082 60       		.byte	(.L766-.L767)/2
 6021 0083 00       		.p2align 1
 6022              	.L771:
 6023 0084 0223     		movs	r3, #2
 6024 0086 84F83E30 		strb	r3, [r4, #62]
 6025              	.L772:
 6026 008a 2268     		ldr	r2, [r4]
 6027 008c D368     		ldr	r3, [r2, #12]
 6028 008e 43F00203 		orr	r3, r3, #2
 6029 0092 D360     		str	r3, [r2, #12]
 6030              	.L777:
 6031 0094 0122     		movs	r2, #1
 6032 0096 2068     		ldr	r0, [r4]
 6033 0098 FFF7FEFF 		bl	TIM_CCxChannelCmd
 6034 009c 2368     		ldr	r3, [r4]
 6035 009e 4249     		ldr	r1, .L789
 6036 00a0 424A     		ldr	r2, .L789+4
 6037 00a2 9342     		cmp	r3, r2
 6038 00a4 18BF     		it	ne
 6039 00a6 8B42     		cmpne	r3, r1
 6040 00a8 03D1     		bne	.L778
 6041 00aa 5A6C     		ldr	r2, [r3, #68]
 6042 00ac 42F40042 		orr	r2, r2, #32768
 6043 00b0 5A64     		str	r2, [r3, #68]
 6044              	.L778:
 6045 00b2 2368     		ldr	r3, [r4]
 6046 00b4 3C4A     		ldr	r2, .L789
 6047 00b6 B3F1804F 		cmp	r3, #1073741824
 6048 00ba 18BF     		it	ne
 6049 00bc 9342     		cmpne	r3, r2
 6050 00be 5FD0     		beq	.L779
 6051 00c0 A2F57C42 		sub	r2, r2, #64512
 6052 00c4 9342     		cmp	r3, r2
 6053 00c6 5BD0     		beq	.L779
 6054 00c8 02F58062 		add	r2, r2, #1024
 6055 00cc 9342     		cmp	r3, r2
 6056 00ce 57D0     		beq	.L779
 6057 00d0 02F58062 		add	r2, r2, #1024
 6058 00d4 9342     		cmp	r3, r2
 6059 00d6 53D0     		beq	.L779
 6060 00d8 02F57842 		add	r2, r2, #63488
 6061 00dc 9342     		cmp	r3, r2
 6062 00de 4FD0     		beq	.L779
 6063 00e0 02F57052 		add	r2, r2, #15360
 6064 00e4 9342     		cmp	r3, r2
 6065 00e6 4BD0     		beq	.L779
 6066 00e8 A2F59432 		sub	r2, r2, #75776
 6067 00ec 9342     		cmp	r3, r2
 6068 00ee 47D0     		beq	.L779
 6069 00f0 1A68     		ldr	r2, [r3]
 6070 00f2 42F00102 		orr	r2, r2, #1
 6071 00f6 1A60     		str	r2, [r3]
 6072 00f8 0020     		movs	r0, #0
 6073 00fa 50E0     		b	.L764
 6074              	.L770:
ARM GAS  /var/folders/0f/x4_g94q9649fs6s33cksjfb00000gn/T//ccmft7Jl.s 			page 104


 6075 00fc 0223     		movs	r3, #2
 6076 00fe 84F83F30 		strb	r3, [r4, #63]
 6077              	.L773:
 6078 0102 2268     		ldr	r2, [r4]
 6079 0104 D368     		ldr	r3, [r2, #12]
 6080 0106 43F00403 		orr	r3, r3, #4
 6081 010a D360     		str	r3, [r2, #12]
 6082 010c C2E7     		b	.L777
 6083              	.L769:
 6084 010e 0223     		movs	r3, #2
 6085 0110 84F84030 		strb	r3, [r4, #64]
 6086              	.L774:
 6087 0114 2268     		ldr	r2, [r4]
 6088 0116 D368     		ldr	r3, [r2, #12]
 6089 0118 43F00803 		orr	r3, r3, #8
 6090 011c D360     		str	r3, [r2, #12]
 6091 011e B9E7     		b	.L777
 6092              	.L768:
 6093 0120 0223     		movs	r3, #2
 6094 0122 84F84130 		strb	r3, [r4, #65]
 6095              	.L775:
 6096 0126 2268     		ldr	r2, [r4]
 6097 0128 D368     		ldr	r3, [r2, #12]
 6098 012a 43F01003 		orr	r3, r3, #16
 6099 012e D360     		str	r3, [r2, #12]
 6100 0130 B0E7     		b	.L777
 6101              	.L766:
 6102 0132 0223     		movs	r3, #2
 6103 0134 84F84230 		strb	r3, [r4, #66]
 6104 0138 0120     		movs	r0, #1
 6105 013a 30E0     		b	.L764
 6106              	.L765:
 6107 013c 0223     		movs	r3, #2
 6108 013e 84F84330 		strb	r3, [r4, #67]
 6109 0142 0C29     		cmp	r1, #12
 6110 0144 2CD8     		bhi	.L782
 6111 0146 01A3     		adr	r3, .L776
 6112 0148 53F821F0 		ldr	pc, [r3, r1, lsl #2]
 6113              		.p2align 2
 6114              	.L776:
 6115 014c 8B000000 		.word	.L772+1
 6116 0150 A1010000 		.word	.L782+1
 6117 0154 A1010000 		.word	.L782+1
 6118 0158 A1010000 		.word	.L782+1
 6119 015c 03010000 		.word	.L773+1
 6120 0160 A1010000 		.word	.L782+1
 6121 0164 A1010000 		.word	.L782+1
 6122 0168 A1010000 		.word	.L782+1
 6123 016c 15010000 		.word	.L774+1
 6124 0170 A1010000 		.word	.L782+1
 6125 0174 A1010000 		.word	.L782+1
 6126 0178 A1010000 		.word	.L782+1
 6127 017c 27010000 		.word	.L775+1
 6128              		.p2align 1
 6129              	.L779:
 6130 0180 9968     		ldr	r1, [r3, #8]
 6131 0182 0B4A     		ldr	r2, .L789+8
ARM GAS  /var/folders/0f/x4_g94q9649fs6s33cksjfb00000gn/T//ccmft7Jl.s 			page 105


 6132 0184 0A40     		ands	r2, r2, r1
 6133 0186 062A     		cmp	r2, #6
 6134 0188 18BF     		it	ne
 6135 018a B2F5803F 		cmpne	r2, #65536
 6136 018e 09D0     		beq	.L783
 6137 0190 1A68     		ldr	r2, [r3]
 6138 0192 42F00102 		orr	r2, r2, #1
 6139 0196 1A60     		str	r2, [r3]
 6140 0198 0020     		movs	r0, #0
 6141 019a 00E0     		b	.L764
 6142              	.L781:
 6143 019c 0120     		movs	r0, #1
 6144              	.L764:
 6145 019e 10BD     		pop	{r4, pc}
 6146              	.L782:
 6147 01a0 0120     		movs	r0, #1
 6148 01a2 FCE7     		b	.L764
 6149              	.L783:
 6150 01a4 0020     		movs	r0, #0
 6151 01a6 FAE7     		b	.L764
 6152              	.L790:
 6153              		.align	2
 6154              	.L789:
 6155 01a8 00000140 		.word	1073807360
 6156 01ac 00040140 		.word	1073808384
 6157 01b0 07000100 		.word	65543
 6159              		.section	.text.HAL_TIM_PWM_Stop_IT,"ax",%progbits
 6160              		.align	1
 6161              		.global	HAL_TIM_PWM_Stop_IT
 6162              		.syntax unified
 6163              		.thumb
 6164              		.thumb_func
 6166              	HAL_TIM_PWM_Stop_IT:
 6167              		@ args = 0, pretend = 0, frame = 0
 6168              		@ frame_needed = 0, uses_anonymous_args = 0
 6169 0000 38B5     		push	{r3, r4, r5, lr}
 6170 0002 0546     		mov	r5, r0
 6171 0004 0C46     		mov	r4, r1
 6172 0006 0C29     		cmp	r1, #12
 6173 0008 71D8     		bhi	.L808
 6174 000a DFE801F0 		tbb	[pc, r1]
 6175              	.L794:
 6176 000e 07       		.byte	(.L797-.L794)/2
 6177 000f 70       		.byte	(.L808-.L794)/2
 6178 0010 70       		.byte	(.L808-.L794)/2
 6179 0011 70       		.byte	(.L808-.L794)/2
 6180 0012 40       		.byte	(.L796-.L794)/2
 6181 0013 70       		.byte	(.L808-.L794)/2
 6182 0014 70       		.byte	(.L808-.L794)/2
 6183 0015 70       		.byte	(.L808-.L794)/2
 6184 0016 46       		.byte	(.L795-.L794)/2
 6185 0017 70       		.byte	(.L808-.L794)/2
 6186 0018 70       		.byte	(.L808-.L794)/2
 6187 0019 70       		.byte	(.L808-.L794)/2
 6188 001a 4C       		.byte	(.L793-.L794)/2
 6189 001b 00       		.p2align 1
 6190              	.L797:
ARM GAS  /var/folders/0f/x4_g94q9649fs6s33cksjfb00000gn/T//ccmft7Jl.s 			page 106


 6191 001c 0268     		ldr	r2, [r0]
 6192 001e D368     		ldr	r3, [r2, #12]
 6193 0020 23F00203 		bic	r3, r3, #2
 6194 0024 D360     		str	r3, [r2, #12]
 6195              	.L798:
 6196 0026 0022     		movs	r2, #0
 6197 0028 2146     		mov	r1, r4
 6198 002a 2868     		ldr	r0, [r5]
 6199 002c FFF7FEFF 		bl	TIM_CCxChannelCmd
 6200 0030 2B68     		ldr	r3, [r5]
 6201 0032 3049     		ldr	r1, .L810
 6202 0034 304A     		ldr	r2, .L810+4
 6203 0036 9342     		cmp	r3, r2
 6204 0038 18BF     		it	ne
 6205 003a 8B42     		cmpne	r3, r1
 6206 003c 0CD1     		bne	.L799
 6207 003e 196A     		ldr	r1, [r3, #32]
 6208 0040 2E4A     		ldr	r2, .L810+8
 6209 0042 0A40     		ands	r2, r2, r1
 6210 0044 42B9     		cbnz	r2, .L799
 6211 0046 196A     		ldr	r1, [r3, #32]
 6212 0048 40F24442 		movw	r2, #1092
 6213 004c 1142     		tst	r1, r2
 6214 004e 03D1     		bne	.L799
 6215 0050 5A6C     		ldr	r2, [r3, #68]
 6216 0052 22F40042 		bic	r2, r2, #32768
 6217 0056 5A64     		str	r2, [r3, #68]
 6218              	.L799:
 6219 0058 2A68     		ldr	r2, [r5]
 6220 005a 116A     		ldr	r1, [r2, #32]
 6221 005c 274B     		ldr	r3, .L810+8
 6222 005e 0B40     		ands	r3, r3, r1
 6223 0060 43B9     		cbnz	r3, .L800
 6224 0062 116A     		ldr	r1, [r2, #32]
 6225 0064 40F24443 		movw	r3, #1092
 6226 0068 1942     		tst	r1, r3
 6227 006a 03D1     		bne	.L800
 6228 006c 1368     		ldr	r3, [r2]
 6229 006e 23F00103 		bic	r3, r3, #1
 6230 0072 1360     		str	r3, [r2]
 6231              	.L800:
 6232 0074 102C     		cmp	r4, #16
 6233 0076 35D8     		bhi	.L801
 6234 0078 DFE804F0 		tbb	[pc, r4]
 6235              	.L803:
 6236 007c 1B       		.byte	(.L807-.L803)/2
 6237 007d 34       		.byte	(.L801-.L803)/2
 6238 007e 34       		.byte	(.L801-.L803)/2
 6239 007f 34       		.byte	(.L801-.L803)/2
 6240 0080 20       		.byte	(.L806-.L803)/2
 6241 0081 34       		.byte	(.L801-.L803)/2
 6242 0082 34       		.byte	(.L801-.L803)/2
 6243 0083 34       		.byte	(.L801-.L803)/2
 6244 0084 25       		.byte	(.L805-.L803)/2
 6245 0085 34       		.byte	(.L801-.L803)/2
 6246 0086 34       		.byte	(.L801-.L803)/2
 6247 0087 34       		.byte	(.L801-.L803)/2
ARM GAS  /var/folders/0f/x4_g94q9649fs6s33cksjfb00000gn/T//ccmft7Jl.s 			page 107


 6248 0088 2A       		.byte	(.L804-.L803)/2
 6249 0089 34       		.byte	(.L801-.L803)/2
 6250 008a 34       		.byte	(.L801-.L803)/2
 6251 008b 34       		.byte	(.L801-.L803)/2
 6252 008c 2F       		.byte	(.L802-.L803)/2
 6253 008d 00       		.p2align 1
 6254              	.L796:
 6255 008e 0268     		ldr	r2, [r0]
 6256 0090 D368     		ldr	r3, [r2, #12]
 6257 0092 23F00403 		bic	r3, r3, #4
 6258 0096 D360     		str	r3, [r2, #12]
 6259 0098 C5E7     		b	.L798
 6260              	.L795:
 6261 009a 0268     		ldr	r2, [r0]
 6262 009c D368     		ldr	r3, [r2, #12]
 6263 009e 23F00803 		bic	r3, r3, #8
 6264 00a2 D360     		str	r3, [r2, #12]
 6265 00a4 BFE7     		b	.L798
 6266              	.L793:
 6267 00a6 0268     		ldr	r2, [r0]
 6268 00a8 D368     		ldr	r3, [r2, #12]
 6269 00aa 23F01003 		bic	r3, r3, #16
 6270 00ae D360     		str	r3, [r2, #12]
 6271 00b0 B9E7     		b	.L798
 6272              	.L807:
 6273 00b2 0123     		movs	r3, #1
 6274 00b4 85F83E30 		strb	r3, [r5, #62]
 6275 00b8 0020     		movs	r0, #0
 6276 00ba 19E0     		b	.L792
 6277              	.L806:
 6278 00bc 0123     		movs	r3, #1
 6279 00be 85F83F30 		strb	r3, [r5, #63]
 6280 00c2 0020     		movs	r0, #0
 6281 00c4 14E0     		b	.L792
 6282              	.L805:
 6283 00c6 0123     		movs	r3, #1
 6284 00c8 85F84030 		strb	r3, [r5, #64]
 6285 00cc 0020     		movs	r0, #0
 6286 00ce 0FE0     		b	.L792
 6287              	.L804:
 6288 00d0 0123     		movs	r3, #1
 6289 00d2 85F84130 		strb	r3, [r5, #65]
 6290 00d6 0020     		movs	r0, #0
 6291 00d8 0AE0     		b	.L792
 6292              	.L802:
 6293 00da 0123     		movs	r3, #1
 6294 00dc 85F84230 		strb	r3, [r5, #66]
 6295 00e0 0020     		movs	r0, #0
 6296 00e2 05E0     		b	.L792
 6297              	.L801:
 6298 00e4 0123     		movs	r3, #1
 6299 00e6 85F84330 		strb	r3, [r5, #67]
 6300 00ea 0020     		movs	r0, #0
 6301 00ec 00E0     		b	.L792
 6302              	.L808:
 6303 00ee 0120     		movs	r0, #1
 6304              	.L792:
ARM GAS  /var/folders/0f/x4_g94q9649fs6s33cksjfb00000gn/T//ccmft7Jl.s 			page 108


 6305 00f0 38BD     		pop	{r3, r4, r5, pc}
 6306              	.L811:
 6307 00f2 00BF     		.align	2
 6308              	.L810:
 6309 00f4 00000140 		.word	1073807360
 6310 00f8 00040140 		.word	1073808384
 6311 00fc 11111100 		.word	1118481
 6313              		.section	.text.HAL_TIM_PWM_Start_DMA,"ax",%progbits
 6314              		.align	1
 6315              		.global	HAL_TIM_PWM_Start_DMA
 6316              		.syntax unified
 6317              		.thumb
 6318              		.thumb_func
 6320              	HAL_TIM_PWM_Start_DMA:
 6321              		@ args = 0, pretend = 0, frame = 0
 6322              		@ frame_needed = 0, uses_anonymous_args = 0
 6323 0000 38B5     		push	{r3, r4, r5, lr}
 6324 0002 0546     		mov	r5, r0
 6325 0004 0C46     		mov	r4, r1
 6326 0006 1146     		mov	r1, r2
 6327 0008 102C     		cmp	r4, #16
 6328 000a 2DD8     		bhi	.L813
 6329 000c DFE804F0 		tbb	[pc, r4]
 6330              	.L815:
 6331 0010 09       		.byte	(.L819-.L815)/2
 6332 0011 2C       		.byte	(.L813-.L815)/2
 6333 0012 2C       		.byte	(.L813-.L815)/2
 6334 0013 2C       		.byte	(.L813-.L815)/2
 6335 0014 10       		.byte	(.L818-.L815)/2
 6336 0015 2C       		.byte	(.L813-.L815)/2
 6337 0016 2C       		.byte	(.L813-.L815)/2
 6338 0017 2C       		.byte	(.L813-.L815)/2
 6339 0018 17       		.byte	(.L817-.L815)/2
 6340 0019 2C       		.byte	(.L813-.L815)/2
 6341 001a 2C       		.byte	(.L813-.L815)/2
 6342 001b 2C       		.byte	(.L813-.L815)/2
 6343 001c 1E       		.byte	(.L816-.L815)/2
 6344 001d 2C       		.byte	(.L813-.L815)/2
 6345 001e 2C       		.byte	(.L813-.L815)/2
 6346 001f 2C       		.byte	(.L813-.L815)/2
 6347 0020 25       		.byte	(.L814-.L815)/2
 6348 0021 00       		.p2align 1
 6349              	.L819:
 6350 0022 90F83E00 		ldrb	r0, [r0, #62]	@ zero_extendqisi2
 6351 0026 0228     		cmp	r0, #2
 6352 0028 14BF     		ite	ne
 6353 002a 0020     		movne	r0, #0
 6354 002c 0120     		moveq	r0, #1
 6355 002e 21E0     		b	.L820
 6356              	.L818:
 6357 0030 90F83F00 		ldrb	r0, [r0, #63]	@ zero_extendqisi2
 6358 0034 0228     		cmp	r0, #2
 6359 0036 14BF     		ite	ne
 6360 0038 0020     		movne	r0, #0
 6361 003a 0120     		moveq	r0, #1
 6362 003c 1AE0     		b	.L820
 6363              	.L817:
ARM GAS  /var/folders/0f/x4_g94q9649fs6s33cksjfb00000gn/T//ccmft7Jl.s 			page 109


 6364 003e 90F84000 		ldrb	r0, [r0, #64]	@ zero_extendqisi2
 6365 0042 0228     		cmp	r0, #2
 6366 0044 14BF     		ite	ne
 6367 0046 0020     		movne	r0, #0
 6368 0048 0120     		moveq	r0, #1
 6369 004a 13E0     		b	.L820
 6370              	.L816:
 6371 004c 90F84100 		ldrb	r0, [r0, #65]	@ zero_extendqisi2
 6372 0050 0228     		cmp	r0, #2
 6373 0052 14BF     		ite	ne
 6374 0054 0020     		movne	r0, #0
 6375 0056 0120     		moveq	r0, #1
 6376 0058 0CE0     		b	.L820
 6377              	.L814:
 6378 005a 90F84200 		ldrb	r0, [r0, #66]	@ zero_extendqisi2
 6379 005e 0228     		cmp	r0, #2
 6380 0060 14BF     		ite	ne
 6381 0062 0020     		movne	r0, #0
 6382 0064 0120     		moveq	r0, #1
 6383 0066 05E0     		b	.L820
 6384              	.L813:
 6385 0068 90F84300 		ldrb	r0, [r0, #67]	@ zero_extendqisi2
 6386 006c 0228     		cmp	r0, #2
 6387 006e 14BF     		ite	ne
 6388 0070 0020     		movne	r0, #0
 6389 0072 0120     		moveq	r0, #1
 6390              	.L820:
 6391 0074 0028     		cmp	r0, #0
 6392 0076 40F01F81 		bne	.L846
 6393 007a 102C     		cmp	r4, #16
 6394 007c 2DD8     		bhi	.L822
 6395 007e DFE804F0 		tbb	[pc, r4]
 6396              	.L824:
 6397 0082 09       		.byte	(.L828-.L824)/2
 6398 0083 2C       		.byte	(.L822-.L824)/2
 6399 0084 2C       		.byte	(.L822-.L824)/2
 6400 0085 2C       		.byte	(.L822-.L824)/2
 6401 0086 10       		.byte	(.L827-.L824)/2
 6402 0087 2C       		.byte	(.L822-.L824)/2
 6403 0088 2C       		.byte	(.L822-.L824)/2
 6404 0089 2C       		.byte	(.L822-.L824)/2
 6405 008a 17       		.byte	(.L826-.L824)/2
 6406 008b 2C       		.byte	(.L822-.L824)/2
 6407 008c 2C       		.byte	(.L822-.L824)/2
 6408 008d 2C       		.byte	(.L822-.L824)/2
 6409 008e 1E       		.byte	(.L825-.L824)/2
 6410 008f 2C       		.byte	(.L822-.L824)/2
 6411 0090 2C       		.byte	(.L822-.L824)/2
 6412 0091 2C       		.byte	(.L822-.L824)/2
 6413 0092 25       		.byte	(.L823-.L824)/2
 6414 0093 00       		.p2align 1
 6415              	.L828:
 6416 0094 95F83E20 		ldrb	r2, [r5, #62]	@ zero_extendqisi2
 6417 0098 012A     		cmp	r2, #1
 6418 009a 14BF     		ite	ne
 6419 009c 0022     		movne	r2, #0
 6420 009e 0122     		moveq	r2, #1
ARM GAS  /var/folders/0f/x4_g94q9649fs6s33cksjfb00000gn/T//ccmft7Jl.s 			page 110


 6421 00a0 21E0     		b	.L829
 6422              	.L827:
 6423 00a2 95F83F20 		ldrb	r2, [r5, #63]	@ zero_extendqisi2
 6424 00a6 012A     		cmp	r2, #1
 6425 00a8 14BF     		ite	ne
 6426 00aa 0022     		movne	r2, #0
 6427 00ac 0122     		moveq	r2, #1
 6428 00ae 1AE0     		b	.L829
 6429              	.L826:
 6430 00b0 95F84020 		ldrb	r2, [r5, #64]	@ zero_extendqisi2
 6431 00b4 012A     		cmp	r2, #1
 6432 00b6 14BF     		ite	ne
 6433 00b8 0022     		movne	r2, #0
 6434 00ba 0122     		moveq	r2, #1
 6435 00bc 13E0     		b	.L829
 6436              	.L825:
 6437 00be 95F84120 		ldrb	r2, [r5, #65]	@ zero_extendqisi2
 6438 00c2 012A     		cmp	r2, #1
 6439 00c4 14BF     		ite	ne
 6440 00c6 0022     		movne	r2, #0
 6441 00c8 0122     		moveq	r2, #1
 6442 00ca 0CE0     		b	.L829
 6443              	.L823:
 6444 00cc 95F84220 		ldrb	r2, [r5, #66]	@ zero_extendqisi2
 6445 00d0 012A     		cmp	r2, #1
 6446 00d2 14BF     		ite	ne
 6447 00d4 0022     		movne	r2, #0
 6448 00d6 0122     		moveq	r2, #1
 6449 00d8 05E0     		b	.L829
 6450              	.L822:
 6451 00da 95F84320 		ldrb	r2, [r5, #67]	@ zero_extendqisi2
 6452 00de 012A     		cmp	r2, #1
 6453 00e0 14BF     		ite	ne
 6454 00e2 0022     		movne	r2, #0
 6455 00e4 0122     		moveq	r2, #1
 6456              	.L829:
 6457 00e6 002A     		cmp	r2, #0
 6458 00e8 00F0E880 		beq	.L847
 6459 00ec 002B     		cmp	r3, #0
 6460 00ee 18BF     		it	ne
 6461 00f0 0029     		cmpne	r1, #0
 6462 00f2 00F0E580 		beq	.L848
 6463 00f6 102C     		cmp	r4, #16
 6464 00f8 00F2AE80 		bhi	.L830
 6465 00fc DFE804F0 		tbb	[pc, r4]
 6466              	.L832:
 6467 0100 09       		.byte	(.L836-.L832)/2
 6468 0101 AC       		.byte	(.L830-.L832)/2
 6469 0102 AC       		.byte	(.L830-.L832)/2
 6470 0103 AC       		.byte	(.L830-.L832)/2
 6471 0104 5C       		.byte	(.L835-.L832)/2
 6472 0105 AC       		.byte	(.L830-.L832)/2
 6473 0106 AC       		.byte	(.L830-.L832)/2
 6474 0107 AC       		.byte	(.L830-.L832)/2
 6475 0108 75       		.byte	(.L834-.L832)/2
 6476 0109 AC       		.byte	(.L830-.L832)/2
 6477 010a AC       		.byte	(.L830-.L832)/2
ARM GAS  /var/folders/0f/x4_g94q9649fs6s33cksjfb00000gn/T//ccmft7Jl.s 			page 111


 6478 010b AC       		.byte	(.L830-.L832)/2
 6479 010c 8E       		.byte	(.L833-.L832)/2
 6480 010d AC       		.byte	(.L830-.L832)/2
 6481 010e AC       		.byte	(.L830-.L832)/2
 6482 010f AC       		.byte	(.L830-.L832)/2
 6483 0110 A7       		.byte	(.L831-.L832)/2
 6484 0111 00       		.p2align 1
 6485              	.L836:
 6486 0112 0222     		movs	r2, #2
 6487 0114 85F83E20 		strb	r2, [r5, #62]
 6488              	.L837:
 6489 0118 6A6A     		ldr	r2, [r5, #36]
 6490 011a 7048     		ldr	r0, .L860
 6491 011c D063     		str	r0, [r2, #60]
 6492 011e 6A6A     		ldr	r2, [r5, #36]
 6493 0120 6F48     		ldr	r0, .L860+4
 6494 0122 1064     		str	r0, [r2, #64]
 6495 0124 6A6A     		ldr	r2, [r5, #36]
 6496 0126 6F48     		ldr	r0, .L860+8
 6497 0128 D064     		str	r0, [r2, #76]
 6498 012a 2A68     		ldr	r2, [r5]
 6499 012c 3432     		adds	r2, r2, #52
 6500 012e 686A     		ldr	r0, [r5, #36]
 6501 0130 FFF7FEFF 		bl	HAL_DMA_Start_IT
 6502 0134 0028     		cmp	r0, #0
 6503 0136 40F0C780 		bne	.L850
 6504 013a 2A68     		ldr	r2, [r5]
 6505 013c D368     		ldr	r3, [r2, #12]
 6506 013e 43F40073 		orr	r3, r3, #512
 6507 0142 D360     		str	r3, [r2, #12]
 6508              	.L842:
 6509 0144 0122     		movs	r2, #1
 6510 0146 2146     		mov	r1, r4
 6511 0148 2868     		ldr	r0, [r5]
 6512 014a FFF7FEFF 		bl	TIM_CCxChannelCmd
 6513 014e 2B68     		ldr	r3, [r5]
 6514 0150 6549     		ldr	r1, .L860+12
 6515 0152 664A     		ldr	r2, .L860+16
 6516 0154 9342     		cmp	r3, r2
 6517 0156 18BF     		it	ne
 6518 0158 8B42     		cmpne	r3, r1
 6519 015a 03D1     		bne	.L843
 6520 015c 5A6C     		ldr	r2, [r3, #68]
 6521 015e 42F40042 		orr	r2, r2, #32768
 6522 0162 5A64     		str	r2, [r3, #68]
 6523              	.L843:
 6524 0164 2B68     		ldr	r3, [r5]
 6525 0166 604A     		ldr	r2, .L860+12
 6526 0168 B3F1804F 		cmp	r3, #1073741824
 6527 016c 18BF     		it	ne
 6528 016e 9342     		cmpne	r3, r2
 6529 0170 00F09480 		beq	.L844
 6530 0174 A2F57C42 		sub	r2, r2, #64512
 6531 0178 9342     		cmp	r3, r2
 6532 017a 00F08F80 		beq	.L844
 6533 017e 02F58062 		add	r2, r2, #1024
 6534 0182 9342     		cmp	r3, r2
ARM GAS  /var/folders/0f/x4_g94q9649fs6s33cksjfb00000gn/T//ccmft7Jl.s 			page 112


 6535 0184 00F08A80 		beq	.L844
 6536 0188 02F58062 		add	r2, r2, #1024
 6537 018c 9342     		cmp	r3, r2
 6538 018e 00F08580 		beq	.L844
 6539 0192 02F57842 		add	r2, r2, #63488
 6540 0196 9342     		cmp	r3, r2
 6541 0198 00F08080 		beq	.L844
 6542 019c 02F57052 		add	r2, r2, #15360
 6543 01a0 9342     		cmp	r3, r2
 6544 01a2 7BD0     		beq	.L844
 6545 01a4 A2F59432 		sub	r2, r2, #75776
 6546 01a8 9342     		cmp	r3, r2
 6547 01aa 77D0     		beq	.L844
 6548 01ac 1A68     		ldr	r2, [r3]
 6549 01ae 42F00102 		orr	r2, r2, #1
 6550 01b2 1A60     		str	r2, [r3]
 6551 01b4 0020     		movs	r0, #0
 6552 01b6 82E0     		b	.L821
 6553              	.L835:
 6554 01b8 0222     		movs	r2, #2
 6555 01ba 85F83F20 		strb	r2, [r5, #63]
 6556              	.L838:
 6557 01be AA6A     		ldr	r2, [r5, #40]
 6558 01c0 4648     		ldr	r0, .L860
 6559 01c2 D063     		str	r0, [r2, #60]
 6560 01c4 AA6A     		ldr	r2, [r5, #40]
 6561 01c6 4648     		ldr	r0, .L860+4
 6562 01c8 1064     		str	r0, [r2, #64]
 6563 01ca AA6A     		ldr	r2, [r5, #40]
 6564 01cc 4548     		ldr	r0, .L860+8
 6565 01ce D064     		str	r0, [r2, #76]
 6566 01d0 2A68     		ldr	r2, [r5]
 6567 01d2 3832     		adds	r2, r2, #56
 6568 01d4 A86A     		ldr	r0, [r5, #40]
