ARM GAS  /var/folders/0f/x4_g94q9649fs6s33cksjfb00000gn/T//ccRlDdWb.s 			page 1


   1              		.cpu cortex-m7
   2              		.arch armv7e-m
   3              		.fpu fpv5-d16
   4              		.eabi_attribute 28, 1
   5              		.eabi_attribute 20, 1
   6              		.eabi_attribute 21, 1
   7              		.eabi_attribute 23, 3
   8              		.eabi_attribute 24, 1
   9              		.eabi_attribute 25, 1
  10              		.eabi_attribute 26, 1
  11              		.eabi_attribute 30, 1
  12              		.eabi_attribute 34, 1
  13              		.eabi_attribute 18, 4
  14              		.file	"stm32f7xx_hal_sdram.c"
  15              		.text
  16              		.section	.text.HAL_SDRAM_MspInit,"ax",%progbits
  17              		.align	1
  18              		.weak	HAL_SDRAM_MspInit
  19              		.syntax unified
  20              		.thumb
  21              		.thumb_func
  23              	HAL_SDRAM_MspInit:
  24              		@ args = 0, pretend = 0, frame = 0
  25              		@ frame_needed = 0, uses_anonymous_args = 0
  26              		@ link register save eliminated.
  27 0000 7047     		bx	lr
  29              		.section	.text.HAL_SDRAM_Init,"ax",%progbits
  30              		.align	1
  31              		.global	HAL_SDRAM_Init
  32              		.syntax unified
  33              		.thumb
  34              		.thumb_func
  36              	HAL_SDRAM_Init:
  37              		@ args = 0, pretend = 0, frame = 0
  38              		@ frame_needed = 0, uses_anonymous_args = 0
  39 0000 E0B1     		cbz	r0, .L5
  40 0002 38B5     		push	{r3, r4, r5, lr}
  41 0004 0D46     		mov	r5, r1
  42 0006 0446     		mov	r4, r0
  43 0008 90F82C30 		ldrb	r3, [r0, #44]	@ zero_extendqisi2
  44 000c 8BB1     		cbz	r3, .L10
  45              	.L4:
  46 000e 0223     		movs	r3, #2
  47 0010 84F82C30 		strb	r3, [r4, #44]
  48 0014 2146     		mov	r1, r4
  49 0016 51F8040B 		ldr	r0, [r1], #4
  50 001a FFF7FEFF 		bl	FMC_SDRAM_Init
  51 001e 6268     		ldr	r2, [r4, #4]
  52 0020 2946     		mov	r1, r5
  53 0022 2068     		ldr	r0, [r4]
  54 0024 FFF7FEFF 		bl	FMC_SDRAM_Timing_Init
  55 0028 0123     		movs	r3, #1
  56 002a 84F82C30 		strb	r3, [r4, #44]
  57 002e 0020     		movs	r0, #0
  58 0030 38BD     		pop	{r3, r4, r5, pc}
  59              	.L10:
  60 0032 80F82D30 		strb	r3, [r0, #45]
ARM GAS  /var/folders/0f/x4_g94q9649fs6s33cksjfb00000gn/T//ccRlDdWb.s 			page 2


  61 0036 FFF7FEFF 		bl	HAL_SDRAM_MspInit
  62 003a E8E7     		b	.L4
  63              	.L5:
  64 003c 0120     		movs	r0, #1
  65 003e 7047     		bx	lr
  67              		.section	.text.HAL_SDRAM_MspDeInit,"ax",%progbits
  68              		.align	1
  69              		.weak	HAL_SDRAM_MspDeInit
  70              		.syntax unified
  71              		.thumb
  72              		.thumb_func
  74              	HAL_SDRAM_MspDeInit:
  75              		@ args = 0, pretend = 0, frame = 0
  76              		@ frame_needed = 0, uses_anonymous_args = 0
  77              		@ link register save eliminated.
  78 0000 7047     		bx	lr
  80              		.section	.text.HAL_SDRAM_DeInit,"ax",%progbits
  81              		.align	1
  82              		.global	HAL_SDRAM_DeInit
  83              		.syntax unified
  84              		.thumb
  85              		.thumb_func
  87              	HAL_SDRAM_DeInit:
  88              		@ args = 0, pretend = 0, frame = 0
  89              		@ frame_needed = 0, uses_anonymous_args = 0
  90 0000 10B5     		push	{r4, lr}
  91 0002 0446     		mov	r4, r0
  92 0004 FFF7FEFF 		bl	HAL_SDRAM_MspDeInit
  93 0008 6168     		ldr	r1, [r4, #4]
  94 000a 2068     		ldr	r0, [r4]
  95 000c FFF7FEFF 		bl	FMC_SDRAM_DeInit
  96 0010 0020     		movs	r0, #0
  97 0012 84F82C00 		strb	r0, [r4, #44]
  98 0016 84F82D00 		strb	r0, [r4, #45]
  99 001a 10BD     		pop	{r4, pc}
 101              		.section	.text.HAL_SDRAM_RefreshErrorCallback,"ax",%progbits
 102              		.align	1
 103              		.weak	HAL_SDRAM_RefreshErrorCallback
 104              		.syntax unified
 105              		.thumb
 106              		.thumb_func
 108              	HAL_SDRAM_RefreshErrorCallback:
 109              		@ args = 0, pretend = 0, frame = 0
 110              		@ frame_needed = 0, uses_anonymous_args = 0
 111              		@ link register save eliminated.
 112 0000 7047     		bx	lr
 114              		.section	.text.HAL_SDRAM_IRQHandler,"ax",%progbits
 115              		.align	1
 116              		.global	HAL_SDRAM_IRQHandler
 117              		.syntax unified
 118              		.thumb
 119              		.thumb_func
 121              	HAL_SDRAM_IRQHandler:
 122              		@ args = 0, pretend = 0, frame = 0
 123              		@ frame_needed = 0, uses_anonymous_args = 0
 124 0000 0368     		ldr	r3, [r0]
 125 0002 9B69     		ldr	r3, [r3, #24]
ARM GAS  /var/folders/0f/x4_g94q9649fs6s33cksjfb00000gn/T//ccRlDdWb.s 			page 3


 126 0004 13F0010F 		tst	r3, #1
 127 0008 00D1     		bne	.L21
 128 000a 7047     		bx	lr
 129              	.L21:
 130 000c 10B5     		push	{r4, lr}
 131 000e 0446     		mov	r4, r0
 132 0010 FFF7FEFF 		bl	HAL_SDRAM_RefreshErrorCallback
 133 0014 2268     		ldr	r2, [r4]
 134 0016 5369     		ldr	r3, [r2, #20]
 135 0018 43F00103 		orr	r3, r3, #1
 136 001c 5361     		str	r3, [r2, #20]
 137 001e 10BD     		pop	{r4, pc}
 139              		.section	.text.HAL_SDRAM_DMA_XferCpltCallback,"ax",%progbits
 140              		.align	1
 141              		.weak	HAL_SDRAM_DMA_XferCpltCallback
 142              		.syntax unified
 143              		.thumb
 144              		.thumb_func
 146              	HAL_SDRAM_DMA_XferCpltCallback:
 147              		@ args = 0, pretend = 0, frame = 0
 148              		@ frame_needed = 0, uses_anonymous_args = 0
 149              		@ link register save eliminated.
 150 0000 7047     		bx	lr
 152              		.section	.text.SDRAM_DMACpltProt,"ax",%progbits
 153              		.align	1
 154              		.syntax unified
 155              		.thumb
 156              		.thumb_func
 158              	SDRAM_DMACpltProt:
 159              		@ args = 0, pretend = 0, frame = 0
 160              		@ frame_needed = 0, uses_anonymous_args = 0
 161 0000 08B5     		push	{r3, lr}
 162 0002 816B     		ldr	r1, [r0, #56]
 163 0004 0268     		ldr	r2, [r0]
 164 0006 1368     		ldr	r3, [r2]
 165 0008 23F00103 		bic	r3, r3, #1
 166 000c 1360     		str	r3, [r2]
 167 000e 0423     		movs	r3, #4
 168 0010 81F82C30 		strb	r3, [r1, #44]
 169 0014 FFF7FEFF 		bl	HAL_SDRAM_DMA_XferCpltCallback
 170 0018 08BD     		pop	{r3, pc}
 172              		.section	.text.SDRAM_DMACplt,"ax",%progbits
 173              		.align	1
 174              		.syntax unified
 175              		.thumb
 176              		.thumb_func
 178              	SDRAM_DMACplt:
 179              		@ args = 0, pretend = 0, frame = 0
 180              		@ frame_needed = 0, uses_anonymous_args = 0
 181 0000 08B5     		push	{r3, lr}
 182 0002 816B     		ldr	r1, [r0, #56]
 183 0004 0268     		ldr	r2, [r0]
 184 0006 1368     		ldr	r3, [r2]
 185 0008 23F00103 		bic	r3, r3, #1
 186 000c 1360     		str	r3, [r2]
 187 000e 0123     		movs	r3, #1
 188 0010 81F82C30 		strb	r3, [r1, #44]
ARM GAS  /var/folders/0f/x4_g94q9649fs6s33cksjfb00000gn/T//ccRlDdWb.s 			page 4


 189 0014 FFF7FEFF 		bl	HAL_SDRAM_DMA_XferCpltCallback
 190 0018 08BD     		pop	{r3, pc}
 192              		.section	.text.HAL_SDRAM_DMA_XferErrorCallback,"ax",%progbits
 193              		.align	1
 194              		.weak	HAL_SDRAM_DMA_XferErrorCallback
 195              		.syntax unified
 196              		.thumb
 197              		.thumb_func
 199              	HAL_SDRAM_DMA_XferErrorCallback:
 200              		@ args = 0, pretend = 0, frame = 0
 201              		@ frame_needed = 0, uses_anonymous_args = 0
 202              		@ link register save eliminated.
 203 0000 7047     		bx	lr
 205              		.section	.text.SDRAM_DMAError,"ax",%progbits
 206              		.align	1
 207              		.syntax unified
 208              		.thumb
 209              		.thumb_func
 211              	SDRAM_DMAError:
 212              		@ args = 0, pretend = 0, frame = 0
 213              		@ frame_needed = 0, uses_anonymous_args = 0
 214 0000 08B5     		push	{r3, lr}
 215 0002 816B     		ldr	r1, [r0, #56]
 216 0004 0268     		ldr	r2, [r0]
 217 0006 1368     		ldr	r3, [r2]
 218 0008 23F00103 		bic	r3, r3, #1
 219 000c 1360     		str	r3, [r2]
 220 000e 0323     		movs	r3, #3
 221 0010 81F82C30 		strb	r3, [r1, #44]
 222 0014 FFF7FEFF 		bl	HAL_SDRAM_DMA_XferErrorCallback
 223 0018 08BD     		pop	{r3, pc}
 225              		.section	.text.HAL_SDRAM_Read_8b,"ax",%progbits
 226              		.align	1
 227              		.global	HAL_SDRAM_Read_8b
 228              		.syntax unified
 229              		.thumb
 230              		.thumb_func
 232              	HAL_SDRAM_Read_8b:
 233              		@ args = 0, pretend = 0, frame = 0
 234              		@ frame_needed = 0, uses_anonymous_args = 0
 235 0000 00B5     		push	{lr}
 236 0002 8646     		mov	lr, r0
 237 0004 90F82CC0 		ldrb	ip, [r0, #44]	@ zero_extendqisi2
 238 0008 5FFA8CF0 		uxtb	r0, ip
 239 000c BCF1020F 		cmp	ip, #2
 240 0010 1DD0     		beq	.L31
 241 0012 0428     		cmp	r0, #4
 242 0014 18BF     		it	ne
 243 0016 0128     		cmpne	r0, #1
 244 0018 1BD1     		bne	.L34
 245 001a 9EF82DC0 		ldrb	ip, [lr, #45]	@ zero_extendqisi2
 246 001e BCF1010F 		cmp	ip, #1
 247 0022 18D0     		beq	.L35
 248 0024 4FF0010C 		mov	ip, #1
 249 0028 8EF82DC0 		strb	ip, [lr, #45]
 250 002c 4FF0020C 		mov	ip, #2
 251 0030 8EF82CC0 		strb	ip, [lr, #44]
ARM GAS  /var/folders/0f/x4_g94q9649fs6s33cksjfb00000gn/T//ccRlDdWb.s 			page 5


 252 0034 04E0     		b	.L32
 253              	.L33:
 254 0036 11F801CB 		ldrb	ip, [r1], #1	@ zero_extendqisi2
 255 003a 02F801CB 		strb	ip, [r2], #1
 256 003e 013B     		subs	r3, r3, #1
 257              	.L32:
 258 0040 002B     		cmp	r3, #0
 259 0042 F8D1     		bne	.L33
 260 0044 8EF82C00 		strb	r0, [lr, #44]
 261 0048 0020     		movs	r0, #0
 262 004a 8EF82D00 		strb	r0, [lr, #45]
 263              	.L31:
 264 004e 5DF804FB 		ldr	pc, [sp], #4
 265              	.L34:
 266 0052 0120     		movs	r0, #1
 267 0054 FBE7     		b	.L31
 268              	.L35:
 269 0056 0220     		movs	r0, #2
 270 0058 F9E7     		b	.L31
 272              		.section	.text.HAL_SDRAM_Write_8b,"ax",%progbits
 273              		.align	1
 274              		.global	HAL_SDRAM_Write_8b
 275              		.syntax unified
 276              		.thumb
 277              		.thumb_func
 279              	HAL_SDRAM_Write_8b:
 280              		@ args = 0, pretend = 0, frame = 0
 281              		@ frame_needed = 0, uses_anonymous_args = 0
 282 0000 00B5     		push	{lr}
 283 0002 8646     		mov	lr, r0
 284 0004 90F82CC0 		ldrb	ip, [r0, #44]	@ zero_extendqisi2
 285 0008 5FFA8CF0 		uxtb	r0, ip
 286 000c BCF1020F 		cmp	ip, #2
 287 0010 1DD0     		beq	.L38
 288 0012 9EF82C00 		ldrb	r0, [lr, #44]	@ zero_extendqisi2
 289 0016 0128     		cmp	r0, #1
 290 0018 18D1     		bne	.L41
 291 001a 9EF82D00 		ldrb	r0, [lr, #45]	@ zero_extendqisi2
 292 001e 0128     		cmp	r0, #1
 293 0020 17D0     		beq	.L42
 294 0022 0120     		movs	r0, #1
 295 0024 8EF82D00 		strb	r0, [lr, #45]
 296 0028 0220     		movs	r0, #2
 297 002a 8EF82C00 		strb	r0, [lr, #44]
 298 002e 04E0     		b	.L39
 299              	.L40:
 300 0030 12F801CB 		ldrb	ip, [r2], #1	@ zero_extendqisi2
 301 0034 01F801CB 		strb	ip, [r1], #1
 302 0038 013B     		subs	r3, r3, #1
 303              	.L39:
 304 003a 002B     		cmp	r3, #0
 305 003c F8D1     		bne	.L40
 306 003e 0123     		movs	r3, #1
 307 0040 8EF82C30 		strb	r3, [lr, #44]
 308 0044 0020     		movs	r0, #0
 309 0046 8EF82D00 		strb	r0, [lr, #45]
 310 004a 00E0     		b	.L38
ARM GAS  /var/folders/0f/x4_g94q9649fs6s33cksjfb00000gn/T//ccRlDdWb.s 			page 6


 311              	.L41:
 312 004c 0120     		movs	r0, #1
 313              	.L38:
 314 004e 5DF804FB 		ldr	pc, [sp], #4
 315              	.L42:
 316 0052 0220     		movs	r0, #2
 317 0054 FBE7     		b	.L38
 319              		.section	.text.HAL_SDRAM_Read_16b,"ax",%progbits
 320              		.align	1
 321              		.global	HAL_SDRAM_Read_16b
 322              		.syntax unified
 323              		.thumb
 324              		.thumb_func
 326              	HAL_SDRAM_Read_16b:
 327              		@ args = 0, pretend = 0, frame = 0
 328              		@ frame_needed = 0, uses_anonymous_args = 0
 329 0000 30B5     		push	{r4, r5, lr}
 330 0002 0546     		mov	r5, r0
 331 0004 90F82C40 		ldrb	r4, [r0, #44]	@ zero_extendqisi2
 332 0008 E0B2     		uxtb	r0, r4
 333 000a 022C     		cmp	r4, #2
 334 000c 27D0     		beq	.L45
 335 000e 0428     		cmp	r0, #4
 336 0010 18BF     		it	ne
 337 0012 0128     		cmpne	r0, #1
 338 0014 24D1     		bne	.L49
 339 0016 95F82D40 		ldrb	r4, [r5, #45]	@ zero_extendqisi2
 340 001a 012C     		cmp	r4, #1
 341 001c 22D0     		beq	.L50
 342 001e 0124     		movs	r4, #1
 343 0020 85F82D40 		strb	r4, [r5, #45]
 344 0024 0224     		movs	r4, #2
 345 0026 85F82C40 		strb	r4, [r5, #44]
 346 002a 9E46     		mov	lr, r3
 347 002c 0AE0     		b	.L46
 348              	.L47:
 349 002e 0C68     		ldr	r4, [r1]
 350 0030 1480     		strh	r4, [r2]	@ movhi
 351 0032 51F8044B 		ldr	r4, [r1], #4
 352 0036 4FEA144C 		lsr	ip, r4, #16
 353 003a A2F802C0 		strh	ip, [r2, #2]	@ movhi
 354 003e 0432     		adds	r2, r2, #4
 355 0040 AEF1020E 		sub	lr, lr, #2
 356              	.L46:
 357 0044 BEF1010F 		cmp	lr, #1
 358 0048 F1D8     		bhi	.L47
 359 004a 13F0010F 		tst	r3, #1
 360 004e 01D0     		beq	.L48
 361 0050 0B68     		ldr	r3, [r1]
 362 0052 1380     		strh	r3, [r2]	@ movhi
 363              	.L48:
 364 0054 85F82C00 		strb	r0, [r5, #44]
 365 0058 0020     		movs	r0, #0
 366 005a 85F82D00 		strb	r0, [r5, #45]
 367              	.L45:
 368 005e 30BD     		pop	{r4, r5, pc}
 369              	.L49:
ARM GAS  /var/folders/0f/x4_g94q9649fs6s33cksjfb00000gn/T//ccRlDdWb.s 			page 7


 370 0060 0120     		movs	r0, #1
 371 0062 FCE7     		b	.L45
 372              	.L50:
 373 0064 0220     		movs	r0, #2
 374 0066 FAE7     		b	.L45
 376              		.section	.text.HAL_SDRAM_Write_16b,"ax",%progbits
 377              		.align	1
 378              		.global	HAL_SDRAM_Write_16b
 379              		.syntax unified
 380              		.thumb
 381              		.thumb_func
 383              	HAL_SDRAM_Write_16b:
 384              		@ args = 0, pretend = 0, frame = 0
 385              		@ frame_needed = 0, uses_anonymous_args = 0
 386 0000 10B5     		push	{r4, lr}
 387 0002 8646     		mov	lr, r0
 388 0004 90F82C40 		ldrb	r4, [r0, #44]	@ zero_extendqisi2
 389 0008 E0B2     		uxtb	r0, r4
 390 000a 022C     		cmp	r4, #2
 391 000c 2ED0     		beq	.L53
 392 000e 9EF82C00 		ldrb	r0, [lr, #44]	@ zero_extendqisi2
 393 0012 0128     		cmp	r0, #1
 394 0014 29D1     		bne	.L57
 395 0016 9EF82D00 		ldrb	r0, [lr, #45]	@ zero_extendqisi2
 396 001a 0128     		cmp	r0, #1
 397 001c 27D0     		beq	.L58
 398 001e 0120     		movs	r0, #1
 399 0020 8EF82D00 		strb	r0, [lr, #45]
 400 0024 0220     		movs	r0, #2
 401 0026 8EF82C00 		strb	r0, [lr, #44]
 402 002a 9C46     		mov	ip, r3
 403 002c 0AE0     		b	.L54
 404              	.L55:
 405 002e 1088     		ldrh	r0, [r2]
 406 0030 0860     		str	r0, [r1]
 407 0032 0C68     		ldr	r4, [r1]
 408 0034 5088     		ldrh	r0, [r2, #2]
 409 0036 44EA0044 		orr	r4, r4, r0, lsl #16
 410 003a 41F8044B 		str	r4, [r1], #4
 411 003e 0432     		adds	r2, r2, #4
 412 0040 ACF1020C 		sub	ip, ip, #2
 413              	.L54:
 414 0044 BCF1010F 		cmp	ip, #1
 415 0048 F1D8     		bhi	.L55
 416 004a 13F0010F 		tst	r3, #1
 417 004e 05D0     		beq	.L56
 418 0050 1388     		ldrh	r3, [r2]
 419 0052 0A68     		ldr	r2, [r1]
 420 0054 6FF30F02 		bfc	r2, #0, #16
 421 0058 1343     		orrs	r3, r3, r2
 422 005a 0B60     		str	r3, [r1]
 423              	.L56:
 424 005c 0123     		movs	r3, #1
 425 005e 8EF82C30 		strb	r3, [lr, #44]
 426 0062 0020     		movs	r0, #0
 427 0064 8EF82D00 		strb	r0, [lr, #45]
 428 0068 00E0     		b	.L53
ARM GAS  /var/folders/0f/x4_g94q9649fs6s33cksjfb00000gn/T//ccRlDdWb.s 			page 8


 429              	.L57:
 430 006a 0120     		movs	r0, #1
 431              	.L53:
 432 006c 10BD     		pop	{r4, pc}
 433              	.L58:
 434 006e 0220     		movs	r0, #2
 435 0070 FCE7     		b	.L53
 437              		.section	.text.HAL_SDRAM_Read_32b,"ax",%progbits
 438              		.align	1
 439              		.global	HAL_SDRAM_Read_32b
 440              		.syntax unified
 441              		.thumb
 442              		.thumb_func
 444              	HAL_SDRAM_Read_32b:
 445              		@ args = 0, pretend = 0, frame = 0
 446              		@ frame_needed = 0, uses_anonymous_args = 0
 447              		@ link register save eliminated.
 448 0000 10B4     		push	{r4}
 449 0002 8446     		mov	ip, r0
 450 0004 90F82C40 		ldrb	r4, [r0, #44]	@ zero_extendqisi2
 451 0008 E0B2     		uxtb	r0, r4
 452 000a 022C     		cmp	r4, #2
 453 000c 1AD0     		beq	.L61
 454 000e 0428     		cmp	r0, #4
 455 0010 18BF     		it	ne
 456 0012 0128     		cmpne	r0, #1
 457 0014 19D1     		bne	.L64
 458 0016 9CF82D40 		ldrb	r4, [ip, #45]	@ zero_extendqisi2
 459 001a 012C     		cmp	r4, #1
 460 001c 17D0     		beq	.L65
 461 001e 0124     		movs	r4, #1
 462 0020 8CF82D40 		strb	r4, [ip, #45]
 463 0024 0224     		movs	r4, #2
 464 0026 8CF82C40 		strb	r4, [ip, #44]
 465 002a 04E0     		b	.L62
 466              	.L63:
 467 002c 51F8044B 		ldr	r4, [r1], #4
 468 0030 42F8044B 		str	r4, [r2], #4
 469 0034 013B     		subs	r3, r3, #1
 470              	.L62:
 471 0036 002B     		cmp	r3, #0
 472 0038 F8D1     		bne	.L63
 473 003a 8CF82C00 		strb	r0, [ip, #44]
 474 003e 0020     		movs	r0, #0
 475 0040 8CF82D00 		strb	r0, [ip, #45]
 476              	.L61:
 477 0044 5DF8044B 		ldr	r4, [sp], #4
 478 0048 7047     		bx	lr
 479              	.L64:
 480 004a 0120     		movs	r0, #1
 481 004c FAE7     		b	.L61
 482              	.L65:
 483 004e 0220     		movs	r0, #2
 484 0050 F8E7     		b	.L61
 486              		.section	.text.HAL_SDRAM_Write_32b,"ax",%progbits
 487              		.align	1
 488              		.global	HAL_SDRAM_Write_32b
ARM GAS  /var/folders/0f/x4_g94q9649fs6s33cksjfb00000gn/T//ccRlDdWb.s 			page 9


 489              		.syntax unified
 490              		.thumb
 491              		.thumb_func
 493              	HAL_SDRAM_Write_32b:
 494              		@ args = 0, pretend = 0, frame = 0
 495              		@ frame_needed = 0, uses_anonymous_args = 0
 496              		@ link register save eliminated.
 497 0000 10B4     		push	{r4}
 498 0002 8446     		mov	ip, r0
 499 0004 90F82C40 		ldrb	r4, [r0, #44]	@ zero_extendqisi2
 500 0008 E0B2     		uxtb	r0, r4
 501 000a 022C     		cmp	r4, #2
 502 000c 1DD0     		beq	.L68
 503 000e 9CF82C00 		ldrb	r0, [ip, #44]	@ zero_extendqisi2
 504 0012 0128     		cmp	r0, #1
 505 0014 18D1     		bne	.L71
 506 0016 9CF82D00 		ldrb	r0, [ip, #45]	@ zero_extendqisi2
 507 001a 0128     		cmp	r0, #1
 508 001c 18D0     		beq	.L72
 509 001e 0120     		movs	r0, #1
 510 0020 8CF82D00 		strb	r0, [ip, #45]
 511 0024 0220     		movs	r0, #2
 512 0026 8CF82C00 		strb	r0, [ip, #44]
 513 002a 04E0     		b	.L69
 514              	.L70:
 515 002c 52F8044B 		ldr	r4, [r2], #4
 516 0030 41F8044B 		str	r4, [r1], #4
 517 0034 013B     		subs	r3, r3, #1
 518              	.L69:
 519 0036 002B     		cmp	r3, #0
 520 0038 F8D1     		bne	.L70
 521 003a 0123     		movs	r3, #1
 522 003c 8CF82C30 		strb	r3, [ip, #44]
 523 0040 0020     		movs	r0, #0
 524 0042 8CF82D00 		strb	r0, [ip, #45]
 525 0046 00E0     		b	.L68
 526              	.L71:
 527 0048 0120     		movs	r0, #1
 528              	.L68:
 529 004a 5DF8044B 		ldr	r4, [sp], #4
 530 004e 7047     		bx	lr
 531              	.L72:
 532 0050 0220     		movs	r0, #2
 533 0052 FAE7     		b	.L68
 535              		.section	.text.HAL_SDRAM_Read_DMA,"ax",%progbits
 536              		.align	1
 537              		.global	HAL_SDRAM_Read_DMA
 538              		.syntax unified
 539              		.thumb
 540              		.thumb_func
 542              	HAL_SDRAM_Read_DMA:
 543              		@ args = 0, pretend = 0, frame = 0
 544              		@ frame_needed = 0, uses_anonymous_args = 0
 545 0000 38B5     		push	{r3, r4, r5, lr}
 546 0002 0446     		mov	r4, r0
 547 0004 90F82CC0 		ldrb	ip, [r0, #44]	@ zero_extendqisi2
 548 0008 5FFA8CF0 		uxtb	r0, ip
ARM GAS  /var/folders/0f/x4_g94q9649fs6s33cksjfb00000gn/T//ccRlDdWb.s 			page 10


 549 000c BCF1020F 		cmp	ip, #2
 550 0010 22D0     		beq	.L75
 551 0012 0428     		cmp	r0, #4
 552 0014 18BF     		it	ne
 553 0016 0128     		cmpne	r0, #1
 554 0018 1DD1     		bne	.L78
 555 001a 94F82DC0 		ldrb	ip, [r4, #45]	@ zero_extendqisi2
 556 001e BCF1010F 		cmp	ip, #1
 557 0022 1AD0     		beq	.L79
 558 0024 0125     		movs	r5, #1
 559 0026 84F82D50 		strb	r5, [r4, #45]
 560 002a 0225     		movs	r5, #2
 561 002c 84F82C50 		strb	r5, [r4, #44]
 562 0030 0128     		cmp	r0, #1
 563 0032 0CD0     		beq	.L81
 564 0034 206B     		ldr	r0, [r4, #48]
 565 0036 0A4D     		ldr	r5, .L82
 566 0038 C563     		str	r5, [r0, #60]
 567              	.L77:
 568 003a 206B     		ldr	r0, [r4, #48]
 569 003c 094D     		ldr	r5, .L82+4
 570 003e C564     		str	r5, [r0, #76]
 571 0040 206B     		ldr	r0, [r4, #48]
 572 0042 FFF7FEFF 		bl	HAL_DMA_Start_IT
 573 0046 0023     		movs	r3, #0
 574 0048 84F82D30 		strb	r3, [r4, #45]
 575 004c 04E0     		b	.L75
 576              	.L81:
 577 004e 206B     		ldr	r0, [r4, #48]
 578 0050 054D     		ldr	r5, .L82+8
 579 0052 C563     		str	r5, [r0, #60]
 580 0054 F1E7     		b	.L77
 581              	.L78:
 582 0056 0120     		movs	r0, #1
 583              	.L75:
 584 0058 38BD     		pop	{r3, r4, r5, pc}
 585              	.L79:
 586 005a 0220     		movs	r0, #2
 587 005c FCE7     		b	.L75
 588              	.L83:
 589 005e 00BF     		.align	2
 590              	.L82:
 591 0060 00000000 		.word	SDRAM_DMACpltProt
 592 0064 00000000 		.word	SDRAM_DMAError
 593 0068 00000000 		.word	SDRAM_DMACplt
 595              		.section	.text.HAL_SDRAM_Write_DMA,"ax",%progbits
 596              		.align	1
 597              		.global	HAL_SDRAM_Write_DMA
 598              		.syntax unified
 599              		.thumb
 600              		.thumb_func
 602              	HAL_SDRAM_Write_DMA:
 603              		@ args = 0, pretend = 0, frame = 0
 604              		@ frame_needed = 0, uses_anonymous_args = 0
 605 0000 10B5     		push	{r4, lr}
 606 0002 0446     		mov	r4, r0
 607 0004 90F82CC0 		ldrb	ip, [r0, #44]	@ zero_extendqisi2
ARM GAS  /var/folders/0f/x4_g94q9649fs6s33cksjfb00000gn/T//ccRlDdWb.s 			page 11


 608 0008 5FFA8CF0 		uxtb	r0, ip
 609 000c BCF1020F 		cmp	ip, #2
 610 0010 06D0     		beq	.L85
 611 0012 8E46     		mov	lr, r1
 612 0014 1146     		mov	r1, r2
 613 0016 94F82C20 		ldrb	r2, [r4, #44]	@ zero_extendqisi2
 614 001a 012A     		cmp	r2, #1
 615 001c 01D0     		beq	.L89
 616 001e 0120     		movs	r0, #1
 617              	.L85:
 618 0020 10BD     		pop	{r4, pc}
 619              	.L89:
 620 0022 94F82D20 		ldrb	r2, [r4, #45]	@ zero_extendqisi2
 621 0026 012A     		cmp	r2, #1
 622 0028 13D0     		beq	.L87
 623 002a 0122     		movs	r2, #1
 624 002c 84F82D20 		strb	r2, [r4, #45]
 625 0030 0222     		movs	r2, #2
 626 0032 84F82C20 		strb	r2, [r4, #44]
 627 0036 226B     		ldr	r2, [r4, #48]
 628 0038 0748     		ldr	r0, .L90
 629 003a D063     		str	r0, [r2, #60]
 630 003c 226B     		ldr	r2, [r4, #48]
 631 003e 0748     		ldr	r0, .L90+4
 632 0040 D064     		str	r0, [r2, #76]
 633 0042 7246     		mov	r2, lr
 634 0044 206B     		ldr	r0, [r4, #48]
 635 0046 FFF7FEFF 		bl	HAL_DMA_Start_IT
 636 004a 0023     		movs	r3, #0
 637 004c 84F82D30 		strb	r3, [r4, #45]
 638 0050 E6E7     		b	.L85
 639              	.L87:
 640 0052 0220     		movs	r0, #2
 641 0054 E4E7     		b	.L85
 642              	.L91:
 643 0056 00BF     		.align	2
 644              	.L90:
 645 0058 00000000 		.word	SDRAM_DMACplt
 646 005c 00000000 		.word	SDRAM_DMAError
 648              		.section	.text.HAL_SDRAM_WriteProtection_Enable,"ax",%progbits
 649              		.align	1
 650              		.global	HAL_SDRAM_WriteProtection_Enable
 651              		.syntax unified
 652              		.thumb
 653              		.thumb_func
 655              	HAL_SDRAM_WriteProtection_Enable:
 656              		@ args = 0, pretend = 0, frame = 0
 657              		@ frame_needed = 0, uses_anonymous_args = 0
 658 0000 10B5     		push	{r4, lr}
 659 0002 0446     		mov	r4, r0
 660 0004 90F82C30 		ldrb	r3, [r0, #44]	@ zero_extendqisi2
 661 0008 D8B2     		uxtb	r0, r3
 662 000a 022B     		cmp	r3, #2
 663 000c 04D0     		beq	.L93
 664 000e 94F82C30 		ldrb	r3, [r4, #44]	@ zero_extendqisi2
 665 0012 012B     		cmp	r3, #1
 666 0014 01D0     		beq	.L96
ARM GAS  /var/folders/0f/x4_g94q9649fs6s33cksjfb00000gn/T//ccRlDdWb.s 			page 12


 667 0016 0120     		movs	r0, #1
 668              	.L93:
 669 0018 10BD     		pop	{r4, pc}
 670              	.L96:
 671 001a 0223     		movs	r3, #2
 672 001c 84F82C30 		strb	r3, [r4, #44]
 673 0020 6168     		ldr	r1, [r4, #4]
 674 0022 2068     		ldr	r0, [r4]
 675 0024 FFF7FEFF 		bl	FMC_SDRAM_WriteProtection_Enable
 676 0028 0423     		movs	r3, #4
 677 002a 84F82C30 		strb	r3, [r4, #44]
 678 002e 0020     		movs	r0, #0
 679 0030 F2E7     		b	.L93
 681              		.section	.text.HAL_SDRAM_WriteProtection_Disable,"ax",%progbits
 682              		.align	1
 683              		.global	HAL_SDRAM_WriteProtection_Disable
 684              		.syntax unified
 685              		.thumb
 686              		.thumb_func
 688              	HAL_SDRAM_WriteProtection_Disable:
 689              		@ args = 0, pretend = 0, frame = 0
 690              		@ frame_needed = 0, uses_anonymous_args = 0
 691 0000 10B5     		push	{r4, lr}
 692 0002 0446     		mov	r4, r0
 693 0004 90F82C30 		ldrb	r3, [r0, #44]	@ zero_extendqisi2
 694 0008 D8B2     		uxtb	r0, r3
 695 000a 022B     		cmp	r3, #2
 696 000c 02D0     		beq	.L98
 697 000e 0428     		cmp	r0, #4
 698 0010 01D0     		beq	.L101
 699 0012 0120     		movs	r0, #1
 700              	.L98:
 701 0014 10BD     		pop	{r4, pc}
 702              	.L101:
 703 0016 0223     		movs	r3, #2
 704 0018 84F82C30 		strb	r3, [r4, #44]
 705 001c 6168     		ldr	r1, [r4, #4]
 706 001e 2068     		ldr	r0, [r4]
 707 0020 FFF7FEFF 		bl	FMC_SDRAM_WriteProtection_Disable
 708 0024 0123     		movs	r3, #1
 709 0026 84F82C30 		strb	r3, [r4, #44]
 710 002a 0020     		movs	r0, #0
 711 002c F2E7     		b	.L98
 713              		.section	.text.HAL_SDRAM_SendCommand,"ax",%progbits
 714              		.align	1
 715              		.global	HAL_SDRAM_SendCommand
 716              		.syntax unified
 717              		.thumb
 718              		.thumb_func
 720              	HAL_SDRAM_SendCommand:
 721              		@ args = 0, pretend = 0, frame = 0
 722              		@ frame_needed = 0, uses_anonymous_args = 0
 723 0000 38B5     		push	{r3, r4, r5, lr}
 724 0002 0446     		mov	r4, r0
 725 0004 90F82C30 		ldrb	r3, [r0, #44]	@ zero_extendqisi2
 726 0008 D8B2     		uxtb	r0, r3
 727 000a 022B     		cmp	r3, #2
ARM GAS  /var/folders/0f/x4_g94q9649fs6s33cksjfb00000gn/T//ccRlDdWb.s 			page 13


 728 000c 05D0     		beq	.L103
 729 000e 0D46     		mov	r5, r1
 730 0010 0528     		cmp	r0, #5
 731 0012 18BF     		it	ne
 732 0014 0128     		cmpne	r0, #1
 733 0016 01D0     		beq	.L107
 734 0018 0120     		movs	r0, #1
 735              	.L103:
 736 001a 38BD     		pop	{r3, r4, r5, pc}
 737              	.L107:
 738 001c 0223     		movs	r3, #2
 739 001e 84F82C30 		strb	r3, [r4, #44]
 740 0022 2068     		ldr	r0, [r4]
 741 0024 FFF7FEFF 		bl	FMC_SDRAM_SendCommand
 742 0028 2B68     		ldr	r3, [r5]
 743 002a 022B     		cmp	r3, #2
 744 002c 04D0     		beq	.L108
 745 002e 0123     		movs	r3, #1
 746 0030 84F82C30 		strb	r3, [r4, #44]
 747 0034 0020     		movs	r0, #0
 748 0036 F0E7     		b	.L103
 749              	.L108:
 750 0038 0523     		movs	r3, #5
 751 003a 84F82C30 		strb	r3, [r4, #44]
 752 003e 0020     		movs	r0, #0
 753 0040 EBE7     		b	.L103
 755              		.section	.text.HAL_SDRAM_ProgramRefreshRate,"ax",%progbits
 756              		.align	1
 757              		.global	HAL_SDRAM_ProgramRefreshRate
 758              		.syntax unified
 759              		.thumb
 760              		.thumb_func
 762              	HAL_SDRAM_ProgramRefreshRate:
 763              		@ args = 0, pretend = 0, frame = 0
 764              		@ frame_needed = 0, uses_anonymous_args = 0
 765 0000 10B5     		push	{r4, lr}
 766 0002 0446     		mov	r4, r0
 767 0004 90F82C30 		ldrb	r3, [r0, #44]	@ zero_extendqisi2
 768 0008 D8B2     		uxtb	r0, r3
 769 000a 022B     		cmp	r3, #2
 770 000c 04D0     		beq	.L110
 771 000e 94F82C30 		ldrb	r3, [r4, #44]	@ zero_extendqisi2
 772 0012 012B     		cmp	r3, #1
 773 0014 01D0     		beq	.L113
 774 0016 0120     		movs	r0, #1
 775              	.L110:
 776 0018 10BD     		pop	{r4, pc}
 777              	.L113:
 778 001a 0223     		movs	r3, #2
 779 001c 84F82C30 		strb	r3, [r4, #44]
 780 0020 2068     		ldr	r0, [r4]
 781 0022 FFF7FEFF 		bl	FMC_SDRAM_ProgramRefreshRate
 782 0026 0123     		movs	r3, #1
 783 0028 84F82C30 		strb	r3, [r4, #44]
 784 002c 0020     		movs	r0, #0
 785 002e F3E7     		b	.L110
 787              		.section	.text.HAL_SDRAM_SetAutoRefreshNumber,"ax",%progbits
ARM GAS  /var/folders/0f/x4_g94q9649fs6s33cksjfb00000gn/T//ccRlDdWb.s 			page 14


 788              		.align	1
 789              		.global	HAL_SDRAM_SetAutoRefreshNumber
 790              		.syntax unified
 791              		.thumb
 792              		.thumb_func
 794              	HAL_SDRAM_SetAutoRefreshNumber:
 795              		@ args = 0, pretend = 0, frame = 0
 796              		@ frame_needed = 0, uses_anonymous_args = 0
 797 0000 10B5     		push	{r4, lr}
 798 0002 0446     		mov	r4, r0
 799 0004 90F82C30 		ldrb	r3, [r0, #44]	@ zero_extendqisi2
 800 0008 D8B2     		uxtb	r0, r3
 801 000a 022B     		cmp	r3, #2
 802 000c 04D0     		beq	.L115
 803 000e 94F82C30 		ldrb	r3, [r4, #44]	@ zero_extendqisi2
 804 0012 012B     		cmp	r3, #1
 805 0014 01D0     		beq	.L118
 806 0016 0120     		movs	r0, #1
 807              	.L115:
 808 0018 10BD     		pop	{r4, pc}
 809              	.L118:
 810 001a 0223     		movs	r3, #2
 811 001c 84F82C30 		strb	r3, [r4, #44]
 812 0020 2068     		ldr	r0, [r4]
 813 0022 FFF7FEFF 		bl	FMC_SDRAM_SetAutoRefreshNumber
 814 0026 0123     		movs	r3, #1
 815 0028 84F82C30 		strb	r3, [r4, #44]
 816 002c 0020     		movs	r0, #0
 817 002e F3E7     		b	.L115
 819              		.section	.text.HAL_SDRAM_GetModeStatus,"ax",%progbits
 820              		.align	1
 821              		.global	HAL_SDRAM_GetModeStatus
 822              		.syntax unified
 823              		.thumb
 824              		.thumb_func
 826              	HAL_SDRAM_GetModeStatus:
 827              		@ args = 0, pretend = 0, frame = 0
 828              		@ frame_needed = 0, uses_anonymous_args = 0
 829 0000 08B5     		push	{r3, lr}
 830 0002 4168     		ldr	r1, [r0, #4]
 831 0004 0068     		ldr	r0, [r0]
 832 0006 FFF7FEFF 		bl	FMC_SDRAM_GetModeStatus
 833 000a 08BD     		pop	{r3, pc}
 835              		.section	.text.HAL_SDRAM_GetState,"ax",%progbits
 836              		.align	1
 837              		.global	HAL_SDRAM_GetState
 838              		.syntax unified
 839              		.thumb
 840              		.thumb_func
 842              	HAL_SDRAM_GetState:
 843              		@ args = 0, pretend = 0, frame = 0
 844              		@ frame_needed = 0, uses_anonymous_args = 0
 845              		@ link register save eliminated.
 846 0000 90F82C00 		ldrb	r0, [r0, #44]	@ zero_extendqisi2
 847 0004 7047     		bx	lr
 849              		.ident	"GCC: (Arm GNU Toolchain 14.2.Rel1 (Build arm-14.52)) 14.2.1 20241119"
ARM GAS  /var/folders/0f/x4_g94q9649fs6s33cksjfb00000gn/T//ccRlDdWb.s 			page 15

