ARM GAS  /var/folders/0f/x4_g94q9649fs6s33cksjfb00000gn/T//ccDl4ry4.s 			page 1


   1              		.cpu cortex-m7
   2              		.arch armv7e-m
   3              		.fpu fpv5-d16
   4              		.eabi_attribute 28, 1
   5              		.eabi_attribute 20, 1
   6              		.eabi_attribute 21, 1
   7              		.eabi_attribute 23, 3
   8              		.eabi_attribute 24, 1
   9              		.eabi_attribute 25, 1
  10              		.eabi_attribute 26, 1
  11              		.eabi_attribute 30, 1
  12              		.eabi_attribute 34, 1
  13              		.eabi_attribute 18, 4
  14              		.file	"stm32f7xx_ll_utils.c"
  15              		.text
  16              		.section	.text.UTILS_GetPLLOutputFrequency,"ax",%progbits
  17              		.align	1
  18              		.syntax unified
  19              		.thumb
  20              		.thumb_func
  22              	UTILS_GetPLLOutputFrequency:
  23              		@ args = 0, pretend = 0, frame = 0
  24              		@ frame_needed = 0, uses_anonymous_args = 0
  25              		@ link register save eliminated.
  26 0000 0B68     		ldr	r3, [r1]
  27 0002 03F03F03 		and	r3, r3, #63
  28 0006 B0FBF3F0 		udiv	r0, r0, r3
  29 000a 4B68     		ldr	r3, [r1, #4]
  30 000c C3F30803 		ubfx	r3, r3, #0, #9
  31 0010 03FB00F0 		mul	r0, r3, r0
  32 0014 4B89     		ldrh	r3, [r1, #10]
  33 0016 0133     		adds	r3, r3, #1
  34 0018 5B00     		lsls	r3, r3, #1
  35 001a B0FBF3F0 		udiv	r0, r0, r3
  36 001e 7047     		bx	lr
  38              		.section	.text.UTILS_PLL_IsBusy,"ax",%progbits
  39              		.align	1
  40              		.syntax unified
  41              		.thumb
  42              		.thumb_func
  44              	UTILS_PLL_IsBusy:
  45              		@ args = 0, pretend = 0, frame = 0
  46              		@ frame_needed = 0, uses_anonymous_args = 0
  47              		@ link register save eliminated.
  48 0000 0A4B     		ldr	r3, .L9
  49 0002 1B68     		ldr	r3, [r3]
  50 0004 13F0007F 		tst	r3, #33554432
  51 0008 0DD1     		bne	.L6
  52 000a 0020     		movs	r0, #0
  53              	.L3:
  54 000c 074B     		ldr	r3, .L9
  55 000e 1B68     		ldr	r3, [r3]
  56 0010 13F0005F 		tst	r3, #536870912
  57 0014 00D0     		beq	.L4
  58 0016 0120     		movs	r0, #1
  59              	.L4:
  60 0018 044B     		ldr	r3, .L9
ARM GAS  /var/folders/0f/x4_g94q9649fs6s33cksjfb00000gn/T//ccDl4ry4.s 			page 2


  61 001a 1B68     		ldr	r3, [r3]
  62 001c 13F0006F 		tst	r3, #134217728
  63 0020 00D0     		beq	.L5
  64 0022 0120     		movs	r0, #1
  65              	.L5:
  66 0024 7047     		bx	lr
  67              	.L6:
  68 0026 0120     		movs	r0, #1
  69 0028 F0E7     		b	.L3
  70              	.L10:
  71 002a 00BF     		.align	2
  72              	.L9:
  73 002c 00380240 		.word	1073887232
  75              		.section	.text.LL_Init1msTick,"ax",%progbits
  76              		.align	1
  77              		.global	LL_Init1msTick
  78              		.syntax unified
  79              		.thumb
  80              		.thumb_func
  82              	LL_Init1msTick:
  83              		@ args = 0, pretend = 0, frame = 0
  84              		@ frame_needed = 0, uses_anonymous_args = 0
  85              		@ link register save eliminated.
  86 0000 064B     		ldr	r3, .L12
  87 0002 A3FB0023 		umull	r2, r3, r3, r0
  88 0006 9B09     		lsrs	r3, r3, #6
  89 0008 013B     		subs	r3, r3, #1
  90 000a 4FF0E022 		mov	r2, #-536813568
  91 000e 5361     		str	r3, [r2, #20]
  92 0010 0023     		movs	r3, #0
  93 0012 9361     		str	r3, [r2, #24]
  94 0014 0523     		movs	r3, #5
  95 0016 1361     		str	r3, [r2, #16]
  96 0018 7047     		bx	lr
  97              	.L13:
  98 001a 00BF     		.align	2
  99              	.L12:
 100 001c D34D6210 		.word	274877907
 102              		.section	.text.LL_mDelay,"ax",%progbits
 103              		.align	1
 104              		.global	LL_mDelay
 105              		.syntax unified
 106              		.thumb
 107              		.thumb_func
 109              	LL_mDelay:
 110              		@ args = 0, pretend = 0, frame = 8
 111              		@ frame_needed = 0, uses_anonymous_args = 0
 112              		@ link register save eliminated.
 113 0000 82B0     		sub	sp, sp, #8
 114 0002 4FF0E023 		mov	r3, #-536813568
 115 0006 1B69     		ldr	r3, [r3, #16]
 116 0008 0193     		str	r3, [sp, #4]
 117 000a 019B     		ldr	r3, [sp, #4]
 118 000c B0F1FF3F 		cmp	r0, #-1
 119 0010 00D0     		beq	.L16
 120 0012 0130     		adds	r0, r0, #1
 121              	.L16:
ARM GAS  /var/folders/0f/x4_g94q9649fs6s33cksjfb00000gn/T//ccDl4ry4.s 			page 3


 122 0014 38B1     		cbz	r0, .L20
 123 0016 4FF0E023 		mov	r3, #-536813568
 124 001a 1B69     		ldr	r3, [r3, #16]
 125 001c 13F4803F 		tst	r3, #65536
 126 0020 F8D0     		beq	.L16
 127 0022 0138     		subs	r0, r0, #1
 128 0024 F6E7     		b	.L16
 129              	.L20:
 130 0026 02B0     		add	sp, sp, #8
 131              		@ sp needed
 132 0028 7047     		bx	lr
 134              		.section	.text.LL_SetSystemCoreClock,"ax",%progbits
 135              		.align	1
 136              		.global	LL_SetSystemCoreClock
 137              		.syntax unified
 138              		.thumb
 139              		.thumb_func
 141              	LL_SetSystemCoreClock:
 142              		@ args = 0, pretend = 0, frame = 0
 143              		@ frame_needed = 0, uses_anonymous_args = 0
 144              		@ link register save eliminated.
 145 0000 014B     		ldr	r3, .L22
 146 0002 1860     		str	r0, [r3]
 147 0004 7047     		bx	lr
 148              	.L23:
 149 0006 00BF     		.align	2
 150              	.L22:
 151 0008 00000000 		.word	SystemCoreClock
 153              		.section	.text.LL_SetFlashLatency,"ax",%progbits
 154              		.align	1
 155              		.global	LL_SetFlashLatency
 156              		.syntax unified
 157              		.thumb
 158              		.thumb_func
 160              	LL_SetFlashLatency:
 161              		@ args = 0, pretend = 0, frame = 0
 162              		@ frame_needed = 0, uses_anonymous_args = 0
 163              		@ link register save eliminated.
 164 0000 0028     		cmp	r0, #0
 165 0002 00F09880 		beq	.L32
 166 0006 10B4     		push	{r4}
 167 0008 0246     		mov	r2, r0
 168 000a 4D4B     		ldr	r3, .L56
 169 000c 1B68     		ldr	r3, [r3]
 170 000e 03F44043 		and	r3, r3, #49152
 171 0012 B3F5404F 		cmp	r3, #49152
 172 0016 14D0     		beq	.L54
 173 0018 494B     		ldr	r3, .L56
 174 001a 1B68     		ldr	r3, [r3]
 175 001c 03F44043 		and	r3, r3, #49152
 176 0020 B3F5004F 		cmp	r3, #32768
 177 0024 41D0     		beq	.L55
 178 0026 474B     		ldr	r3, .L56+4
 179 0028 9842     		cmp	r0, r3
 180 002a 64D8     		bhi	.L44
 181 002c 464B     		ldr	r3, .L56+8
 182 002e 9842     		cmp	r0, r3
ARM GAS  /var/folders/0f/x4_g94q9649fs6s33cksjfb00000gn/T//ccDl4ry4.s 			page 4


 183 0030 7BD8     		bhi	.L45
 184 0032 464B     		ldr	r3, .L56+12
 185 0034 9842     		cmp	r0, r3
 186 0036 7AD8     		bhi	.L46
 187 0038 454B     		ldr	r3, .L56+16
 188 003a 9842     		cmp	r0, r3
 189 003c 79D8     		bhi	.L47
 190 003e 0020     		movs	r0, #0
 191 0040 5AE0     		b	.L28
 192              	.L54:
 193 0042 3F4B     		ldr	r3, .L56
 194 0044 1868     		ldr	r0, [r3]
 195 0046 10F48030 		ands	r0, r0, #65536
 196 004a 03D0     		beq	.L27
 197 004c 414B     		ldr	r3, .L56+20
 198 004e 9A42     		cmp	r2, r3
 199 0050 29D9     		bls	.L33
 200 0052 0720     		movs	r0, #7
 201              	.L27:
 202 0054 B0FA80F3 		clz	r3, r0
 203 0058 5B09     		lsrs	r3, r3, #5
 204 005a 3F4C     		ldr	r4, .L56+24
 205 005c A242     		cmp	r2, r4
 206 005e 94BF     		ite	ls
 207 0060 0021     		movls	r1, #0
 208 0062 03F00101 		andhi	r1, r3, #1
 209 0066 0029     		cmp	r1, #0
 210 0068 33D1     		bne	.L34
 211 006a 364C     		ldr	r4, .L56+4
 212 006c A242     		cmp	r2, r4
 213 006e 94BF     		ite	ls
 214 0070 0021     		movls	r1, #0
 215 0072 03F00101 		andhi	r1, r3, #1
 216 0076 71BB     		cbnz	r1, .L35
 217 0078 334C     		ldr	r4, .L56+8
 218 007a A242     		cmp	r2, r4
 219 007c 94BF     		ite	ls
 220 007e 0021     		movls	r1, #0
 221 0080 03F00101 		andhi	r1, r3, #1
 222 0084 49BB     		cbnz	r1, .L36
 223 0086 314C     		ldr	r4, .L56+12
 224 0088 A242     		cmp	r2, r4
 225 008a 94BF     		ite	ls
 226 008c 0021     		movls	r1, #0
 227 008e 03F00101 		andhi	r1, r3, #1
 228 0092 21BB     		cbnz	r1, .L37
 229 0094 2E49     		ldr	r1, .L56+16
 230 0096 8A42     		cmp	r2, r1
 231 0098 94BF     		ite	ls
 232 009a 0023     		movls	r3, #0
 233 009c 03F00103 		andhi	r3, r3, #1
 234 00a0 53B3     		cbz	r3, .L28
 235 00a2 0120     		movs	r0, #1
 236 00a4 28E0     		b	.L28
 237              	.L33:
 238 00a6 0620     		movs	r0, #6
 239 00a8 D4E7     		b	.L27
ARM GAS  /var/folders/0f/x4_g94q9649fs6s33cksjfb00000gn/T//ccDl4ry4.s 			page 5


 240              	.L55:
 241 00aa 03F10F63 		add	r3, r3, #149946368
 242 00ae 03F5A343 		add	r3, r3, #20864
 243 00b2 9842     		cmp	r0, r3
 244 00b4 15D8     		bhi	.L39
 245 00b6 234B     		ldr	r3, .L56+4
 246 00b8 9842     		cmp	r0, r3
 247 00ba 14D8     		bhi	.L40
 248 00bc 224B     		ldr	r3, .L56+8
 249 00be 9842     		cmp	r0, r3
 250 00c0 13D8     		bhi	.L41
 251 00c2 224B     		ldr	r3, .L56+12
 252 00c4 9842     		cmp	r0, r3
 253 00c6 12D8     		bhi	.L42
 254 00c8 214B     		ldr	r3, .L56+16
 255 00ca 9842     		cmp	r0, r3
 256 00cc 11D8     		bhi	.L43
 257 00ce 0020     		movs	r0, #0
 258 00d0 12E0     		b	.L28
 259              	.L34:
 260 00d2 0520     		movs	r0, #5
 261 00d4 10E0     		b	.L28
 262              	.L35:
 263 00d6 0420     		movs	r0, #4
 264 00d8 0EE0     		b	.L28
 265              	.L36:
 266 00da 0320     		movs	r0, #3
 267 00dc 0CE0     		b	.L28
 268              	.L37:
 269 00de 0220     		movs	r0, #2
 270 00e0 0AE0     		b	.L28
 271              	.L39:
 272 00e2 0520     		movs	r0, #5
 273 00e4 08E0     		b	.L28
 274              	.L40:
 275 00e6 0420     		movs	r0, #4
 276 00e8 06E0     		b	.L28
 277              	.L41:
 278 00ea 0320     		movs	r0, #3
 279 00ec 04E0     		b	.L28
 280              	.L42:
 281 00ee 0220     		movs	r0, #2
 282 00f0 02E0     		b	.L28
 283              	.L43:
 284 00f2 0120     		movs	r0, #1
 285 00f4 00E0     		b	.L28
 286              	.L44:
 287 00f6 0420     		movs	r0, #4
 288              	.L28:
 289 00f8 184A     		ldr	r2, .L56+28
 290 00fa 1368     		ldr	r3, [r2]
 291 00fc 23F00F03 		bic	r3, r3, #15
 292 0100 0343     		orrs	r3, r3, r0
 293 0102 1360     		str	r3, [r2]
 294 0104 0222     		movs	r2, #2
 295              	.L30:
 296 0106 154B     		ldr	r3, .L56+28
ARM GAS  /var/folders/0f/x4_g94q9649fs6s33cksjfb00000gn/T//ccDl4ry4.s 			page 6


 297 0108 1B68     		ldr	r3, [r3]
 298 010a 03F00F03 		and	r3, r3, #15
 299 010e 013A     		subs	r2, r2, #1
 300 0110 111E     		subs	r1, r2, #0
 301 0112 18BF     		it	ne
 302 0114 0121     		movne	r1, #1
 303 0116 9842     		cmp	r0, r3
 304 0118 01D0     		beq	.L49
 305 011a 0029     		cmp	r1, #0
 306 011c F3D1     		bne	.L30
 307              	.L49:
 308 011e 9842     		cmp	r0, r3
 309 0120 0BD0     		beq	.L48
 310 0122 0120     		movs	r0, #1
 311              	.L25:
 312 0124 5DF8044B 		ldr	r4, [sp], #4
 313 0128 7047     		bx	lr
 314              	.L45:
 315 012a 0320     		movs	r0, #3
 316 012c E4E7     		b	.L28
 317              	.L46:
 318 012e 0220     		movs	r0, #2
 319 0130 E2E7     		b	.L28
 320              	.L47:
 321 0132 0120     		movs	r0, #1
 322 0134 E0E7     		b	.L28
 323              	.L32:
 324 0136 0120     		movs	r0, #1
 325 0138 7047     		bx	lr
 326              	.L48:
 327 013a 0020     		movs	r0, #0
 328 013c F2E7     		b	.L25
 329              	.L57:
 330 013e 00BF     		.align	2
 331              	.L56:
 332 0140 00700040 		.word	1073770496
 333 0144 000E2707 		.word	120000000
 334 0148 804A5D05 		.word	90000000
 335 014c 00879303 		.word	60000000
 336 0150 80C3C901 		.word	30000000
 337 0154 8058840C 		.word	210000000
 338 0158 80D1F008 		.word	150000000
 339 015c 003C0240 		.word	1073888256
 341              		.section	.text.UTILS_EnablePLLAndSwitchSystem,"ax",%progbits
 342              		.align	1
 343              		.syntax unified
 344              		.thumb
 345              		.thumb_func
 347              	UTILS_EnablePLLAndSwitchSystem:
 348              		@ args = 0, pretend = 0, frame = 0
 349              		@ frame_needed = 0, uses_anonymous_args = 0
 350 0000 70B5     		push	{r4, r5, r6, lr}
 351 0002 0C46     		mov	r4, r1
 352 0004 0B68     		ldr	r3, [r1]
 353 0006 C3F30313 		ubfx	r3, r3, #4, #4
 354 000a 254A     		ldr	r2, .L70
 355 000c D35C     		ldrb	r3, [r2, r3]	@ zero_extendqisi2
ARM GAS  /var/folders/0f/x4_g94q9649fs6s33cksjfb00000gn/T//ccDl4ry4.s 			page 7


 356 000e 20FA03F5 		lsr	r5, r0, r3
 357 0012 244B     		ldr	r3, .L70+4
 358 0014 1B68     		ldr	r3, [r3]
 359 0016 AB42     		cmp	r3, r5
 360 0018 31D3     		bcc	.L67
 361 001a 0026     		movs	r6, #0
 362              	.L59:
 363 001c 224A     		ldr	r2, .L70+8
 364 001e 1368     		ldr	r3, [r2]
 365 0020 43F08073 		orr	r3, r3, #16777216
 366 0024 1360     		str	r3, [r2]
 367              	.L61:
 368 0026 204B     		ldr	r3, .L70+8
 369 0028 1B68     		ldr	r3, [r3]
 370 002a 13F0007F 		tst	r3, #33554432
 371 002e FAD0     		beq	.L61
 372 0030 2368     		ldr	r3, [r4]
 373 0032 1D4A     		ldr	r2, .L70+8
 374 0034 9168     		ldr	r1, [r2, #8]
 375 0036 21F0F001 		bic	r1, r1, #240
 376 003a 0B43     		orrs	r3, r3, r1
 377 003c 9360     		str	r3, [r2, #8]
 378 003e 9368     		ldr	r3, [r2, #8]
 379 0040 23F00303 		bic	r3, r3, #3
 380 0044 43F00203 		orr	r3, r3, #2
 381 0048 9360     		str	r3, [r2, #8]
 382              	.L62:
 383 004a 174B     		ldr	r3, .L70+8
 384 004c 9B68     		ldr	r3, [r3, #8]
 385 004e 03F00C03 		and	r3, r3, #12
 386 0052 082B     		cmp	r3, #8
 387 0054 F9D1     		bne	.L62
 388 0056 6268     		ldr	r2, [r4, #4]
 389 0058 134B     		ldr	r3, .L70+8
 390 005a 9968     		ldr	r1, [r3, #8]
 391 005c 21F4E051 		bic	r1, r1, #7168
 392 0060 0A43     		orrs	r2, r2, r1
 393 0062 9A60     		str	r2, [r3, #8]
 394 0064 A268     		ldr	r2, [r4, #8]
 395 0066 9968     		ldr	r1, [r3, #8]
 396 0068 21F46041 		bic	r1, r1, #57344
 397 006c 0A43     		orrs	r2, r2, r1
 398 006e 9A60     		str	r2, [r3, #8]
 399              	.L60:
 400 0070 0C4B     		ldr	r3, .L70+4
 401 0072 1B68     		ldr	r3, [r3]
 402 0074 AB42     		cmp	r3, r5
 403 0076 09D8     		bhi	.L68
 404              	.L63:
 405 0078 6EB1     		cbz	r6, .L69
 406              	.L64:
 407 007a 3046     		mov	r0, r6
 408 007c 70BD     		pop	{r4, r5, r6, pc}
 409              	.L67:
 410 007e 2846     		mov	r0, r5
 411 0080 FFF7FEFF 		bl	LL_SetFlashLatency
 412 0084 0646     		mov	r6, r0
ARM GAS  /var/folders/0f/x4_g94q9649fs6s33cksjfb00000gn/T//ccDl4ry4.s 			page 8


 413 0086 0028     		cmp	r0, #0
 414 0088 F2D1     		bne	.L60
 415 008a C7E7     		b	.L59
 416              	.L68:
 417 008c 2846     		mov	r0, r5
 418 008e FFF7FEFF 		bl	LL_SetFlashLatency
 419 0092 0646     		mov	r6, r0
 420 0094 F0E7     		b	.L63
 421              	.L69:
 422 0096 2846     		mov	r0, r5
 423 0098 FFF7FEFF 		bl	LL_SetSystemCoreClock
 424 009c EDE7     		b	.L64
 425              	.L71:
 426 009e 00BF     		.align	2
 427              	.L70:
 428 00a0 00000000 		.word	AHBPrescTable
 429 00a4 00000000 		.word	SystemCoreClock
 430 00a8 00380240 		.word	1073887232
 432              		.section	.text.LL_PLL_ConfigSystemClock_HSI,"ax",%progbits
 433              		.align	1
 434              		.global	LL_PLL_ConfigSystemClock_HSI
 435              		.syntax unified
 436              		.thumb
 437              		.thumb_func
 439              	LL_PLL_ConfigSystemClock_HSI:
 440              		@ args = 0, pretend = 0, frame = 0
 441              		@ frame_needed = 0, uses_anonymous_args = 0
 442 0000 F8B5     		push	{r3, r4, r5, r6, r7, lr}
 443 0002 0446     		mov	r4, r0
 444 0004 0D46     		mov	r5, r1
 445 0006 FFF7FEFF 		bl	UTILS_PLL_IsBusy
 446 000a 10BB     		cbnz	r0, .L76
 447 000c 2146     		mov	r1, r4
 448 000e 1248     		ldr	r0, .L78
 449 0010 FFF7FEFF 		bl	UTILS_GetPLLOutputFrequency
 450 0014 114B     		ldr	r3, .L78+4
 451 0016 1B68     		ldr	r3, [r3]
 452 0018 13F0020F 		tst	r3, #2
 453 001c 09D1     		bne	.L74
 454 001e 0F4A     		ldr	r2, .L78+4
 455 0020 1368     		ldr	r3, [r2]
 456 0022 43F00103 		orr	r3, r3, #1
 457 0026 1360     		str	r3, [r2]
 458              	.L75:
 459 0028 0C4B     		ldr	r3, .L78+4
 460 002a 1B68     		ldr	r3, [r3]
 461 002c 13F0020F 		tst	r3, #2
 462 0030 FAD0     		beq	.L75
 463              	.L74:
 464 0032 2168     		ldr	r1, [r4]
 465 0034 6668     		ldr	r6, [r4, #4]
 466 0036 A268     		ldr	r2, [r4, #8]
 467 0038 084C     		ldr	r4, .L78+4
 468 003a 6768     		ldr	r7, [r4, #4]
 469 003c 084B     		ldr	r3, .L78+8
 470 003e 3B40     		ands	r3, r3, r7
 471 0040 41EA8611 		orr	r1, r1, r6, lsl #6
ARM GAS  /var/folders/0f/x4_g94q9649fs6s33cksjfb00000gn/T//ccDl4ry4.s 			page 9


 472 0044 0A43     		orrs	r2, r2, r1
 473 0046 1343     		orrs	r3, r3, r2
 474 0048 6360     		str	r3, [r4, #4]
 475 004a 2946     		mov	r1, r5
 476 004c FFF7FEFF 		bl	UTILS_EnablePLLAndSwitchSystem
 477              	.L73:
 478 0050 F8BD     		pop	{r3, r4, r5, r6, r7, pc}
 479              	.L76:
 480 0052 0120     		movs	r0, #1
 481 0054 FCE7     		b	.L73
 482              	.L79:
 483 0056 00BF     		.align	2
 484              	.L78:
 485 0058 0024F400 		.word	16000000
 486 005c 00380240 		.word	1073887232
 487 0060 0080BCFF 		.word	-4423680
 489              		.section	.text.LL_PLL_ConfigSystemClock_HSE,"ax",%progbits
 490              		.align	1
 491              		.global	LL_PLL_ConfigSystemClock_HSE
 492              		.syntax unified
 493              		.thumb
 494              		.thumb_func
 496              	LL_PLL_ConfigSystemClock_HSE:
 497              		@ args = 0, pretend = 0, frame = 0
 498              		@ frame_needed = 0, uses_anonymous_args = 0
 499 0000 F8B5     		push	{r3, r4, r5, r6, r7, lr}
 500 0002 0646     		mov	r6, r0
 501 0004 0F46     		mov	r7, r1
 502 0006 1446     		mov	r4, r2
 503 0008 1D46     		mov	r5, r3
 504 000a FFF7FEFF 		bl	UTILS_PLL_IsBusy
 505 000e 0028     		cmp	r0, #0
 506 0010 31D1     		bne	.L86
 507 0012 2146     		mov	r1, r4
 508 0014 3046     		mov	r0, r6
 509 0016 FFF7FEFF 		bl	UTILS_GetPLLOutputFrequency
 510 001a 184B     		ldr	r3, .L89
 511 001c 1B68     		ldr	r3, [r3]
 512 001e 13F4003F 		tst	r3, #131072
 513 0022 10D1     		bne	.L82
 514 0024 012F     		cmp	r7, #1
 515 0026 20D0     		beq	.L88
 516 0028 144A     		ldr	r2, .L89
 517 002a 1368     		ldr	r3, [r2]
 518 002c 23F48023 		bic	r3, r3, #262144
 519 0030 1360     		str	r3, [r2]
 520              	.L84:
 521 0032 124A     		ldr	r2, .L89
 522 0034 1368     		ldr	r3, [r2]
 523 0036 43F48033 		orr	r3, r3, #65536
 524 003a 1360     		str	r3, [r2]
 525              	.L85:
 526 003c 0F4A     		ldr	r2, .L89
 527 003e 1268     		ldr	r2, [r2]
 528 0040 12F4003F 		tst	r2, #131072
 529 0044 FAD0     		beq	.L85
 530              	.L82:
ARM GAS  /var/folders/0f/x4_g94q9649fs6s33cksjfb00000gn/T//ccDl4ry4.s 			page 10


 531 0046 2268     		ldr	r2, [r4]
 532 0048 6668     		ldr	r6, [r4, #4]
 533 004a A168     		ldr	r1, [r4, #8]
 534 004c 0B4C     		ldr	r4, .L89
 535 004e 6768     		ldr	r7, [r4, #4]
 536 0050 0B4B     		ldr	r3, .L89+4
 537 0052 3B40     		ands	r3, r3, r7
 538 0054 42F48002 		orr	r2, r2, #4194304
 539 0058 42EA8612 		orr	r2, r2, r6, lsl #6
 540 005c 0A43     		orrs	r2, r2, r1
 541 005e 1343     		orrs	r3, r3, r2
 542 0060 6360     		str	r3, [r4, #4]
 543 0062 2946     		mov	r1, r5
 544 0064 FFF7FEFF 		bl	UTILS_EnablePLLAndSwitchSystem
 545              	.L81:
 546 0068 F8BD     		pop	{r3, r4, r5, r6, r7, pc}
 547              	.L88:
 548 006a 044A     		ldr	r2, .L89
 549 006c 1368     		ldr	r3, [r2]
 550 006e 43F48023 		orr	r3, r3, #262144
 551 0072 1360     		str	r3, [r2]
 552 0074 DDE7     		b	.L84
 553              	.L86:
 554 0076 0120     		movs	r0, #1
 555 0078 F6E7     		b	.L81
 556              	.L90:
 557 007a 00BF     		.align	2
 558              	.L89:
 559 007c 00380240 		.word	1073887232
 560 0080 0080BCFF 		.word	-4423680
 562              		.ident	"GCC: (Arm GNU Toolchain 14.2.Rel1 (Build arm-14.52)) 14.2.1 20241119"
ARM GAS  /var/folders/0f/x4_g94q9649fs6s33cksjfb00000gn/T//ccDl4ry4.s 			page 11

