ARM GAS  /var/folders/0f/x4_g94q9649fs6s33cksjfb00000gn/T//ccfL3aoH.s 			page 1


   1              		.cpu cortex-m7
   2              		.arch armv7e-m
   3              		.fpu fpv5-d16
   4              		.eabi_attribute 28, 1
   5              		.eabi_attribute 20, 1
   6              		.eabi_attribute 21, 1
   7              		.eabi_attribute 23, 3
   8              		.eabi_attribute 24, 1
   9              		.eabi_attribute 25, 1
  10              		.eabi_attribute 26, 1
  11              		.eabi_attribute 30, 1
  12              		.eabi_attribute 34, 1
  13              		.eabi_attribute 18, 4
  14              		.file	"stm32f769i_discovery_lcd.c"
  15              		.text
  16              		.section	.text.LCD_IO_GetID,"ax",%progbits
  17              		.align	1
  18              		.syntax unified
  19              		.thumb
  20              		.thumb_func
  22              	LCD_IO_GetID:
  23              		@ args = 0, pretend = 0, frame = 0
  24              		@ frame_needed = 0, uses_anonymous_args = 0
  25              		@ link register save eliminated.
  26 0000 1120     		movs	r0, #17
  27 0002 7047     		bx	lr
  29              		.section	.text.Driver_Type,"ax",%progbits
  30              		.align	1
  31              		.syntax unified
  32              		.thumb
  33              		.thumb_func
  35              	Driver_Type:
  36              		@ args = 0, pretend = 0, frame = 0
  37              		@ frame_needed = 0, uses_anonymous_args = 0
  38 0000 08B5     		push	{r3, lr}
  39 0002 FFF7FEFF 		bl	NT35510_ReadID
  40 0006 8028     		cmp	r0, #128
  41 0008 01D1     		bne	.L7
  42 000a 0020     		movs	r0, #0
  43              	.L3:
  44 000c 08BD     		pop	{r3, pc}
  45              	.L7:
  46 000e FFF7FEFF 		bl	OTM8009A_ReadID
  47 0012 4028     		cmp	r0, #64
  48 0014 01D0     		beq	.L8
  49 0016 0220     		movs	r0, #2
  50 0018 F8E7     		b	.L3
  51              	.L8:
  52 001a 0120     		movs	r0, #1
  53 001c F6E7     		b	.L3
  55              		.section	.text.LL_FillBuffer,"ax",%progbits
  56              		.align	1
  57              		.syntax unified
  58              		.thumb
  59              		.thumb_func
  61              	LL_FillBuffer:
  62              		@ args = 8, pretend = 0, frame = 0
ARM GAS  /var/folders/0f/x4_g94q9649fs6s33cksjfb00000gn/T//ccfL3aoH.s 			page 2


  63              		@ frame_needed = 0, uses_anonymous_args = 0
  64 0000 F0B5     		push	{r4, r5, r6, r7, lr}
  65 0002 83B0     		sub	sp, sp, #12
  66 0004 0446     		mov	r4, r0
  67 0006 0D46     		mov	r5, r1
  68 0008 1646     		mov	r6, r2
  69 000a 1F46     		mov	r7, r3
  70 000c 1148     		ldr	r0, .L13
  71 000e 4FF44033 		mov	r3, #196608
  72 0012 4360     		str	r3, [r0, #4]
  73 0014 0023     		movs	r3, #0
  74 0016 8360     		str	r3, [r0, #8]
  75 0018 089B     		ldr	r3, [sp, #32]
  76 001a C360     		str	r3, [r0, #12]
  77 001c 0E4B     		ldr	r3, .L13+4
  78 001e 0360     		str	r3, [r0]
  79 0020 FFF7FEFF 		bl	HAL_DMA2D_Init
  80 0024 08B1     		cbz	r0, .L12
  81              	.L9:
  82 0026 03B0     		add	sp, sp, #12
  83              		@ sp needed
  84 0028 F0BD     		pop	{r4, r5, r6, r7, pc}
  85              	.L12:
  86 002a 2146     		mov	r1, r4
  87 002c 0948     		ldr	r0, .L13
  88 002e FFF7FEFF 		bl	HAL_DMA2D_ConfigLayer
  89 0032 0028     		cmp	r0, #0
  90 0034 F7D1     		bne	.L9
  91 0036 0097     		str	r7, [sp]
  92 0038 3346     		mov	r3, r6
  93 003a 2A46     		mov	r2, r5
  94 003c 0999     		ldr	r1, [sp, #36]
  95 003e 0548     		ldr	r0, .L13
  96 0040 FFF7FEFF 		bl	HAL_DMA2D_Start
  97 0044 0028     		cmp	r0, #0
  98 0046 EED1     		bne	.L9
  99 0048 0A21     		movs	r1, #10
 100 004a 0248     		ldr	r0, .L13
 101 004c FFF7FEFF 		bl	HAL_DMA2D_PollForTransfer
 102 0050 E9E7     		b	.L9
 103              	.L14:
 104 0052 00BF     		.align	2
 105              	.L13:
 106 0054 00000000 		.word	hdma2d_discovery
 107 0058 00B00240 		.word	1073917952
 109              		.section	.text.LL_ConvertLineToARGB8888,"ax",%progbits
 110              		.align	1
 111              		.syntax unified
 112              		.thumb
 113              		.thumb_func
 115              	LL_ConvertLineToARGB8888:
 116              		@ args = 0, pretend = 0, frame = 0
 117              		@ frame_needed = 0, uses_anonymous_args = 0
 118 0000 F0B5     		push	{r4, r5, r6, r7, lr}
 119 0002 83B0     		sub	sp, sp, #12
 120 0004 0546     		mov	r5, r0
 121 0006 0E46     		mov	r6, r1
ARM GAS  /var/folders/0f/x4_g94q9649fs6s33cksjfb00000gn/T//ccfL3aoH.s 			page 3


 122 0008 1746     		mov	r7, r2
 123 000a 1448     		ldr	r0, .L19
 124 000c 4FF48032 		mov	r2, #65536
 125 0010 4260     		str	r2, [r0, #4]
 126 0012 0024     		movs	r4, #0
 127 0014 8460     		str	r4, [r0, #8]
 128 0016 C460     		str	r4, [r0, #12]
 129 0018 0464     		str	r4, [r0, #64]
 130 001a FF22     		movs	r2, #255
 131 001c 4264     		str	r2, [r0, #68]
 132 001e C363     		str	r3, [r0, #60]
 133 0020 8463     		str	r4, [r0, #56]
 134 0022 0F4B     		ldr	r3, .L19+4
 135 0024 0360     		str	r3, [r0]
 136 0026 FFF7FEFF 		bl	HAL_DMA2D_Init
 137 002a 08B1     		cbz	r0, .L18
 138              	.L15:
 139 002c 03B0     		add	sp, sp, #12
 140              		@ sp needed
 141 002e F0BD     		pop	{r4, r5, r6, r7, pc}
 142              	.L18:
 143 0030 0121     		movs	r1, #1
 144 0032 0A48     		ldr	r0, .L19
 145 0034 FFF7FEFF 		bl	HAL_DMA2D_ConfigLayer
 146 0038 0028     		cmp	r0, #0
 147 003a F7D1     		bne	.L15
 148 003c 0123     		movs	r3, #1
 149 003e 0093     		str	r3, [sp]
 150 0040 3B46     		mov	r3, r7
 151 0042 3246     		mov	r2, r6
 152 0044 2946     		mov	r1, r5
 153 0046 0548     		ldr	r0, .L19
 154 0048 FFF7FEFF 		bl	HAL_DMA2D_Start
 155 004c 0028     		cmp	r0, #0
 156 004e EDD1     		bne	.L15
 157 0050 0A21     		movs	r1, #10
 158 0052 0248     		ldr	r0, .L19
 159 0054 FFF7FEFF 		bl	HAL_DMA2D_PollForTransfer
 160 0058 E8E7     		b	.L15
 161              	.L20:
 162 005a 00BF     		.align	2
 163              	.L19:
 164 005c 00000000 		.word	hdma2d_discovery
 165 0060 00B00240 		.word	1073917952
 167              		.section	.text.BSP_LCD_Reset,"ax",%progbits
 168              		.align	1
 169              		.global	BSP_LCD_Reset
 170              		.syntax unified
 171              		.thumb
 172              		.thumb_func
 174              	BSP_LCD_Reset:
 175              		@ args = 0, pretend = 0, frame = 24
 176              		@ frame_needed = 0, uses_anonymous_args = 0
 177 0000 70B5     		push	{r4, r5, r6, lr}
 178 0002 86B0     		sub	sp, sp, #24
 179 0004 144B     		ldr	r3, .L23
 180 0006 1A6B     		ldr	r2, [r3, #48]
ARM GAS  /var/folders/0f/x4_g94q9649fs6s33cksjfb00000gn/T//ccfL3aoH.s 			page 4


 181 0008 42F40072 		orr	r2, r2, #512
 182 000c 1A63     		str	r2, [r3, #48]
 183 000e 1B6B     		ldr	r3, [r3, #48]
 184 0010 03F40073 		and	r3, r3, #512
 185 0014 0093     		str	r3, [sp]
 186 0016 009B     		ldr	r3, [sp]
 187 0018 4FF40045 		mov	r5, #32768
 188 001c 0195     		str	r5, [sp, #4]
 189 001e 0126     		movs	r6, #1
 190 0020 0296     		str	r6, [sp, #8]
 191 0022 0396     		str	r6, [sp, #12]
 192 0024 0323     		movs	r3, #3
 193 0026 0493     		str	r3, [sp, #16]
 194 0028 0C4C     		ldr	r4, .L23+4
 195 002a 01A9     		add	r1, sp, #4
 196 002c 2046     		mov	r0, r4
 197 002e FFF7FEFF 		bl	HAL_GPIO_Init
 198 0032 0022     		movs	r2, #0
 199 0034 2946     		mov	r1, r5
 200 0036 2046     		mov	r0, r4
 201 0038 FFF7FEFF 		bl	HAL_GPIO_WritePin
 202 003c 1420     		movs	r0, #20
 203 003e FFF7FEFF 		bl	HAL_Delay
 204 0042 3246     		mov	r2, r6
 205 0044 2946     		mov	r1, r5
 206 0046 2046     		mov	r0, r4
 207 0048 FFF7FEFF 		bl	HAL_GPIO_WritePin
 208 004c 0A20     		movs	r0, #10
 209 004e FFF7FEFF 		bl	HAL_Delay
 210 0052 06B0     		add	sp, sp, #24
 211              		@ sp needed
 212 0054 70BD     		pop	{r4, r5, r6, pc}
 213              	.L24:
 214 0056 00BF     		.align	2
 215              	.L23:
 216 0058 00380240 		.word	1073887232
 217 005c 00240240 		.word	1073882112
 219              		.section	.text.BSP_LCD_GetXSize,"ax",%progbits
 220              		.align	1
 221              		.global	BSP_LCD_GetXSize
 222              		.syntax unified
 223              		.thumb
 224              		.thumb_func
 226              	BSP_LCD_GetXSize:
 227              		@ args = 0, pretend = 0, frame = 0
 228              		@ frame_needed = 0, uses_anonymous_args = 0
 229              		@ link register save eliminated.
 230 0000 014B     		ldr	r3, .L26
 231 0002 1868     		ldr	r0, [r3]
 232 0004 7047     		bx	lr
 233              	.L27:
 234 0006 00BF     		.align	2
 235              	.L26:
 236 0008 00000000 		.word	lcd_x_size
 238              		.section	.text.BSP_LCD_GetYSize,"ax",%progbits
 239              		.align	1
 240              		.global	BSP_LCD_GetYSize
ARM GAS  /var/folders/0f/x4_g94q9649fs6s33cksjfb00000gn/T//ccfL3aoH.s 			page 5


 241              		.syntax unified
 242              		.thumb
 243              		.thumb_func
 245              	BSP_LCD_GetYSize:
 246              		@ args = 0, pretend = 0, frame = 0
 247              		@ frame_needed = 0, uses_anonymous_args = 0
 248              		@ link register save eliminated.
 249 0000 014B     		ldr	r3, .L29
 250 0002 1868     		ldr	r0, [r3]
 251 0004 7047     		bx	lr
 252              	.L30:
 253 0006 00BF     		.align	2
 254              	.L29:
 255 0008 00000000 		.word	lcd_y_size
 257              		.section	.text.BSP_LCD_SetXSize,"ax",%progbits
 258              		.align	1
 259              		.global	BSP_LCD_SetXSize
 260              		.syntax unified
 261              		.thumb
 262              		.thumb_func
 264              	BSP_LCD_SetXSize:
 265              		@ args = 0, pretend = 0, frame = 0
 266              		@ frame_needed = 0, uses_anonymous_args = 0
 267              		@ link register save eliminated.
 268 0000 034B     		ldr	r3, .L32
 269 0002 1A68     		ldr	r2, [r3]
 270 0004 034B     		ldr	r3, .L32+4
 271 0006 3421     		movs	r1, #52
 272 0008 01FB0233 		mla	r3, r1, r2, r3
 273 000c 1866     		str	r0, [r3, #96]
 274 000e 7047     		bx	lr
 275              	.L33:
 276              		.align	2
 277              	.L32:
 278 0010 00000000 		.word	ActiveLayer
 279 0014 00000000 		.word	hltdc_discovery
 281              		.section	.text.BSP_LCD_SetYSize,"ax",%progbits
 282              		.align	1
 283              		.global	BSP_LCD_SetYSize
 284              		.syntax unified
 285              		.thumb
 286              		.thumb_func
 288              	BSP_LCD_SetYSize:
 289              		@ args = 0, pretend = 0, frame = 0
 290              		@ frame_needed = 0, uses_anonymous_args = 0
 291              		@ link register save eliminated.
 292 0000 034B     		ldr	r3, .L35
 293 0002 1A68     		ldr	r2, [r3]
 294 0004 034B     		ldr	r3, .L35+4
 295 0006 3421     		movs	r1, #52
 296 0008 01FB0233 		mla	r3, r1, r2, r3
 297 000c 5866     		str	r0, [r3, #100]
 298 000e 7047     		bx	lr
 299              	.L36:
 300              		.align	2
 301              	.L35:
 302 0010 00000000 		.word	ActiveLayer
ARM GAS  /var/folders/0f/x4_g94q9649fs6s33cksjfb00000gn/T//ccfL3aoH.s 			page 6


 303 0014 00000000 		.word	hltdc_discovery
 305              		.section	.text.BSP_LCD_LayerDefaultInit,"ax",%progbits
 306              		.align	1
 307              		.global	BSP_LCD_LayerDefaultInit
 308              		.syntax unified
 309              		.thumb
 310              		.thumb_func
 312              	BSP_LCD_LayerDefaultInit:
 313              		@ args = 0, pretend = 0, frame = 56
 314              		@ frame_needed = 0, uses_anonymous_args = 0
 315 0000 70B5     		push	{r4, r5, r6, lr}
 316 0002 8EB0     		sub	sp, sp, #56
 317 0004 0446     		mov	r4, r0
 318 0006 0E46     		mov	r6, r1
 319 0008 0025     		movs	r5, #0
 320 000a 0195     		str	r5, [sp, #4]
 321 000c FFF7FEFF 		bl	BSP_LCD_GetXSize
 322 0010 0290     		str	r0, [sp, #8]
 323 0012 0395     		str	r5, [sp, #12]
 324 0014 FFF7FEFF 		bl	BSP_LCD_GetYSize
 325 0018 0490     		str	r0, [sp, #16]
 326 001a 0595     		str	r5, [sp, #20]
 327 001c 0A96     		str	r6, [sp, #40]
 328 001e FF23     		movs	r3, #255
 329 0020 0693     		str	r3, [sp, #24]
 330 0022 0795     		str	r5, [sp, #28]
 331 0024 8DF83450 		strb	r5, [sp, #52]
 332 0028 8DF83550 		strb	r5, [sp, #53]
 333 002c 8DF83650 		strb	r5, [sp, #54]
 334 0030 4FF4C063 		mov	r3, #1536
 335 0034 0893     		str	r3, [sp, #32]
 336 0036 0723     		movs	r3, #7
 337 0038 0993     		str	r3, [sp, #36]
 338 003a FFF7FEFF 		bl	BSP_LCD_GetXSize
 339 003e 0B90     		str	r0, [sp, #44]
 340 0040 FFF7FEFF 		bl	BSP_LCD_GetYSize
 341 0044 0C90     		str	r0, [sp, #48]
 342 0046 2246     		mov	r2, r4
 343 0048 01A9     		add	r1, sp, #4
 344 004a 0A48     		ldr	r0, .L39
 345 004c FFF7FEFF 		bl	HAL_LTDC_ConfigLayer
 346 0050 094A     		ldr	r2, .L39+4
 347 0052 04EB4403 		add	r3, r4, r4, lsl #1
 348 0056 02EB8303 		add	r3, r2, r3, lsl #2
 349 005a 4FF0FF31 		mov	r1, #-1
 350 005e 5960     		str	r1, [r3, #4]
 351 0060 0649     		ldr	r1, .L39+8
 352 0062 9960     		str	r1, [r3, #8]
 353 0064 04EB4404 		add	r4, r4, r4, lsl #1
 354 0068 4FF07F43 		mov	r3, #-16777216
 355 006c 42F82430 		str	r3, [r2, r4, lsl #2]
 356 0070 0EB0     		add	sp, sp, #56
 357              		@ sp needed
 358 0072 70BD     		pop	{r4, r5, r6, pc}
 359              	.L40:
 360              		.align	2
 361              	.L39:
ARM GAS  /var/folders/0f/x4_g94q9649fs6s33cksjfb00000gn/T//ccfL3aoH.s 			page 7


 362 0074 00000000 		.word	hltdc_discovery
 363 0078 00000000 		.word	DrawProp
 364 007c 00000000 		.word	Font24
 366              		.section	.text.BSP_LCD_SelectLayer,"ax",%progbits
 367              		.align	1
 368              		.global	BSP_LCD_SelectLayer
 369              		.syntax unified
 370              		.thumb
 371              		.thumb_func
 373              	BSP_LCD_SelectLayer:
 374              		@ args = 0, pretend = 0, frame = 0
 375              		@ frame_needed = 0, uses_anonymous_args = 0
 376              		@ link register save eliminated.
 377 0000 014B     		ldr	r3, .L42
 378 0002 1860     		str	r0, [r3]
 379 0004 7047     		bx	lr
 380              	.L43:
 381 0006 00BF     		.align	2
 382              	.L42:
 383 0008 00000000 		.word	ActiveLayer
 385              		.section	.text.BSP_LCD_SetLayerVisible,"ax",%progbits
 386              		.align	1
 387              		.global	BSP_LCD_SetLayerVisible
 388              		.syntax unified
 389              		.thumb
 390              		.thumb_func
 392              	BSP_LCD_SetLayerVisible:
 393              		@ args = 0, pretend = 0, frame = 0
 394              		@ frame_needed = 0, uses_anonymous_args = 0
 395              		@ link register save eliminated.
 396 0000 0129     		cmp	r1, #1
 397 0002 10D0     		beq	.L47
 398 0004 0D4B     		ldr	r3, .L48
 399 0006 1B68     		ldr	r3, [r3]
 400 0008 03EBC013 		add	r3, r3, r0, lsl #7
 401 000c D3F88420 		ldr	r2, [r3, #132]
 402 0010 22F00102 		bic	r2, r2, #1
 403 0014 C3F88420 		str	r2, [r3, #132]
 404              	.L46:
 405 0018 084B     		ldr	r3, .L48
 406 001a 1A68     		ldr	r2, [r3]
 407 001c 536A     		ldr	r3, [r2, #36]
 408 001e 43F00103 		orr	r3, r3, #1
 409 0022 5362     		str	r3, [r2, #36]
 410 0024 7047     		bx	lr
 411              	.L47:
 412 0026 054B     		ldr	r3, .L48
 413 0028 1B68     		ldr	r3, [r3]
 414 002a 03EBC013 		add	r3, r3, r0, lsl #7
 415 002e D3F88420 		ldr	r2, [r3, #132]
 416 0032 42F00102 		orr	r2, r2, #1
 417 0036 C3F88420 		str	r2, [r3, #132]
 418 003a EDE7     		b	.L46
 419              	.L49:
 420              		.align	2
 421              	.L48:
 422 003c 00000000 		.word	hltdc_discovery
ARM GAS  /var/folders/0f/x4_g94q9649fs6s33cksjfb00000gn/T//ccfL3aoH.s 			page 8


 424              		.section	.text.BSP_LCD_SetTransparency,"ax",%progbits
 425              		.align	1
 426              		.global	BSP_LCD_SetTransparency
 427              		.syntax unified
 428              		.thumb
 429              		.thumb_func
 431              	BSP_LCD_SetTransparency:
 432              		@ args = 0, pretend = 0, frame = 0
 433              		@ frame_needed = 0, uses_anonymous_args = 0
 434 0000 08B5     		push	{r3, lr}
 435 0002 0246     		mov	r2, r0
 436 0004 0148     		ldr	r0, .L52
 437 0006 FFF7FEFF 		bl	HAL_LTDC_SetAlpha
 438 000a 08BD     		pop	{r3, pc}
 439              	.L53:
 440              		.align	2
 441              	.L52:
 442 000c 00000000 		.word	hltdc_discovery
 444              		.section	.text.BSP_LCD_SetLayerAddress,"ax",%progbits
 445              		.align	1
 446              		.global	BSP_LCD_SetLayerAddress
 447              		.syntax unified
 448              		.thumb
 449              		.thumb_func
 451              	BSP_LCD_SetLayerAddress:
 452              		@ args = 0, pretend = 0, frame = 0
 453              		@ frame_needed = 0, uses_anonymous_args = 0
 454 0000 08B5     		push	{r3, lr}
 455 0002 0246     		mov	r2, r0
 456 0004 0148     		ldr	r0, .L56
 457 0006 FFF7FEFF 		bl	HAL_LTDC_SetAddress
 458 000a 08BD     		pop	{r3, pc}
 459              	.L57:
 460              		.align	2
 461              	.L56:
 462 000c 00000000 		.word	hltdc_discovery
 464              		.section	.text.BSP_LCD_SetLayerWindow,"ax",%progbits
 465              		.align	1
 466              		.global	BSP_LCD_SetLayerWindow
 467              		.syntax unified
 468              		.thumb
 469              		.thumb_func
 471              	BSP_LCD_SetLayerWindow:
 472              		@ args = 4, pretend = 0, frame = 0
 473              		@ frame_needed = 0, uses_anonymous_args = 0
 474 0000 F8B5     		push	{r3, r4, r5, r6, r7, lr}
 475 0002 0446     		mov	r4, r0
 476 0004 0D46     		mov	r5, r1
 477 0006 1646     		mov	r6, r2
 478 0008 1946     		mov	r1, r3
 479 000a 074F     		ldr	r7, .L60
 480 000c 0346     		mov	r3, r0
 481 000e BDF81820 		ldrh	r2, [sp, #24]
 482 0012 3846     		mov	r0, r7
 483 0014 FFF7FEFF 		bl	HAL_LTDC_SetWindowSize
 484 0018 2346     		mov	r3, r4
 485 001a 3246     		mov	r2, r6
ARM GAS  /var/folders/0f/x4_g94q9649fs6s33cksjfb00000gn/T//ccfL3aoH.s 			page 9


 486 001c 2946     		mov	r1, r5
 487 001e 3846     		mov	r0, r7
 488 0020 FFF7FEFF 		bl	HAL_LTDC_SetWindowPosition
 489 0024 F8BD     		pop	{r3, r4, r5, r6, r7, pc}
 490              	.L61:
 491 0026 00BF     		.align	2
 492              	.L60:
 493 0028 00000000 		.word	hltdc_discovery
 495              		.section	.text.BSP_LCD_SetColorKeying,"ax",%progbits
 496              		.align	1
 497              		.global	BSP_LCD_SetColorKeying
 498              		.syntax unified
 499              		.thumb
 500              		.thumb_func
 502              	BSP_LCD_SetColorKeying:
 503              		@ args = 0, pretend = 0, frame = 0
 504              		@ frame_needed = 0, uses_anonymous_args = 0
 505 0000 38B5     		push	{r3, r4, r5, lr}
 506 0002 0446     		mov	r4, r0
 507 0004 044D     		ldr	r5, .L64
 508 0006 0246     		mov	r2, r0
 509 0008 2846     		mov	r0, r5
 510 000a FFF7FEFF 		bl	HAL_LTDC_ConfigColorKeying
 511 000e 2146     		mov	r1, r4
 512 0010 2846     		mov	r0, r5
 513 0012 FFF7FEFF 		bl	HAL_LTDC_EnableColorKeying
 514 0016 38BD     		pop	{r3, r4, r5, pc}
 515              	.L65:
 516              		.align	2
 517              	.L64:
 518 0018 00000000 		.word	hltdc_discovery
 520              		.section	.text.BSP_LCD_ResetColorKeying,"ax",%progbits
 521              		.align	1
 522              		.global	BSP_LCD_ResetColorKeying
 523              		.syntax unified
 524              		.thumb
 525              		.thumb_func
 527              	BSP_LCD_ResetColorKeying:
 528              		@ args = 0, pretend = 0, frame = 0
 529              		@ frame_needed = 0, uses_anonymous_args = 0
 530 0000 08B5     		push	{r3, lr}
 531 0002 0146     		mov	r1, r0
 532 0004 0148     		ldr	r0, .L68
 533 0006 FFF7FEFF 		bl	HAL_LTDC_DisableColorKeying
 534 000a 08BD     		pop	{r3, pc}
 535              	.L69:
 536              		.align	2
 537              	.L68:
 538 000c 00000000 		.word	hltdc_discovery
 540              		.section	.text.BSP_LCD_SetTextColor,"ax",%progbits
 541              		.align	1
 542              		.global	BSP_LCD_SetTextColor
 543              		.syntax unified
 544              		.thumb
 545              		.thumb_func
 547              	BSP_LCD_SetTextColor:
 548              		@ args = 0, pretend = 0, frame = 0
ARM GAS  /var/folders/0f/x4_g94q9649fs6s33cksjfb00000gn/T//ccfL3aoH.s 			page 10


 549              		@ frame_needed = 0, uses_anonymous_args = 0
 550              		@ link register save eliminated.
 551 0000 034B     		ldr	r3, .L71
 552 0002 1B68     		ldr	r3, [r3]
 553 0004 03EB4303 		add	r3, r3, r3, lsl #1
 554 0008 024A     		ldr	r2, .L71+4
 555 000a 42F82300 		str	r0, [r2, r3, lsl #2]
 556 000e 7047     		bx	lr
 557              	.L72:
 558              		.align	2
 559              	.L71:
 560 0010 00000000 		.word	ActiveLayer
 561 0014 00000000 		.word	DrawProp
 563              		.section	.text.BSP_LCD_GetTextColor,"ax",%progbits
 564              		.align	1
 565              		.global	BSP_LCD_GetTextColor
 566              		.syntax unified
 567              		.thumb
 568              		.thumb_func
 570              	BSP_LCD_GetTextColor:
 571              		@ args = 0, pretend = 0, frame = 0
 572              		@ frame_needed = 0, uses_anonymous_args = 0
 573              		@ link register save eliminated.
 574 0000 034B     		ldr	r3, .L74
 575 0002 1B68     		ldr	r3, [r3]
 576 0004 03EB4303 		add	r3, r3, r3, lsl #1
 577 0008 9A00     		lsls	r2, r3, #2
 578 000a 024B     		ldr	r3, .L74+4
 579 000c 9858     		ldr	r0, [r3, r2]
 580 000e 7047     		bx	lr
 581              	.L75:
 582              		.align	2
 583              	.L74:
 584 0010 00000000 		.word	ActiveLayer
 585 0014 00000000 		.word	DrawProp
 587              		.section	.text.BSP_LCD_SetBackColor,"ax",%progbits
 588              		.align	1
 589              		.global	BSP_LCD_SetBackColor
 590              		.syntax unified
 591              		.thumb
 592              		.thumb_func
 594              	BSP_LCD_SetBackColor:
 595              		@ args = 0, pretend = 0, frame = 0
 596              		@ frame_needed = 0, uses_anonymous_args = 0
 597              		@ link register save eliminated.
 598 0000 044B     		ldr	r3, .L77
 599 0002 1B68     		ldr	r3, [r3]
 600 0004 03EB4303 		add	r3, r3, r3, lsl #1
 601 0008 034A     		ldr	r2, .L77+4
 602 000a 02EB8303 		add	r3, r2, r3, lsl #2
 603 000e 5860     		str	r0, [r3, #4]
 604 0010 7047     		bx	lr
 605              	.L78:
 606 0012 00BF     		.align	2
 607              	.L77:
 608 0014 00000000 		.word	ActiveLayer
 609 0018 00000000 		.word	DrawProp
ARM GAS  /var/folders/0f/x4_g94q9649fs6s33cksjfb00000gn/T//ccfL3aoH.s 			page 11


 611              		.section	.text.BSP_LCD_GetBackColor,"ax",%progbits
 612              		.align	1
 613              		.global	BSP_LCD_GetBackColor
 614              		.syntax unified
 615              		.thumb
 616              		.thumb_func
 618              	BSP_LCD_GetBackColor:
 619              		@ args = 0, pretend = 0, frame = 0
 620              		@ frame_needed = 0, uses_anonymous_args = 0
 621              		@ link register save eliminated.
 622 0000 044B     		ldr	r3, .L80
 623 0002 1B68     		ldr	r3, [r3]
 624 0004 03EB4303 		add	r3, r3, r3, lsl #1
 625 0008 9A00     		lsls	r2, r3, #2
 626 000a 034B     		ldr	r3, .L80+4
 627 000c 1344     		add	r3, r3, r2
 628 000e 5868     		ldr	r0, [r3, #4]
 629 0010 7047     		bx	lr
 630              	.L81:
 631 0012 00BF     		.align	2
 632              	.L80:
 633 0014 00000000 		.word	ActiveLayer
 634 0018 00000000 		.word	DrawProp
 636              		.section	.text.BSP_LCD_SetFont,"ax",%progbits
 637              		.align	1
 638              		.global	BSP_LCD_SetFont
 639              		.syntax unified
 640              		.thumb
 641              		.thumb_func
 643              	BSP_LCD_SetFont:
 644              		@ args = 0, pretend = 0, frame = 0
 645              		@ frame_needed = 0, uses_anonymous_args = 0
 646              		@ link register save eliminated.
 647 0000 044B     		ldr	r3, .L83
 648 0002 1B68     		ldr	r3, [r3]
 649 0004 03EB4303 		add	r3, r3, r3, lsl #1
 650 0008 034A     		ldr	r2, .L83+4
 651 000a 02EB8303 		add	r3, r2, r3, lsl #2
 652 000e 9860     		str	r0, [r3, #8]
 653 0010 7047     		bx	lr
 654              	.L84:
 655 0012 00BF     		.align	2
 656              	.L83:
 657 0014 00000000 		.word	ActiveLayer
 658 0018 00000000 		.word	DrawProp
 660              		.section	.text.BSP_LCD_GetFont,"ax",%progbits
 661              		.align	1
 662              		.global	BSP_LCD_GetFont
 663              		.syntax unified
 664              		.thumb
 665              		.thumb_func
 667              	BSP_LCD_GetFont:
 668              		@ args = 0, pretend = 0, frame = 0
 669              		@ frame_needed = 0, uses_anonymous_args = 0
 670              		@ link register save eliminated.
 671 0000 044B     		ldr	r3, .L86
 672 0002 1B68     		ldr	r3, [r3]
ARM GAS  /var/folders/0f/x4_g94q9649fs6s33cksjfb00000gn/T//ccfL3aoH.s 			page 12


 673 0004 03EB4303 		add	r3, r3, r3, lsl #1
 674 0008 9A00     		lsls	r2, r3, #2
 675 000a 034B     		ldr	r3, .L86+4
 676 000c 1344     		add	r3, r3, r2
 677 000e 9868     		ldr	r0, [r3, #8]
 678 0010 7047     		bx	lr
 679              	.L87:
 680 0012 00BF     		.align	2
 681              	.L86:
 682 0014 00000000 		.word	ActiveLayer
 683 0018 00000000 		.word	DrawProp
 685              		.section	.text.BSP_LCD_ReadPixel,"ax",%progbits
 686              		.align	1
 687              		.global	BSP_LCD_ReadPixel
 688              		.syntax unified
 689              		.thumb
 690              		.thumb_func
 692              	BSP_LCD_ReadPixel:
 693              		@ args = 0, pretend = 0, frame = 0
 694              		@ frame_needed = 0, uses_anonymous_args = 0
 695 0000 70B5     		push	{r4, r5, r6, lr}
 696 0002 0446     		mov	r4, r0
 697 0004 0D46     		mov	r5, r1
 698 0006 214B     		ldr	r3, .L96
 699 0008 1A68     		ldr	r2, [r3]
 700 000a 214B     		ldr	r3, .L96+4
 701 000c 3421     		movs	r1, #52
 702 000e 01FB0233 		mla	r3, r1, r2, r3
 703 0012 9B6C     		ldr	r3, [r3, #72]
 704 0014 072B     		cmp	r3, #7
 705 0016 2CD8     		bhi	.L89
 706 0018 DFE803F0 		tbb	[pc, r3]
 707              	.L91:
 708 001c 04       		.byte	(.L93-.L91)/2
 709 001d 10       		.byte	(.L92-.L91)/2
 710 001e 1E       		.byte	(.L90-.L91)/2
 711 001f 2B       		.byte	(.L89-.L91)/2
 712 0020 1E       		.byte	(.L90-.L91)/2
 713 0021 2B       		.byte	(.L89-.L91)/2
 714 0022 2B       		.byte	(.L89-.L91)/2
 715 0023 1E       		.byte	(.L90-.L91)/2
 716              		.p2align 1
 717              	.L93:
 718 0024 1A4B     		ldr	r3, .L96+4
 719 0026 3421     		movs	r1, #52
 720 0028 01FB0233 		mla	r3, r1, r2, r3
 721 002c DE6D     		ldr	r6, [r3, #92]
 722 002e FFF7FEFF 		bl	BSP_LCD_GetXSize
 723 0032 00FB0540 		mla	r0, r0, r5, r4
 724 0036 56F82000 		ldr	r0, [r6, r0, lsl #2]
 725 003a 19E0     		b	.L88
 726              	.L92:
 727 003c 144B     		ldr	r3, .L96+4
 728 003e 3421     		movs	r1, #52
 729 0040 01FB0233 		mla	r3, r1, r2, r3
 730 0044 DE6D     		ldr	r6, [r3, #92]
 731 0046 FFF7FEFF 		bl	BSP_LCD_GetXSize
ARM GAS  /var/folders/0f/x4_g94q9649fs6s33cksjfb00000gn/T//ccfL3aoH.s 			page 13


 732 004a 00FB0540 		mla	r0, r0, r5, r4
 733 004e 56F82000 		ldr	r0, [r6, r0, lsl #2]
 734 0052 20F07F40 		bic	r0, r0, #-16777216
 735 0056 0BE0     		b	.L88
 736              	.L90:
 737 0058 0D4B     		ldr	r3, .L96+4
 738 005a 3421     		movs	r1, #52
 739 005c 01FB0233 		mla	r3, r1, r2, r3
 740 0060 DE6D     		ldr	r6, [r3, #92]
 741 0062 FFF7FEFF 		bl	BSP_LCD_GetXSize
 742 0066 00FB0540 		mla	r0, r0, r5, r4
 743 006a 36F81000 		ldrh	r0, [r6, r0, lsl #1]
 744 006e 80B2     		uxth	r0, r0
 745              	.L88:
 746 0070 70BD     		pop	{r4, r5, r6, pc}
 747              	.L89:
 748 0072 074B     		ldr	r3, .L96+4
 749 0074 3421     		movs	r1, #52
 750 0076 01FB0233 		mla	r3, r1, r2, r3
 751 007a DE6D     		ldr	r6, [r3, #92]
 752 007c FFF7FEFF 		bl	BSP_LCD_GetXSize
 753 0080 00FB0544 		mla	r4, r0, r5, r4
 754 0084 16F81400 		ldrb	r0, [r6, r4, lsl #1]	@ zero_extendqisi2
 755 0088 C0B2     		uxtb	r0, r0
 756 008a F1E7     		b	.L88
 757              	.L97:
 758              		.align	2
 759              	.L96:
 760 008c 00000000 		.word	ActiveLayer
 761 0090 00000000 		.word	hltdc_discovery
 763              		.section	.text.BSP_LCD_Clear,"ax",%progbits
 764              		.align	1
 765              		.global	BSP_LCD_Clear
 766              		.syntax unified
 767              		.thumb
 768              		.thumb_func
 770              	BSP_LCD_Clear:
 771              		@ args = 0, pretend = 0, frame = 0
 772              		@ frame_needed = 0, uses_anonymous_args = 0
 773 0000 F0B5     		push	{r4, r5, r6, r7, lr}
 774 0002 83B0     		sub	sp, sp, #12
 775 0004 0546     		mov	r5, r0
 776 0006 0B4B     		ldr	r3, .L100
 777 0008 1E68     		ldr	r6, [r3]
 778 000a 0B4B     		ldr	r3, .L100+4
 779 000c 3422     		movs	r2, #52
 780 000e 02FB0633 		mla	r3, r2, r6, r3
 781 0012 DF6D     		ldr	r7, [r3, #92]
 782 0014 FFF7FEFF 		bl	BSP_LCD_GetXSize
 783 0018 0446     		mov	r4, r0
 784 001a FFF7FEFF 		bl	BSP_LCD_GetYSize
 785 001e 0346     		mov	r3, r0
 786 0020 0195     		str	r5, [sp, #4]
 787 0022 0022     		movs	r2, #0
 788 0024 0092     		str	r2, [sp]
 789 0026 2246     		mov	r2, r4
 790 0028 3946     		mov	r1, r7
ARM GAS  /var/folders/0f/x4_g94q9649fs6s33cksjfb00000gn/T//ccfL3aoH.s 			page 14


 791 002a 3046     		mov	r0, r6
 792 002c FFF7FEFF 		bl	LL_FillBuffer
 793 0030 03B0     		add	sp, sp, #12
 794              		@ sp needed
 795 0032 F0BD     		pop	{r4, r5, r6, r7, pc}
 796              	.L101:
 797              		.align	2
 798              	.L100:
 799 0034 00000000 		.word	ActiveLayer
 800 0038 00000000 		.word	hltdc_discovery
 802              		.section	.text.BSP_LCD_DrawHLine,"ax",%progbits
 803              		.align	1
 804              		.global	BSP_LCD_DrawHLine
 805              		.syntax unified
 806              		.thumb
 807              		.thumb_func
 809              	BSP_LCD_DrawHLine:
 810              		@ args = 0, pretend = 0, frame = 0
 811              		@ frame_needed = 0, uses_anonymous_args = 0
 812 0000 2DE9F041 		push	{r4, r5, r6, r7, r8, lr}
 813 0004 82B0     		sub	sp, sp, #8
 814 0006 0446     		mov	r4, r0
 815 0008 0F46     		mov	r7, r1
 816 000a 1646     		mov	r6, r2
 817 000c 0E4B     		ldr	r3, .L104
 818 000e 1D68     		ldr	r5, [r3]
 819 0010 0E4B     		ldr	r3, .L104+4
 820 0012 3422     		movs	r2, #52
 821 0014 02FB0533 		mla	r3, r2, r5, r3
 822 0018 D3F85C80 		ldr	r8, [r3, #92]
 823 001c FFF7FEFF 		bl	BSP_LCD_GetXSize
 824 0020 00FB0741 		mla	r1, r0, r7, r4
 825 0024 05EB4502 		add	r2, r5, r5, lsl #1
 826 0028 094B     		ldr	r3, .L104+8
 827 002a 53F82230 		ldr	r3, [r3, r2, lsl #2]
 828 002e 0193     		str	r3, [sp, #4]
 829 0030 0023     		movs	r3, #0
 830 0032 0093     		str	r3, [sp]
 831 0034 0123     		movs	r3, #1
 832 0036 3246     		mov	r2, r6
 833 0038 08EB8101 		add	r1, r8, r1, lsl #2
 834 003c 2846     		mov	r0, r5
 835 003e FFF7FEFF 		bl	LL_FillBuffer
 836 0042 02B0     		add	sp, sp, #8
 837              		@ sp needed
 838 0044 BDE8F081 		pop	{r4, r5, r6, r7, r8, pc}
 839              	.L105:
 840              		.align	2
 841              	.L104:
 842 0048 00000000 		.word	ActiveLayer
 843 004c 00000000 		.word	hltdc_discovery
 844 0050 00000000 		.word	DrawProp
 846              		.section	.text.BSP_LCD_DrawVLine,"ax",%progbits
 847              		.align	1
 848              		.global	BSP_LCD_DrawVLine
 849              		.syntax unified
 850              		.thumb
ARM GAS  /var/folders/0f/x4_g94q9649fs6s33cksjfb00000gn/T//ccfL3aoH.s 			page 15


 851              		.thumb_func
 853              	BSP_LCD_DrawVLine:
 854              		@ args = 0, pretend = 0, frame = 0
 855              		@ frame_needed = 0, uses_anonymous_args = 0
 856 0000 2DE9F041 		push	{r4, r5, r6, r7, r8, lr}
 857 0004 82B0     		sub	sp, sp, #8
 858 0006 0446     		mov	r4, r0
 859 0008 8846     		mov	r8, r1
 860 000a 1646     		mov	r6, r2
 861 000c 0E4B     		ldr	r3, .L108
 862 000e 1D68     		ldr	r5, [r3]
 863 0010 0E4B     		ldr	r3, .L108+4
 864 0012 3422     		movs	r2, #52
 865 0014 02FB0533 		mla	r3, r2, r5, r3
 866 0018 DF6D     		ldr	r7, [r3, #92]
 867 001a FFF7FEFF 		bl	BSP_LCD_GetXSize
 868 001e 00FB0841 		mla	r1, r0, r8, r4
 869 0022 05EB4502 		add	r2, r5, r5, lsl #1
 870 0026 0A4B     		ldr	r3, .L108+8
 871 0028 53F82230 		ldr	r3, [r3, r2, lsl #2]
 872 002c 0193     		str	r3, [sp, #4]
 873 002e 0138     		subs	r0, r0, #1
 874 0030 0090     		str	r0, [sp]
 875 0032 3346     		mov	r3, r6
 876 0034 0122     		movs	r2, #1
 877 0036 07EB8101 		add	r1, r7, r1, lsl #2
 878 003a 2846     		mov	r0, r5
 879 003c FFF7FEFF 		bl	LL_FillBuffer
 880 0040 02B0     		add	sp, sp, #8
 881              		@ sp needed
 882 0042 BDE8F081 		pop	{r4, r5, r6, r7, r8, pc}
 883              	.L109:
 884 0046 00BF     		.align	2
 885              	.L108:
 886 0048 00000000 		.word	ActiveLayer
 887 004c 00000000 		.word	hltdc_discovery
 888 0050 00000000 		.word	DrawProp
 890              		.section	.text.BSP_LCD_DrawRect,"ax",%progbits
 891              		.align	1
 892              		.global	BSP_LCD_DrawRect
 893              		.syntax unified
 894              		.thumb
 895              		.thumb_func
 897              	BSP_LCD_DrawRect:
 898              		@ args = 0, pretend = 0, frame = 0
 899              		@ frame_needed = 0, uses_anonymous_args = 0
 900 0000 F8B5     		push	{r3, r4, r5, r6, r7, lr}
 901 0002 0446     		mov	r4, r0
 902 0004 0D46     		mov	r5, r1
 903 0006 1746     		mov	r7, r2
 904 0008 1E46     		mov	r6, r3
 905 000a FFF7FEFF 		bl	BSP_LCD_DrawHLine
 906 000e A919     		adds	r1, r5, r6
 907 0010 3A46     		mov	r2, r7
 908 0012 89B2     		uxth	r1, r1
 909 0014 2046     		mov	r0, r4
 910 0016 FFF7FEFF 		bl	BSP_LCD_DrawHLine
ARM GAS  /var/folders/0f/x4_g94q9649fs6s33cksjfb00000gn/T//ccfL3aoH.s 			page 16


 911 001a 3246     		mov	r2, r6
 912 001c 2946     		mov	r1, r5
 913 001e 2046     		mov	r0, r4
 914 0020 FFF7FEFF 		bl	BSP_LCD_DrawVLine
 915 0024 E019     		adds	r0, r4, r7
 916 0026 3246     		mov	r2, r6
 917 0028 2946     		mov	r1, r5
 918 002a 80B2     		uxth	r0, r0
 919 002c FFF7FEFF 		bl	BSP_LCD_DrawVLine
 920 0030 F8BD     		pop	{r3, r4, r5, r6, r7, pc}
 922              		.section	.text.BSP_LCD_DrawBitmap,"ax",%progbits
 923              		.align	1
 924              		.global	BSP_LCD_DrawBitmap
 925              		.syntax unified
 926              		.thumb
 927              		.thumb_func
 929              	BSP_LCD_DrawBitmap:
 930              		@ args = 0, pretend = 0, frame = 0
 931              		@ frame_needed = 0, uses_anonymous_args = 0
 932 0000 2DE9F84F 		push	{r3, r4, r5, r6, r7, r8, r9, r10, fp, lr}
 933 0004 8246     		mov	r10, r0
 934 0006 8B46     		mov	fp, r1
 935 0008 1446     		mov	r4, r2
 936 000a 967A     		ldrb	r6, [r2, #10]	@ zero_extendqisi2
 937 000c D37A     		ldrb	r3, [r2, #11]	@ zero_extendqisi2
 938 000e 06EB0326 		add	r6, r6, r3, lsl #8
 939 0012 137B     		ldrb	r3, [r2, #12]	@ zero_extendqisi2
 940 0014 06EB0346 		add	r6, r6, r3, lsl #16
 941 0018 537B     		ldrb	r3, [r2, #13]	@ zero_extendqisi2
 942 001a 06EB0366 		add	r6, r6, r3, lsl #24
 943 001e 977C     		ldrb	r7, [r2, #18]	@ zero_extendqisi2
 944 0020 D37C     		ldrb	r3, [r2, #19]	@ zero_extendqisi2
 945 0022 07EB0327 		add	r7, r7, r3, lsl #8
 946 0026 137D     		ldrb	r3, [r2, #20]	@ zero_extendqisi2
 947 0028 07EB0347 		add	r7, r7, r3, lsl #16
 948 002c 537D     		ldrb	r3, [r2, #21]	@ zero_extendqisi2
 949 002e 07EB0367 		add	r7, r7, r3, lsl #24
 950 0032 92F81680 		ldrb	r8, [r2, #22]	@ zero_extendqisi2
 951 0036 D37D     		ldrb	r3, [r2, #23]	@ zero_extendqisi2
 952 0038 08EB0328 		add	r8, r8, r3, lsl #8
 953 003c 137E     		ldrb	r3, [r2, #24]	@ zero_extendqisi2
 954 003e 08EB0348 		add	r8, r8, r3, lsl #16
 955 0042 537E     		ldrb	r3, [r2, #25]	@ zero_extendqisi2
 956 0044 08EB0368 		add	r8, r8, r3, lsl #24
 957 0048 92F81C90 		ldrb	r9, [r2, #28]	@ zero_extendqisi2
 958 004c 537F     		ldrb	r3, [r2, #29]	@ zero_extendqisi2
 959 004e 09EB0329 		add	r9, r9, r3, lsl #8
 960 0052 1C4B     		ldr	r3, .L119
 961 0054 1A68     		ldr	r2, [r3]
 962 0056 1C4B     		ldr	r3, .L119+4
 963 0058 3421     		movs	r1, #52
 964 005a 01FB0233 		mla	r3, r1, r2, r3
 965 005e DD6D     		ldr	r5, [r3, #92]
 966 0060 FFF7FEFF 		bl	BSP_LCD_GetXSize
 967 0064 0BFB00AA 		mla	r10, fp, r0, r10
 968 0068 05EB8A05 		add	r5, r5, r10, lsl #2
 969 006c A9F12003 		sub	r3, r9, #32
ARM GAS  /var/folders/0f/x4_g94q9649fs6s33cksjfb00000gn/T//ccfL3aoH.s 			page 17


 970 0070 072B     		cmp	r3, #7
 971 0072 06D9     		bls	.L116
 972 0074 A9F11003 		sub	r3, r9, #16
 973 0078 072B     		cmp	r3, #7
 974 007a 0FD8     		bhi	.L117
 975 007c 4FF0020A 		mov	r10, #2
 976 0080 01E0     		b	.L113
 977              	.L116:
 978 0082 4FF0000A 		mov	r10, #0
 979              	.L113:
 980 0086 08F1FF33 		add	r3, r8, #-1
 981 008a 07FB03F3 		mul	r3, r7, r3
 982 008e 4FEAD909 		lsr	r9, r9, #3
 983 0092 09FB0366 		mla	r6, r9, r3, r6
 984 0096 3444     		add	r4, r4, r6
 985 0098 0026     		movs	r6, #0
 986 009a 0FE0     		b	.L114
 987              	.L117:
 988 009c 4FF0010A 		mov	r10, #1
 989 00a0 F1E7     		b	.L113
 990              	.L115:
 991 00a2 5346     		mov	r3, r10
 992 00a4 3A46     		mov	r2, r7
 993 00a6 2946     		mov	r1, r5
 994 00a8 2046     		mov	r0, r4
 995 00aa FFF7FEFF 		bl	LL_ConvertLineToARGB8888
 996 00ae FFF7FEFF 		bl	BSP_LCD_GetXSize
 997 00b2 05EB8005 		add	r5, r5, r0, lsl #2
 998 00b6 07FB1944 		mls	r4, r7, r9, r4
 999 00ba 0136     		adds	r6, r6, #1
 1000              	.L114:
 1001 00bc 4645     		cmp	r6, r8
 1002 00be F0D3     		bcc	.L115
 1003 00c0 BDE8F88F 		pop	{r3, r4, r5, r6, r7, r8, r9, r10, fp, pc}
 1004              	.L120:
 1005              		.align	2
 1006              	.L119:
 1007 00c4 00000000 		.word	ActiveLayer
 1008 00c8 00000000 		.word	hltdc_discovery
 1010              		.section	.text.BSP_LCD_FillRect,"ax",%progbits
 1011              		.align	1
 1012              		.global	BSP_LCD_FillRect
 1013              		.syntax unified
 1014              		.thumb
 1015              		.thumb_func
 1017              	BSP_LCD_FillRect:
 1018              		@ args = 0, pretend = 0, frame = 0
 1019              		@ frame_needed = 0, uses_anonymous_args = 0
 1020 0000 2DE9F047 		push	{r4, r5, r6, r7, r8, r9, r10, lr}
 1021 0004 82B0     		sub	sp, sp, #8
 1022 0006 0446     		mov	r4, r0
 1023 0008 8846     		mov	r8, r1
 1024 000a 1646     		mov	r6, r2
 1025 000c 1F46     		mov	r7, r3
 1026 000e DFF854A0 		ldr	r10, .L123+8
 1027 0012 124D     		ldr	r5, .L123
 1028 0014 2B68     		ldr	r3, [r5]
ARM GAS  /var/folders/0f/x4_g94q9649fs6s33cksjfb00000gn/T//ccfL3aoH.s 			page 18


 1029 0016 03EB4303 		add	r3, r3, r3, lsl #1
 1030 001a 5AF82300 		ldr	r0, [r10, r3, lsl #2]
 1031 001e FFF7FEFF 		bl	BSP_LCD_SetTextColor
 1032 0022 2D68     		ldr	r5, [r5]
 1033 0024 0E4B     		ldr	r3, .L123+4
 1034 0026 3422     		movs	r2, #52
 1035 0028 02FB0533 		mla	r3, r2, r5, r3
 1036 002c D3F85C90 		ldr	r9, [r3, #92]
 1037 0030 FFF7FEFF 		bl	BSP_LCD_GetXSize
 1038 0034 00FB0841 		mla	r1, r0, r8, r4
 1039 0038 05EB4503 		add	r3, r5, r5, lsl #1
 1040 003c 5AF82330 		ldr	r3, [r10, r3, lsl #2]
 1041 0040 0193     		str	r3, [sp, #4]
 1042 0042 801B     		subs	r0, r0, r6
 1043 0044 0090     		str	r0, [sp]
 1044 0046 3B46     		mov	r3, r7
 1045 0048 3246     		mov	r2, r6
 1046 004a 09EB8101 		add	r1, r9, r1, lsl #2
 1047 004e 2846     		mov	r0, r5
 1048 0050 FFF7FEFF 		bl	LL_FillBuffer
 1049 0054 02B0     		add	sp, sp, #8
 1050              		@ sp needed
 1051 0056 BDE8F087 		pop	{r4, r5, r6, r7, r8, r9, r10, pc}
 1052              	.L124:
 1053 005a 00BF     		.align	2
 1054              	.L123:
 1055 005c 00000000 		.word	ActiveLayer
 1056 0060 00000000 		.word	hltdc_discovery
 1057 0064 00000000 		.word	DrawProp
 1059              		.section	.text.BSP_LCD_ClearStringLine,"ax",%progbits
 1060              		.align	1
 1061              		.global	BSP_LCD_ClearStringLine
 1062              		.syntax unified
 1063              		.thumb
 1064              		.thumb_func
 1066              	BSP_LCD_ClearStringLine:
 1067              		@ args = 0, pretend = 0, frame = 0
 1068              		@ frame_needed = 0, uses_anonymous_args = 0
 1069 0000 2DE9F041 		push	{r4, r5, r6, r7, r8, lr}
 1070 0004 134F     		ldr	r7, .L127
 1071 0006 3B68     		ldr	r3, [r7]
 1072 0008 134C     		ldr	r4, .L127+4
 1073 000a 03EB4302 		add	r2, r3, r3, lsl #1
 1074 000e 9100     		lsls	r1, r2, #2
 1075 0010 04EB8202 		add	r2, r4, r2, lsl #2
 1076 0014 6658     		ldr	r6, [r4, r1]
 1077 0016 5268     		ldr	r2, [r2, #4]
 1078 0018 6250     		str	r2, [r4, r1]
 1079 001a 03EB4303 		add	r3, r3, r3, lsl #1
 1080 001e 04EB8303 		add	r3, r4, r3, lsl #2
 1081 0022 9B68     		ldr	r3, [r3, #8]
 1082 0024 B3F80680 		ldrh	r8, [r3, #6]
 1083 0028 10FB08F5 		smulbb	r5, r0, r8
 1084 002c ADB2     		uxth	r5, r5
 1085 002e FFF7FEFF 		bl	BSP_LCD_GetXSize
 1086 0032 4346     		mov	r3, r8
 1087 0034 82B2     		uxth	r2, r0
ARM GAS  /var/folders/0f/x4_g94q9649fs6s33cksjfb00000gn/T//ccfL3aoH.s 			page 19


 1088 0036 2946     		mov	r1, r5
 1089 0038 0020     		movs	r0, #0
 1090 003a FFF7FEFF 		bl	BSP_LCD_FillRect
 1091 003e 3B68     		ldr	r3, [r7]
 1092 0040 03EB4303 		add	r3, r3, r3, lsl #1
 1093 0044 44F82360 		str	r6, [r4, r3, lsl #2]
 1094 0048 3046     		mov	r0, r6
 1095 004a FFF7FEFF 		bl	BSP_LCD_SetTextColor
 1096 004e BDE8F081 		pop	{r4, r5, r6, r7, r8, pc}
 1097              	.L128:
 1098 0052 00BF     		.align	2
 1099              	.L127:
 1100 0054 00000000 		.word	ActiveLayer
 1101 0058 00000000 		.word	DrawProp
 1103              		.section	.text.BSP_LCD_FillEllipse,"ax",%progbits
 1104              		.align	1
 1105              		.global	BSP_LCD_FillEllipse
 1106              		.syntax unified
 1107              		.thumb
 1108              		.thumb_func
 1110              	BSP_LCD_FillEllipse:
 1111              		@ args = 0, pretend = 0, frame = 8
 1112              		@ frame_needed = 0, uses_anonymous_args = 0
 1113 0000 2DE9F04F 		push	{r4, r5, r6, r7, r8, r9, r10, fp, lr}
 1114 0004 2DED028B 		vpush.64	{d8}
 1115 0008 83B0     		sub	sp, sp, #12
 1116 000a 8346     		mov	fp, r0
 1117 000c 0191     		str	r1, [sp, #4]
 1118 000e 5F42     		rsbs	r7, r3, #0
 1119 0010 C2F10106 		rsb	r6, r2, #1
 1120 0014 7600     		lsls	r6, r6, #1
 1121 0016 07EE902A 		vmov	s15, r2	@ int
 1122 001a F8EEE77A 		vcvt.f32.s32	s15, s15
 1123 001e 07EE103A 		vmov	s14, r3	@ int
 1124 0022 B8EEC77A 		vcvt.f32.s32	s14, s14
 1125 0026 87EE278A 		vdiv.f32	s16, s14, s15
 1126 002a 4FF0000A 		mov	r10, #0
 1127 002e 08E0     		b	.L132
 1128              	.L133:
 1129 0030 3346     		mov	r3, r6
 1130              	.L130:
 1131 0032 B742     		cmp	r7, r6
 1132 0034 38DA     		bge	.L135
 1133 0036 0137     		adds	r7, r7, #1
 1134 0038 7E00     		lsls	r6, r7, #1
 1135 003a 0136     		adds	r6, r6, #1
 1136 003c 1E44     		add	r6, r6, r3
 1137              	.L131:
 1138 003e 002F     		cmp	r7, #0
 1139 0040 34DC     		bgt	.L137
 1140              	.L132:
 1141 0042 07EE90AA 		vmov	s15, r10	@ int
 1142 0046 B8EEE77A 		vcvt.f32.s32	s14, s15
 1143 004a C7EE087A 		vdiv.f32	s15, s14, s16
 1144 004e FCEEE77A 		vcvt.u32.f32	s15, s15
 1145 0052 17EE903A 		vmov	r3, s15	@ int
 1146 0056 9CB2     		uxth	r4, r3
ARM GAS  /var/folders/0f/x4_g94q9649fs6s33cksjfb00000gn/T//ccfL3aoH.s 			page 20


 1147 0058 ABEB0408 		sub	r8, fp, r4
 1148 005c 1FFA88F8 		uxth	r8, r8
 1149 0060 BDF80450 		ldrh	r5, [sp, #4]
 1150 0064 1FFA87F9 		uxth	r9, r7
 1151 0068 6400     		lsls	r4, r4, #1
 1152 006a 0134     		adds	r4, r4, #1
 1153 006c A4B2     		uxth	r4, r4
 1154 006e 05EB0901 		add	r1, r5, r9
 1155 0072 2246     		mov	r2, r4
 1156 0074 89B2     		uxth	r1, r1
 1157 0076 4046     		mov	r0, r8
 1158 0078 FFF7FEFF 		bl	BSP_LCD_DrawHLine
 1159 007c A5EB0901 		sub	r1, r5, r9
 1160 0080 2246     		mov	r2, r4
 1161 0082 89B2     		uxth	r1, r1
 1162 0084 4046     		mov	r0, r8
 1163 0086 FFF7FEFF 		bl	BSP_LCD_DrawHLine
 1164 008a B245     		cmp	r10, r6
 1165 008c D0DB     		blt	.L133
 1166 008e 0AF1010A 		add	r10, r10, #1
 1167 0092 4FEA4A03 		lsl	r3, r10, #1
 1168 0096 0133     		adds	r3, r3, #1
 1169 0098 3344     		add	r3, r3, r6
 1170 009a 1AEB070F 		cmn	r10, r7
 1171 009e C8D1     		bne	.L130
 1172 00a0 B742     		cmp	r7, r6
 1173 00a2 C6DB     		blt	.L130
 1174 00a4 0026     		movs	r6, #0
 1175 00a6 C4E7     		b	.L130
 1176              	.L135:
 1177 00a8 1E46     		mov	r6, r3
 1178 00aa C8E7     		b	.L131
 1179              	.L137:
 1180 00ac 03B0     		add	sp, sp, #12
 1181              		@ sp needed
 1182 00ae BDEC028B 		vldm	sp!, {d8}
 1183 00b2 BDE8F08F 		pop	{r4, r5, r6, r7, r8, r9, r10, fp, pc}
 1185              		.section	.text.BSP_LCD_DisplayOn,"ax",%progbits
 1186              		.align	1
 1187              		.global	BSP_LCD_DisplayOn
 1188              		.syntax unified
 1189              		.thumb
 1190              		.thumb_func
 1192              	BSP_LCD_DisplayOn:
 1193              		@ args = 0, pretend = 0, frame = 0
 1194              		@ frame_needed = 0, uses_anonymous_args = 0
 1195 0000 00B5     		push	{lr}
 1196 0002 83B0     		sub	sp, sp, #12
 1197 0004 0023     		movs	r3, #0
 1198 0006 0093     		str	r3, [sp]
 1199 0008 2923     		movs	r3, #41
 1200 000a 1522     		movs	r2, #21
 1201 000c 0349     		ldr	r1, .L140
 1202 000e 0968     		ldr	r1, [r1]
 1203 0010 0348     		ldr	r0, .L140+4
 1204 0012 FFF7FEFF 		bl	HAL_DSI_ShortWrite
 1205 0016 03B0     		add	sp, sp, #12
ARM GAS  /var/folders/0f/x4_g94q9649fs6s33cksjfb00000gn/T//ccfL3aoH.s 			page 21


 1206              		@ sp needed
 1207 0018 5DF804FB 		ldr	pc, [sp], #4
 1208              	.L141:
 1209              		.align	2
 1210              	.L140:
 1211 001c 00000000 		.word	hdsivideo_handle
 1212 0020 00000000 		.word	hdsi_discovery
 1214              		.section	.text.BSP_LCD_DisplayOff,"ax",%progbits
 1215              		.align	1
 1216              		.global	BSP_LCD_DisplayOff
 1217              		.syntax unified
 1218              		.thumb
 1219              		.thumb_func
 1221              	BSP_LCD_DisplayOff:
 1222              		@ args = 0, pretend = 0, frame = 0
 1223              		@ frame_needed = 0, uses_anonymous_args = 0
 1224 0000 00B5     		push	{lr}
 1225 0002 83B0     		sub	sp, sp, #12
 1226 0004 0023     		movs	r3, #0
 1227 0006 0093     		str	r3, [sp]
 1228 0008 2823     		movs	r3, #40
 1229 000a 1522     		movs	r2, #21
 1230 000c 0349     		ldr	r1, .L144
 1231 000e 0968     		ldr	r1, [r1]
 1232 0010 0348     		ldr	r0, .L144+4
 1233 0012 FFF7FEFF 		bl	HAL_DSI_ShortWrite
 1234 0016 03B0     		add	sp, sp, #12
 1235              		@ sp needed
 1236 0018 5DF804FB 		ldr	pc, [sp], #4
 1237              	.L145:
 1238              		.align	2
 1239              	.L144:
 1240 001c 00000000 		.word	hdsivideo_handle
 1241 0020 00000000 		.word	hdsi_discovery
 1243              		.section	.text.BSP_LCD_SetBrightness,"ax",%progbits
 1244              		.align	1
 1245              		.global	BSP_LCD_SetBrightness
 1246              		.syntax unified
 1247              		.thumb
 1248              		.thumb_func
 1250              	BSP_LCD_SetBrightness:
 1251              		@ args = 0, pretend = 0, frame = 0
 1252              		@ frame_needed = 0, uses_anonymous_args = 0
 1253 0000 00B5     		push	{lr}
 1254 0002 83B0     		sub	sp, sp, #12
 1255 0004 C0EB0020 		rsb	r0, r0, r0, lsl #8
 1256 0008 80B2     		uxth	r0, r0
 1257 000a 074B     		ldr	r3, .L148
 1258 000c A3FB0030 		umull	r3, r0, r3, r0
 1259 0010 4009     		lsrs	r0, r0, #5
 1260 0012 0090     		str	r0, [sp]
 1261 0014 5123     		movs	r3, #81
 1262 0016 1522     		movs	r2, #21
 1263 0018 0021     		movs	r1, #0
 1264 001a 0448     		ldr	r0, .L148+4
 1265 001c FFF7FEFF 		bl	HAL_DSI_ShortWrite
 1266 0020 03B0     		add	sp, sp, #12
ARM GAS  /var/folders/0f/x4_g94q9649fs6s33cksjfb00000gn/T//ccfL3aoH.s 			page 22


 1267              		@ sp needed
 1268 0022 5DF804FB 		ldr	pc, [sp], #4
 1269              	.L149:
 1270 0026 00BF     		.align	2
 1271              	.L148:
 1272 0028 1F85EB51 		.word	1374389535
 1273 002c 00000000 		.word	hdsi_discovery
 1275              		.section	.text.DSI_IO_WriteCmd,"ax",%progbits
 1276              		.align	1
 1277              		.global	DSI_IO_WriteCmd
 1278              		.syntax unified
 1279              		.thumb
 1280              		.thumb_func
 1282              	DSI_IO_WriteCmd:
 1283              		@ args = 0, pretend = 0, frame = 0
 1284              		@ frame_needed = 0, uses_anonymous_args = 0
 1285 0000 00B5     		push	{lr}
 1286 0002 83B0     		sub	sp, sp, #12
 1287 0004 0128     		cmp	r0, #1
 1288 0006 0BD9     		bls	.L154
 1289 0008 0346     		mov	r3, r0
 1290 000a 0A5C     		ldrb	r2, [r1, r0]	@ zero_extendqisi2
 1291 000c 0191     		str	r1, [sp, #4]
 1292 000e 0092     		str	r2, [sp]
 1293 0010 3922     		movs	r2, #57
 1294 0012 0021     		movs	r1, #0
 1295 0014 0748     		ldr	r0, .L155
 1296 0016 FFF7FEFF 		bl	HAL_DSI_LongWrite
 1297              	.L150:
 1298 001a 03B0     		add	sp, sp, #12
 1299              		@ sp needed
 1300 001c 5DF804FB 		ldr	pc, [sp], #4
 1301              	.L154:
 1302 0020 4B78     		ldrb	r3, [r1, #1]	@ zero_extendqisi2
 1303 0022 0093     		str	r3, [sp]
 1304 0024 0B78     		ldrb	r3, [r1]	@ zero_extendqisi2
 1305 0026 1522     		movs	r2, #21
 1306 0028 0021     		movs	r1, #0
 1307 002a 0248     		ldr	r0, .L155
 1308 002c FFF7FEFF 		bl	HAL_DSI_ShortWrite
 1309 0030 F3E7     		b	.L150
 1310              	.L156:
 1311 0032 00BF     		.align	2
 1312              	.L155:
 1313 0034 00000000 		.word	hdsi_discovery
 1315              		.section	.text.DSI_IO_ReadCmd,"ax",%progbits
 1316              		.align	1
 1317              		.global	DSI_IO_ReadCmd
 1318              		.syntax unified
 1319              		.thumb
 1320              		.thumb_func
 1322              	DSI_IO_ReadCmd:
 1323              		@ args = 0, pretend = 0, frame = 0
 1324              		@ frame_needed = 0, uses_anonymous_args = 0
 1325 0000 00B5     		push	{lr}
 1326 0002 85B0     		sub	sp, sp, #20
 1327 0004 1346     		mov	r3, r2
ARM GAS  /var/folders/0f/x4_g94q9649fs6s33cksjfb00000gn/T//ccfL3aoH.s 			page 23


 1328 0006 0291     		str	r1, [sp, #8]
 1329 0008 0190     		str	r0, [sp, #4]
 1330 000a 0622     		movs	r2, #6
 1331 000c 0092     		str	r2, [sp]
 1332 000e 0A46     		mov	r2, r1
 1333 0010 0021     		movs	r1, #0
 1334 0012 0548     		ldr	r0, .L161
 1335 0014 FFF7FEFF 		bl	HAL_DSI_Read
 1336 0018 18B1     		cbz	r0, .L159
 1337 001a 0120     		movs	r0, #1
 1338              	.L157:
 1339 001c 05B0     		add	sp, sp, #20
 1340              		@ sp needed
 1341 001e 5DF804FB 		ldr	pc, [sp], #4
 1342              	.L159:
 1343 0022 0020     		movs	r0, #0
 1344 0024 FAE7     		b	.L157
 1345              	.L162:
 1346 0026 00BF     		.align	2
 1347              	.L161:
 1348 0028 00000000 		.word	hdsi_discovery
 1350              		.section	.text.BSP_LCD_MspDeInit,"ax",%progbits
 1351              		.align	1
 1352              		.weak	BSP_LCD_MspDeInit
 1353              		.syntax unified
 1354              		.thumb
 1355              		.thumb_func
 1357              	BSP_LCD_MspDeInit:
 1358              		@ args = 0, pretend = 0, frame = 0
 1359              		@ frame_needed = 0, uses_anonymous_args = 0
 1360 0000 08B5     		push	{r3, lr}
 1361 0002 5820     		movs	r0, #88
 1362 0004 FFF7FEFF 		bl	HAL_NVIC_DisableIRQ
 1363 0008 5A20     		movs	r0, #90
 1364 000a FFF7FEFF 		bl	HAL_NVIC_DisableIRQ
 1365 000e 6220     		movs	r0, #98
 1366 0010 FFF7FEFF 		bl	HAL_NVIC_DisableIRQ
 1367 0014 0C4B     		ldr	r3, .L165
 1368 0016 5A6A     		ldr	r2, [r3, #36]
 1369 0018 42F08062 		orr	r2, r2, #67108864
 1370 001c 5A62     		str	r2, [r3, #36]
 1371 001e 1A69     		ldr	r2, [r3, #16]
 1372 0020 42F40002 		orr	r2, r2, #8388608
 1373 0024 1A61     		str	r2, [r3, #16]
 1374 0026 5A6A     		ldr	r2, [r3, #36]
 1375 0028 42F00062 		orr	r2, r2, #134217728
 1376 002c 5A62     		str	r2, [r3, #36]
 1377 002e 5A6C     		ldr	r2, [r3, #68]
 1378 0030 22F08062 		bic	r2, r2, #67108864
 1379 0034 5A64     		str	r2, [r3, #68]
 1380 0036 1A6B     		ldr	r2, [r3, #48]
 1381 0038 22F40002 		bic	r2, r2, #8388608
 1382 003c 1A63     		str	r2, [r3, #48]
 1383 003e 5A6C     		ldr	r2, [r3, #68]
 1384 0040 22F00062 		bic	r2, r2, #134217728
 1385 0044 5A64     		str	r2, [r3, #68]
 1386 0046 08BD     		pop	{r3, pc}
ARM GAS  /var/folders/0f/x4_g94q9649fs6s33cksjfb00000gn/T//ccfL3aoH.s 			page 24


 1387              	.L166:
 1388              		.align	2
 1389              	.L165:
 1390 0048 00380240 		.word	1073887232
 1392              		.section	.text.BSP_LCD_MspInit,"ax",%progbits
 1393              		.align	1
 1394              		.weak	BSP_LCD_MspInit
 1395              		.syntax unified
 1396              		.thumb
 1397              		.thumb_func
 1399              	BSP_LCD_MspInit:
 1400              		@ args = 0, pretend = 0, frame = 16
 1401              		@ frame_needed = 0, uses_anonymous_args = 0
 1402 0000 00B5     		push	{lr}
 1403 0002 85B0     		sub	sp, sp, #20
 1404 0004 274B     		ldr	r3, .L169
 1405 0006 5A6C     		ldr	r2, [r3, #68]
 1406 0008 42F08062 		orr	r2, r2, #67108864
 1407 000c 5A64     		str	r2, [r3, #68]
 1408 000e 5A6C     		ldr	r2, [r3, #68]
 1409 0010 02F08062 		and	r2, r2, #67108864
 1410 0014 0192     		str	r2, [sp, #4]
 1411 0016 019A     		ldr	r2, [sp, #4]
 1412 0018 5A6A     		ldr	r2, [r3, #36]
 1413 001a 42F08062 		orr	r2, r2, #67108864
 1414 001e 5A62     		str	r2, [r3, #36]
 1415 0020 5A6A     		ldr	r2, [r3, #36]
 1416 0022 22F08062 		bic	r2, r2, #67108864
 1417 0026 5A62     		str	r2, [r3, #36]
 1418 0028 1A6B     		ldr	r2, [r3, #48]
 1419 002a 42F40002 		orr	r2, r2, #8388608
 1420 002e 1A63     		str	r2, [r3, #48]
 1421 0030 1A6B     		ldr	r2, [r3, #48]
 1422 0032 02F40002 		and	r2, r2, #8388608
 1423 0036 0292     		str	r2, [sp, #8]
 1424 0038 029A     		ldr	r2, [sp, #8]
 1425 003a 1A69     		ldr	r2, [r3, #16]
 1426 003c 42F40002 		orr	r2, r2, #8388608
 1427 0040 1A61     		str	r2, [r3, #16]
 1428 0042 1A69     		ldr	r2, [r3, #16]
 1429 0044 22F40002 		bic	r2, r2, #8388608
 1430 0048 1A61     		str	r2, [r3, #16]
 1431 004a 5A6C     		ldr	r2, [r3, #68]
 1432 004c 42F00062 		orr	r2, r2, #134217728
 1433 0050 5A64     		str	r2, [r3, #68]
 1434 0052 5A6C     		ldr	r2, [r3, #68]
 1435 0054 02F00062 		and	r2, r2, #134217728
 1436 0058 0392     		str	r2, [sp, #12]
 1437 005a 039A     		ldr	r2, [sp, #12]
 1438 005c 5A6A     		ldr	r2, [r3, #36]
 1439 005e 42F00062 		orr	r2, r2, #134217728
 1440 0062 5A62     		str	r2, [r3, #36]
 1441 0064 5A6A     		ldr	r2, [r3, #36]
 1442 0066 22F00062 		bic	r2, r2, #134217728
 1443 006a 5A62     		str	r2, [r3, #36]
 1444 006c 0022     		movs	r2, #0
 1445 006e 0321     		movs	r1, #3
ARM GAS  /var/folders/0f/x4_g94q9649fs6s33cksjfb00000gn/T//ccfL3aoH.s 			page 25


 1446 0070 5820     		movs	r0, #88
 1447 0072 FFF7FEFF 		bl	HAL_NVIC_SetPriority
 1448 0076 5820     		movs	r0, #88
 1449 0078 FFF7FEFF 		bl	HAL_NVIC_EnableIRQ
 1450 007c 0022     		movs	r2, #0
 1451 007e 0321     		movs	r1, #3
 1452 0080 5A20     		movs	r0, #90
 1453 0082 FFF7FEFF 		bl	HAL_NVIC_SetPriority
 1454 0086 5A20     		movs	r0, #90
 1455 0088 FFF7FEFF 		bl	HAL_NVIC_EnableIRQ
 1456 008c 0022     		movs	r2, #0
 1457 008e 0321     		movs	r1, #3
 1458 0090 6220     		movs	r0, #98
 1459 0092 FFF7FEFF 		bl	HAL_NVIC_SetPriority
 1460 0096 6220     		movs	r0, #98
 1461 0098 FFF7FEFF 		bl	HAL_NVIC_EnableIRQ
 1462 009c 05B0     		add	sp, sp, #20
 1463              		@ sp needed
 1464 009e 5DF804FB 		ldr	pc, [sp], #4
 1465              	.L170:
 1466 00a2 00BF     		.align	2
 1467              	.L169:
 1468 00a4 00380240 		.word	1073887232
 1470              		.section	.text.BSP_LCD_InitEx,"ax",%progbits
 1471              		.align	1
 1472              		.global	BSP_LCD_InitEx
 1473              		.syntax unified
 1474              		.thumb
 1475              		.thumb_func
 1477              	BSP_LCD_InitEx:
 1478              		@ args = 0, pretend = 0, frame = 16
 1479              		@ frame_needed = 0, uses_anonymous_args = 0
 1480 0000 2DE9F041 		push	{r4, r5, r6, r7, r8, lr}
 1481 0004 84B0     		sub	sp, sp, #16
 1482 0006 0746     		mov	r7, r0
 1483 0008 FFF7FEFF 		bl	BSP_LCD_Reset
 1484 000c FFF7FEFF 		bl	LCD_IO_GetID
 1485 0010 1128     		cmp	r0, #17
 1486 0012 04D0     		beq	.L180
 1487 0014 0124     		movs	r4, #1
 1488              	.L172:
 1489 0016 2046     		mov	r0, r4
 1490 0018 04B0     		add	sp, sp, #16
 1491              		@ sp needed
 1492 001a BDE8F081 		pop	{r4, r5, r6, r7, r8, pc}
 1493              	.L180:
 1494 001e FFF7FEFF 		bl	BSP_LCD_MspInit
 1495 0022 674C     		ldr	r4, .L182
 1496 0024 674B     		ldr	r3, .L182+4
 1497 0026 2360     		str	r3, [r4]
 1498 0028 2046     		mov	r0, r4
 1499 002a FFF7FEFF 		bl	HAL_DSI_DeInit
 1500 002e 6423     		movs	r3, #100
 1501 0030 0193     		str	r3, [sp, #4]
 1502 0032 0523     		movs	r3, #5
 1503 0034 0293     		str	r3, [sp, #8]
 1504 0036 0023     		movs	r3, #0
ARM GAS  /var/folders/0f/x4_g94q9649fs6s33cksjfb00000gn/T//ccfL3aoH.s 			page 26


 1505 0038 0393     		str	r3, [sp, #12]
 1506 003a 0123     		movs	r3, #1
 1507 003c E360     		str	r3, [r4, #12]
 1508 003e 0425     		movs	r5, #4
 1509 0040 A560     		str	r5, [r4, #8]
 1510 0042 0DEB0501 		add	r1, sp, r5
 1511 0046 2046     		mov	r0, r4
 1512 0048 FFF7FEFF 		bl	HAL_DSI_Init
 1513 004c 2046     		mov	r0, r4
 1514 004e FFF7FEFF 		bl	HAL_DSI_Start
 1515 0052 2946     		mov	r1, r5
 1516 0054 2046     		mov	r0, r4
 1517 0056 FFF7FEFF 		bl	HAL_DSI_ConfigFlowControl
 1518 005a 5B48     		ldr	r0, .L182+8
 1519 005c FFF7FEFF 		bl	BSP_LCD_SetFont
 1520 0060 5A4D     		ldr	r5, .L182+12
 1521 0062 2878     		ldrb	r0, [r5]	@ zero_extendqisi2
 1522 0064 FFF7FEFF 		bl	Driver_Type
 1523 0068 2870     		strb	r0, [r5]
 1524 006a 2046     		mov	r0, r4
 1525 006c FFF7FEFF 		bl	HAL_DSI_Stop
 1526 0070 002F     		cmp	r7, #0
 1527 0072 40F09180 		bne	.L173
 1528 0076 564B     		ldr	r3, .L182+16
 1529 0078 4FF4F072 		mov	r2, #480
 1530 007c 1A60     		str	r2, [r3]
 1531 007e 554B     		ldr	r3, .L182+20
 1532 0080 4FF44872 		mov	r2, #800
 1533 0084 1A60     		str	r2, [r3]
 1534              	.L174:
 1535 0086 524B     		ldr	r3, .L182+16
 1536 0088 1B68     		ldr	r3, [r3]
 1537 008a 524A     		ldr	r2, .L182+20
 1538 008c 1068     		ldr	r0, [r2]
 1539 008e 4F4A     		ldr	r2, .L182+12
 1540 0090 1278     		ldrb	r2, [r2]	@ zero_extendqisi2
 1541 0092 012A     		cmp	r2, #1
 1542 0094 00F08980 		beq	.L181
 1543 0098 9621     		movs	r1, #150
 1544 009a 0D46     		mov	r5, r1
 1545 009c 4FF0780C 		mov	ip, #120
 1546              	.L175:
 1547 00a0 4D4C     		ldr	r4, .L182+24
 1548 00a2 0026     		movs	r6, #0
 1549 00a4 2660     		str	r6, [r4]
 1550 00a6 0522     		movs	r2, #5
 1551 00a8 6260     		str	r2, [r4, #4]
 1552 00aa 2662     		str	r6, [r4, #32]
 1553 00ac E661     		str	r6, [r4, #28]
 1554 00ae 6662     		str	r6, [r4, #36]
 1555 00b0 0222     		movs	r2, #2
 1556 00b2 E260     		str	r2, [r4, #12]
 1557 00b4 40F6FF72 		movw	r2, #4095
 1558 00b8 A261     		str	r2, [r4, #24]
 1559 00ba 6661     		str	r6, [r4, #20]
 1560 00bc 2361     		str	r3, [r4, #16]
 1561 00be 0422     		movs	r2, #4
ARM GAS  /var/folders/0f/x4_g94q9649fs6s33cksjfb00000gn/T//ccfL3aoH.s 			page 27


 1562 00c0 A262     		str	r2, [r4, #40]
 1563 00c2 4D22     		movs	r2, #77
 1564 00c4 E262     		str	r2, [r4, #44]
 1565 00c6 4633     		adds	r3, r3, #70
 1566 00c8 4FF22442 		movw	r2, #62500
 1567 00cc 02FB03F3 		mul	r3, r2, r3
 1568 00d0 424A     		ldr	r2, .L182+28
 1569 00d2 A2FB0323 		umull	r2, r3, r2, r3
 1570 00d6 5B0B     		lsrs	r3, r3, #13
 1571 00d8 2363     		str	r3, [r4, #48]
 1572 00da C4F834C0 		str	ip, [r4, #52]
 1573 00de A563     		str	r5, [r4, #56]
 1574 00e0 E163     		str	r1, [r4, #60]
 1575 00e2 2064     		str	r0, [r4, #64]
 1576 00e4 4FF40043 		mov	r3, #32768
 1577 00e8 6364     		str	r3, [r4, #68]
 1578 00ea 1023     		movs	r3, #16
 1579 00ec A364     		str	r3, [r4, #72]
 1580 00ee E664     		str	r6, [r4, #76]
 1581 00f0 4FF40053 		mov	r3, #8192
 1582 00f4 2365     		str	r3, [r4, #80]
 1583 00f6 4FF48053 		mov	r3, #4096
 1584 00fa 6365     		str	r3, [r4, #84]
 1585 00fc 4FF40063 		mov	r3, #2048
 1586 0100 A365     		str	r3, [r4, #88]
 1587 0102 4FF48063 		mov	r3, #1024
 1588 0106 E365     		str	r3, [r4, #92]
 1589 0108 4FF40073 		mov	r3, #512
 1590 010c 2366     		str	r3, [r4, #96]
 1591 010e 4FF48073 		mov	r3, #256
 1592 0112 6366     		str	r3, [r4, #100]
 1593 0114 DFF8A880 		ldr	r8, .L182
 1594 0118 2146     		mov	r1, r4
 1595 011a 4046     		mov	r0, r8
 1596 011c FFF7FEFF 		bl	HAL_DSI_ConfigVideoMode
 1597 0120 2F4D     		ldr	r5, .L182+32
 1598 0122 0123     		movs	r3, #1
 1599 0124 6B61     		str	r3, [r5, #20]
 1600 0126 2323     		movs	r3, #35
 1601 0128 EB61     		str	r3, [r5, #28]
 1602 012a 294B     		ldr	r3, .L182+16
 1603 012c 1B68     		ldr	r3, [r3]
 1604 012e 03F12302 		add	r2, r3, #35
 1605 0132 6A62     		str	r2, [r5, #36]
 1606 0134 03F14502 		add	r2, r3, #69
 1607 0138 EA62     		str	r2, [r5, #44]
 1608 013a 2B66     		str	r3, [r5, #96]
 1609 013c 254B     		ldr	r3, .L182+20
 1610 013e 1B68     		ldr	r3, [r3]
 1611 0140 6B66     		str	r3, [r5, #100]
 1612 0142 2848     		ldr	r0, .L182+36
 1613 0144 0823     		movs	r3, #8
 1614 0146 0360     		str	r3, [r0]
 1615 0148 4FF4C073 		mov	r3, #384
 1616 014c 4361     		str	r3, [r0, #20]
 1617 014e 0723     		movs	r3, #7
 1618 0150 C361     		str	r3, [r0, #28]
ARM GAS  /var/folders/0f/x4_g94q9649fs6s33cksjfb00000gn/T//ccfL3aoH.s 			page 28


 1619 0152 C662     		str	r6, [r0, #44]
 1620 0154 FFF7FEFF 		bl	HAL_RCCEx_PeriphCLKConfig
 1621 0158 85F83460 		strb	r6, [r5, #52]
 1622 015c 85F83560 		strb	r6, [r5, #53]
 1623 0160 85F83660 		strb	r6, [r5, #54]
 1624 0164 2E61     		str	r6, [r5, #16]
 1625 0166 204B     		ldr	r3, .L182+40
 1626 0168 2B60     		str	r3, [r5]
 1627 016a 2146     		mov	r1, r4
 1628 016c 2846     		mov	r0, r5
 1629 016e FFF7FEFF 		bl	HAL_LTDCEx_StructInitFromVideoConfig
 1630 0172 2846     		mov	r0, r5
 1631 0174 FFF7FEFF 		bl	HAL_LTDC_Init
 1632 0178 4046     		mov	r0, r8
 1633 017a FFF7FEFF 		bl	HAL_DSI_Start
 1634 017e FFF7FEFF 		bl	BSP_SDRAM_Init
 1635 0182 1148     		ldr	r0, .L182+8
 1636 0184 FFF7FEFF 		bl	BSP_LCD_SetFont
 1637 0188 104B     		ldr	r3, .L182+12
 1638 018a 1C78     		ldrb	r4, [r3]	@ zero_extendqisi2
 1639 018c 94B9     		cbnz	r4, .L176
 1640 018e 3946     		mov	r1, r7
 1641 0190 3046     		mov	r0, r6
 1642 0192 FFF7FEFF 		bl	NT35510_Init
 1643 0196 3EE7     		b	.L172
 1644              	.L173:
 1645 0198 0D4B     		ldr	r3, .L182+16
 1646 019a 4FF44872 		mov	r2, #800
 1647 019e 1A60     		str	r2, [r3]
 1648 01a0 0C4B     		ldr	r3, .L182+20
 1649 01a2 4FF4F072 		mov	r2, #480
 1650 01a6 1A60     		str	r2, [r3]
 1651 01a8 6DE7     		b	.L174
 1652              	.L181:
 1653 01aa 1021     		movs	r1, #16
 1654 01ac 0F25     		movs	r5, #15
 1655 01ae 4FF0010C 		mov	ip, #1
 1656 01b2 75E7     		b	.L175
 1657              	.L176:
 1658 01b4 3946     		mov	r1, r7
 1659 01b6 0020     		movs	r0, #0
 1660 01b8 FFF7FEFF 		bl	OTM8009A_Init
 1661 01bc 0024     		movs	r4, #0
 1662 01be 2AE7     		b	.L172
 1663              	.L183:
 1664              		.align	2
 1665              	.L182:
 1666 01c0 00000000 		.word	hdsi_discovery
 1667 01c4 006C0140 		.word	1073835008
 1668 01c8 00000000 		.word	Font24
 1669 01cc 00000000 		.word	Lcd_Driver_Type
 1670 01d0 00000000 		.word	lcd_x_size
 1671 01d4 00000000 		.word	lcd_y_size
 1672 01d8 00000000 		.word	hdsivideo_handle
 1673 01dc E31C754C 		.word	1282743523
 1674 01e0 00000000 		.word	hltdc_discovery
 1675 01e4 00000000 		.word	PeriphClkInitStruct.0
ARM GAS  /var/folders/0f/x4_g94q9649fs6s33cksjfb00000gn/T//ccfL3aoH.s 			page 29


 1676 01e8 00680140 		.word	1073833984
 1678              		.section	.text.BSP_LCD_Init,"ax",%progbits
 1679              		.align	1
 1680              		.global	BSP_LCD_Init
 1681              		.syntax unified
 1682              		.thumb
 1683              		.thumb_func
 1685              	BSP_LCD_Init:
 1686              		@ args = 0, pretend = 0, frame = 0
 1687              		@ frame_needed = 0, uses_anonymous_args = 0
 1688 0000 08B5     		push	{r3, lr}
 1689 0002 0120     		movs	r0, #1
 1690 0004 FFF7FEFF 		bl	BSP_LCD_InitEx
 1691 0008 08BD     		pop	{r3, pc}
 1693              		.section	.text.BSP_LCD_DrawPixel,"ax",%progbits
 1694              		.align	1
 1695              		.global	BSP_LCD_DrawPixel
 1696              		.syntax unified
 1697              		.thumb
 1698              		.thumb_func
 1700              	BSP_LCD_DrawPixel:
 1701              		@ args = 0, pretend = 0, frame = 0
 1702              		@ frame_needed = 0, uses_anonymous_args = 0
 1703 0000 F8B5     		push	{r3, r4, r5, r6, r7, lr}
 1704 0002 0446     		mov	r4, r0
 1705 0004 0E46     		mov	r6, r1
 1706 0006 1546     		mov	r5, r2
 1707 0008 064B     		ldr	r3, .L188
 1708 000a 1A68     		ldr	r2, [r3]
 1709 000c 064B     		ldr	r3, .L188+4
 1710 000e 3421     		movs	r1, #52
 1711 0010 01FB0233 		mla	r3, r1, r2, r3
 1712 0014 DF6D     		ldr	r7, [r3, #92]
 1713 0016 FFF7FEFF 		bl	BSP_LCD_GetXSize
 1714 001a 00FB0644 		mla	r4, r0, r6, r4
 1715 001e 47F82450 		str	r5, [r7, r4, lsl #2]
 1716 0022 F8BD     		pop	{r3, r4, r5, r6, r7, pc}
 1717              	.L189:
 1718              		.align	2
 1719              	.L188:
 1720 0024 00000000 		.word	ActiveLayer
 1721 0028 00000000 		.word	hltdc_discovery
 1723              		.section	.text.DrawChar,"ax",%progbits
 1724              		.align	1
 1725              		.syntax unified
 1726              		.thumb
 1727              		.thumb_func
 1729              	DrawChar:
 1730              		@ args = 0, pretend = 0, frame = 8
 1731              		@ frame_needed = 0, uses_anonymous_args = 0
 1732 0000 2DE9F04F 		push	{r4, r5, r6, r7, r8, r9, r10, fp, lr}
 1733 0004 83B0     		sub	sp, sp, #12
 1734 0006 8046     		mov	r8, r0
 1735 0008 8B46     		mov	fp, r1
 1736 000a 0092     		str	r2, [sp]
 1737 000c 344B     		ldr	r3, .L206
 1738 000e 1B68     		ldr	r3, [r3]
ARM GAS  /var/folders/0f/x4_g94q9649fs6s33cksjfb00000gn/T//ccfL3aoH.s 			page 30


 1739 0010 03EB4303 		add	r3, r3, r3, lsl #1
 1740 0014 334A     		ldr	r2, .L206+4
 1741 0016 02EB8303 		add	r3, r2, r3, lsl #2
 1742 001a 9B68     		ldr	r3, [r3, #8]
 1743 001c DA88     		ldrh	r2, [r3, #6]
 1744 001e 0192     		str	r2, [sp, #4]
 1745 0020 9D88     		ldrh	r5, [r3, #4]
 1746 0022 E91D     		adds	r1, r5, #7
 1747 0024 4FEAE109 		asr	r9, r1, #3
 1748 0028 4FEAC907 		lsl	r7, r9, #3
 1749 002c FFB2     		uxtb	r7, r7
 1750 002e EBB2     		uxtb	r3, r5
 1751 0030 FF1A     		subs	r7, r7, r3
 1752 0032 FFB2     		uxtb	r7, r7
 1753 0034 4FF0000A 		mov	r10, #0
 1754 0038 5346     		mov	r3, r10
 1755 003a CA46     		mov	r10, r9
 1756 003c 9946     		mov	r9, r3
 1757 003e 36E0     		b	.L192
 1758              	.L193:
 1759 0040 009A     		ldr	r2, [sp]
 1760 0042 D65C     		ldrb	r6, [r2, r3]	@ zero_extendqisi2
 1761              	.L196:
 1762 0044 0024     		movs	r4, #0
 1763 0046 14E0     		b	.L197
 1764              	.L194:
 1765 0048 009A     		ldr	r2, [sp]
 1766 004a D35C     		ldrb	r3, [r2, r3]	@ zero_extendqisi2
 1767 004c 4678     		ldrb	r6, [r0, #1]	@ zero_extendqisi2
 1768 004e 46EA0326 		orr	r6, r6, r3, lsl #8
 1769 0052 F7E7     		b	.L196
 1770              	.L198:
 1771 0054 224B     		ldr	r3, .L206
 1772 0056 1B68     		ldr	r3, [r3]
 1773 0058 03EB4303 		add	r3, r3, r3, lsl #1
 1774 005c 214A     		ldr	r2, .L206+4
 1775 005e 02EB8303 		add	r3, r2, r3, lsl #2
 1776 0062 08EB0400 		add	r0, r8, r4
 1777 0066 5A68     		ldr	r2, [r3, #4]
 1778 0068 5946     		mov	r1, fp
 1779 006a 80B2     		uxth	r0, r0
 1780 006c FFF7FEFF 		bl	BSP_LCD_DrawPixel
 1781              	.L199:
 1782 0070 0134     		adds	r4, r4, #1
 1783              	.L197:
 1784 0072 A542     		cmp	r5, r4
 1785 0074 15D9     		bls	.L204
 1786 0076 2B1B     		subs	r3, r5, r4
 1787 0078 3B44     		add	r3, r3, r7
 1788 007a 013B     		subs	r3, r3, #1
 1789 007c 0122     		movs	r2, #1
 1790 007e 02FA03F3 		lsl	r3, r2, r3
 1791 0082 3342     		tst	r3, r6
 1792 0084 E6D0     		beq	.L198
 1793 0086 164B     		ldr	r3, .L206
 1794 0088 1B68     		ldr	r3, [r3]
 1795 008a 03EB4303 		add	r3, r3, r3, lsl #1
ARM GAS  /var/folders/0f/x4_g94q9649fs6s33cksjfb00000gn/T//ccfL3aoH.s 			page 31


 1796 008e 08EB0400 		add	r0, r8, r4
 1797 0092 144A     		ldr	r2, .L206+4
 1798 0094 52F82320 		ldr	r2, [r2, r3, lsl #2]
 1799 0098 5946     		mov	r1, fp
 1800 009a 80B2     		uxth	r0, r0
 1801 009c FFF7FEFF 		bl	BSP_LCD_DrawPixel
 1802 00a0 E6E7     		b	.L199
 1803              	.L204:
 1804 00a2 0BF1010B 		add	fp, fp, #1
 1805 00a6 1FFA8BFB 		uxth	fp, fp
 1806 00aa 09F10109 		add	r9, r9, #1
 1807              	.L192:
 1808 00ae 019B     		ldr	r3, [sp, #4]
 1809 00b0 4B45     		cmp	r3, r9
 1810 00b2 12D9     		bls	.L205
 1811 00b4 09FB0AF3 		mul	r3, r9, r10
 1812 00b8 009A     		ldr	r2, [sp]
 1813 00ba D018     		adds	r0, r2, r3
 1814 00bc BAF1010F 		cmp	r10, #1
 1815 00c0 BED0     		beq	.L193
 1816 00c2 BAF1020F 		cmp	r10, #2
 1817 00c6 BFD0     		beq	.L194
 1818 00c8 009A     		ldr	r2, [sp]
 1819 00ca D35C     		ldrb	r3, [r2, r3]	@ zero_extendqisi2
 1820 00cc 4678     		ldrb	r6, [r0, #1]	@ zero_extendqisi2
 1821 00ce 3602     		lsls	r6, r6, #8
 1822 00d0 46EA0346 		orr	r6, r6, r3, lsl #16
 1823 00d4 8378     		ldrb	r3, [r0, #2]	@ zero_extendqisi2
 1824 00d6 1E43     		orrs	r6, r6, r3
 1825 00d8 B4E7     		b	.L196
 1826              	.L205:
 1827 00da 03B0     		add	sp, sp, #12
 1828              		@ sp needed
 1829 00dc BDE8F08F 		pop	{r4, r5, r6, r7, r8, r9, r10, fp, pc}
 1830              	.L207:
 1831              		.align	2
 1832              	.L206:
 1833 00e0 00000000 		.word	ActiveLayer
 1834 00e4 00000000 		.word	DrawProp
 1836              		.section	.text.BSP_LCD_DisplayChar,"ax",%progbits
 1837              		.align	1
 1838              		.global	BSP_LCD_DisplayChar
 1839              		.syntax unified
 1840              		.thumb
 1841              		.thumb_func
 1843              	BSP_LCD_DisplayChar:
 1844              		@ args = 0, pretend = 0, frame = 0
 1845              		@ frame_needed = 0, uses_anonymous_args = 0
 1846 0000 38B5     		push	{r3, r4, r5, lr}
 1847 0002 0B4B     		ldr	r3, .L211
 1848 0004 1B68     		ldr	r3, [r3]
 1849 0006 03EB4303 		add	r3, r3, r3, lsl #1
 1850 000a 0A4C     		ldr	r4, .L211+4
 1851 000c 04EB8303 		add	r3, r4, r3, lsl #2
 1852 0010 9C68     		ldr	r4, [r3, #8]
 1853 0012 2568     		ldr	r5, [r4]
 1854 0014 A2F12003 		sub	r3, r2, #32
ARM GAS  /var/folders/0f/x4_g94q9649fs6s33cksjfb00000gn/T//ccfL3aoH.s 			page 32


 1855 0018 E288     		ldrh	r2, [r4, #6]
 1856 001a 02FB03F3 		mul	r3, r2, r3
 1857 001e A288     		ldrh	r2, [r4, #4]
 1858 0020 0732     		adds	r2, r2, #7
 1859 0022 D210     		asrs	r2, r2, #3
 1860 0024 02FB0352 		mla	r2, r2, r3, r5
 1861 0028 FFF7FEFF 		bl	DrawChar
 1862 002c 38BD     		pop	{r3, r4, r5, pc}
 1863              	.L212:
 1864 002e 00BF     		.align	2
 1865              	.L211:
 1866 0030 00000000 		.word	ActiveLayer
 1867 0034 00000000 		.word	DrawProp
 1869              		.section	.text.BSP_LCD_DisplayStringAt,"ax",%progbits
 1870              		.align	1
 1871              		.global	BSP_LCD_DisplayStringAt
 1872              		.syntax unified
 1873              		.thumb
 1874              		.thumb_func
 1876              	BSP_LCD_DisplayStringAt:
 1877              		@ args = 0, pretend = 0, frame = 0
 1878              		@ frame_needed = 0, uses_anonymous_args = 0
 1879 0000 2DE9F041 		push	{r4, r5, r6, r7, r8, lr}
 1880 0004 0446     		mov	r4, r0
 1881 0006 0E46     		mov	r6, r1
 1882 0008 1546     		mov	r5, r2
 1883 000a 9846     		mov	r8, r3
 1884 000c 9446     		mov	ip, r2
 1885 000e 0027     		movs	r7, #0
 1886 0010 00E0     		b	.L214
 1887              	.L215:
 1888 0012 0137     		adds	r7, r7, #1
 1889              	.L214:
 1890 0014 1CF8012B 		ldrb	r2, [ip], #1	@ zero_extendqisi2
 1891 0018 002A     		cmp	r2, #0
 1892 001a FAD1     		bne	.L215
 1893 001c FFF7FEFF 		bl	BSP_LCD_GetXSize
 1894 0020 294B     		ldr	r3, .L227
 1895 0022 1B68     		ldr	r3, [r3]
 1896 0024 03EB4303 		add	r3, r3, r3, lsl #1
 1897 0028 284A     		ldr	r2, .L227+4
 1898 002a 02EB8303 		add	r3, r2, r3, lsl #2
 1899 002e 9B68     		ldr	r3, [r3, #8]
 1900 0030 9A88     		ldrh	r2, [r3, #4]
 1901 0032 B0FBF2F0 		udiv	r0, r0, r2
 1902 0036 B8F1010F 		cmp	r8, #1
 1903 003a 32D0     		beq	.L216
 1904 003c B8F1020F 		cmp	r8, #2
 1905 0040 37D0     		beq	.L217
 1906              	.L218:
 1907 0042 23B2     		sxth	r3, r4
 1908 0044 002B     		cmp	r3, #0
 1909 0046 3BDD     		ble	.L225
 1910              	.L219:
 1911 0048 0027     		movs	r7, #0
 1912              	.L221:
 1913 004a 95F80080 		ldrb	r8, [r5]	@ zero_extendqisi2
ARM GAS  /var/folders/0f/x4_g94q9649fs6s33cksjfb00000gn/T//ccfL3aoH.s 			page 33


 1914 004e FFF7FEFF 		bl	BSP_LCD_GetXSize
 1915 0052 1D4B     		ldr	r3, .L227
 1916 0054 1B68     		ldr	r3, [r3]
 1917 0056 03EB4303 		add	r3, r3, r3, lsl #1
 1918 005a 1C4A     		ldr	r2, .L227+4
 1919 005c 02EB8303 		add	r3, r2, r3, lsl #2
 1920 0060 9B68     		ldr	r3, [r3, #8]
 1921 0062 9A88     		ldrh	r2, [r3, #4]
 1922 0064 02FB1703 		mls	r3, r2, r7, r0
 1923 0068 9BB2     		uxth	r3, r3
 1924 006a B8F10001 		subs	r1, r8, #0
 1925 006e 18BF     		it	ne
 1926 0070 0121     		movne	r1, #1
 1927 0072 9342     		cmp	r3, r2
 1928 0074 38BF     		it	cc
 1929 0076 0021     		movcc	r1, #0
 1930 0078 21B3     		cbz	r1, .L226
 1931 007a 4246     		mov	r2, r8
 1932 007c 3146     		mov	r1, r6
 1933 007e 2046     		mov	r0, r4
 1934 0080 FFF7FEFF 		bl	BSP_LCD_DisplayChar
 1935 0084 104B     		ldr	r3, .L227
 1936 0086 1B68     		ldr	r3, [r3]
 1937 0088 03EB4303 		add	r3, r3, r3, lsl #1
 1938 008c 0F4A     		ldr	r2, .L227+4
 1939 008e 02EB8303 		add	r3, r2, r3, lsl #2
 1940 0092 9B68     		ldr	r3, [r3, #8]
 1941 0094 9B88     		ldrh	r3, [r3, #4]
 1942 0096 2344     		add	r3, r3, r4
 1943 0098 9CB2     		uxth	r4, r3
 1944 009a 0135     		adds	r5, r5, #1
 1945 009c 0137     		adds	r7, r7, #1
 1946 009e BFB2     		uxth	r7, r7
 1947 00a0 D3E7     		b	.L221
 1948              	.L216:
 1949 00a2 C01B     		subs	r0, r0, r7
 1950 00a4 00FB02F3 		mul	r3, r0, r2
 1951 00a8 C3F34F03 		ubfx	r3, r3, #1, #16
 1952 00ac 2344     		add	r3, r3, r4
 1953 00ae 9CB2     		uxth	r4, r3
 1954 00b0 C7E7     		b	.L218
 1955              	.L217:
 1956 00b2 C31B     		subs	r3, r0, r7
 1957 00b4 13FB02F3 		smulbb	r3, r3, r2
 1958 00b8 9BB2     		uxth	r3, r3
 1959 00ba 1B1B     		subs	r3, r3, r4
 1960 00bc 9CB2     		uxth	r4, r3
 1961 00be C0E7     		b	.L218
 1962              	.L225:
 1963 00c0 0124     		movs	r4, #1
 1964 00c2 C1E7     		b	.L219
 1965              	.L226:
 1966 00c4 BDE8F081 		pop	{r4, r5, r6, r7, r8, pc}
 1967              	.L228:
 1968              		.align	2
 1969              	.L227:
 1970 00c8 00000000 		.word	ActiveLayer
ARM GAS  /var/folders/0f/x4_g94q9649fs6s33cksjfb00000gn/T//ccfL3aoH.s 			page 34


 1971 00cc 00000000 		.word	DrawProp
 1973              		.section	.text.BSP_LCD_DisplayStringAtLine,"ax",%progbits
 1974              		.align	1
 1975              		.global	BSP_LCD_DisplayStringAtLine
 1976              		.syntax unified
 1977              		.thumb
 1978              		.thumb_func
 1980              	BSP_LCD_DisplayStringAtLine:
 1981              		@ args = 0, pretend = 0, frame = 0
 1982              		@ frame_needed = 0, uses_anonymous_args = 0
 1983 0000 38B5     		push	{r3, r4, r5, lr}
 1984 0002 0546     		mov	r5, r0
 1985 0004 0C46     		mov	r4, r1
 1986 0006 FFF7FEFF 		bl	BSP_LCD_GetFont
 1987 000a C388     		ldrh	r3, [r0, #6]
 1988 000c 13FB05F1 		smulbb	r1, r3, r5
 1989 0010 0323     		movs	r3, #3
 1990 0012 2246     		mov	r2, r4
 1991 0014 89B2     		uxth	r1, r1
 1992 0016 0020     		movs	r0, #0
 1993 0018 FFF7FEFF 		bl	BSP_LCD_DisplayStringAt
 1994 001c 38BD     		pop	{r3, r4, r5, pc}
 1996              		.section	.text.BSP_LCD_DrawLine,"ax",%progbits
 1997              		.align	1
 1998              		.global	BSP_LCD_DrawLine
 1999              		.syntax unified
 2000              		.thumb
 2001              		.thumb_func
 2003              	BSP_LCD_DrawLine:
 2004              		@ args = 0, pretend = 0, frame = 16
 2005              		@ frame_needed = 0, uses_anonymous_args = 0
 2006 0000 2DE9F04F 		push	{r4, r5, r6, r7, r8, r9, r10, fp, lr}
 2007 0004 85B0     		sub	sp, sp, #20
 2008 0006 A2EB000A 		sub	r10, r2, r0
 2009 000a BAF1000F 		cmp	r10, #0
 2010 000e B8BF     		it	lt
 2011 0010 CAF1000A 		rsblt	r10, r10, #0
 2012 0014 0FFA8AFA 		sxth	r10, r10
 2013 0018 A3EB010C 		sub	ip, r3, r1
 2014 001c BCF1000F 		cmp	ip, #0
 2015 0020 B8BF     		it	lt
 2016 0022 CCF1000C 		rsblt	ip, ip, #0
 2017 0026 0FFA8CFB 		sxth	fp, ip
 2018 002a 04B2     		sxth	r4, r0
 2019 002c 0EB2     		sxth	r6, r1
 2020 002e 8242     		cmp	r2, r0
 2021 0030 15D3     		bcc	.L241
 2022 0032 0122     		movs	r2, #1
 2023 0034 0292     		str	r2, [sp, #8]
 2024              	.L232:
 2025 0036 8B42     		cmp	r3, r1
 2026 0038 15D3     		bcc	.L242
 2027 003a 0123     		movs	r3, #1
 2028 003c 0393     		str	r3, [sp, #12]
 2029              	.L233:
 2030 003e DA45     		cmp	r10, fp
 2031 0040 18DB     		blt	.L234
ARM GAS  /var/folders/0f/x4_g94q9649fs6s33cksjfb00000gn/T//ccfL3aoH.s 			page 35


 2032 0042 D046     		mov	r8, r10
 2033 0044 BAF1000F 		cmp	r10, #0
 2034 0048 11DB     		blt	.L244
 2035              	.L235:
 2036 004a 48F34F08 		sbfx	r8, r8, #1, #16
 2037 004e 029B     		ldr	r3, [sp, #8]
 2038 0050 0093     		str	r3, [sp]
 2039 0052 0023     		movs	r3, #0
 2040 0054 0293     		str	r3, [sp, #8]
 2041 0056 0193     		str	r3, [sp, #4]
 2042              	.L236:
 2043 0058 4FF00009 		mov	r9, #0
 2044 005c 26E0     		b	.L238
 2045              	.L241:
 2046 005e 4FF0FF32 		mov	r2, #-1
 2047 0062 0292     		str	r2, [sp, #8]
 2048 0064 E7E7     		b	.L232
 2049              	.L242:
 2050 0066 4FF0FF33 		mov	r3, #-1
 2051 006a 0393     		str	r3, [sp, #12]
 2052 006c E7E7     		b	.L233
 2053              	.L244:
 2054 006e 0AF10108 		add	r8, r10, #1
 2055 0072 EAE7     		b	.L235
 2056              	.L234:
 2057 0074 D846     		mov	r8, fp
 2058 0076 BBF1000F 		cmp	fp, #0
 2059 007a 0ADB     		blt	.L245
 2060              	.L237:
 2061 007c 48F34F08 		sbfx	r8, r8, #1, #16
 2062 0080 5346     		mov	r3, r10
 2063 0082 DA46     		mov	r10, fp
 2064 0084 9B46     		mov	fp, r3
 2065 0086 039B     		ldr	r3, [sp, #12]
 2066 0088 0193     		str	r3, [sp, #4]
 2067 008a 0023     		movs	r3, #0
 2068 008c 0393     		str	r3, [sp, #12]
 2069 008e 0093     		str	r3, [sp]
 2070 0090 E2E7     		b	.L236
 2071              	.L245:
 2072 0092 0BF10108 		add	r8, fp, #1
 2073 0096 F1E7     		b	.L237
 2074              	.L239:
 2075 0098 009B     		ldr	r3, [sp]
 2076 009a 1C44     		add	r4, r4, r3
 2077 009c 24B2     		sxth	r4, r4
 2078 009e 019B     		ldr	r3, [sp, #4]
 2079 00a0 1E44     		add	r6, r6, r3
 2080 00a2 36B2     		sxth	r6, r6
 2081 00a4 09F10109 		add	r9, r9, #1
 2082 00a8 0FFA89F9 		sxth	r9, r9
 2083              	.L238:
 2084 00ac CA45     		cmp	r10, r9
 2085 00ae 1EDB     		blt	.L246
 2086 00b0 A7B2     		uxth	r7, r4
 2087 00b2 B5B2     		uxth	r5, r6
 2088 00b4 0F4B     		ldr	r3, .L247
ARM GAS  /var/folders/0f/x4_g94q9649fs6s33cksjfb00000gn/T//ccfL3aoH.s 			page 36


 2089 00b6 1B68     		ldr	r3, [r3]
 2090 00b8 03EB4303 		add	r3, r3, r3, lsl #1
 2091 00bc 0E4A     		ldr	r2, .L247+4
 2092 00be 52F82320 		ldr	r2, [r2, r3, lsl #2]
 2093 00c2 2946     		mov	r1, r5
 2094 00c4 3846     		mov	r0, r7
 2095 00c6 FFF7FEFF 		bl	BSP_LCD_DrawPixel
 2096 00ca D844     		add	r8, r8, fp
 2097 00cc 1FFA88F3 		uxth	r3, r8
 2098 00d0 0FFA88F8 		sxth	r8, r8
 2099 00d4 C245     		cmp	r10, r8
 2100 00d6 DFDC     		bgt	.L239
 2101 00d8 A3EB0A03 		sub	r3, r3, r10
 2102 00dc 0FFA83F8 		sxth	r8, r3
 2103 00e0 029B     		ldr	r3, [sp, #8]
 2104 00e2 1F44     		add	r7, r7, r3
 2105 00e4 3CB2     		sxth	r4, r7
 2106 00e6 039B     		ldr	r3, [sp, #12]
 2107 00e8 1D44     		add	r5, r5, r3
 2108 00ea 2EB2     		sxth	r6, r5
 2109 00ec D4E7     		b	.L239
 2110              	.L246:
 2111 00ee 05B0     		add	sp, sp, #20
 2112              		@ sp needed
 2113 00f0 BDE8F08F 		pop	{r4, r5, r6, r7, r8, r9, r10, fp, pc}
 2114              	.L248:
 2115              		.align	2
 2116              	.L247:
 2117 00f4 00000000 		.word	ActiveLayer
 2118 00f8 00000000 		.word	DrawProp
 2120              		.section	.text.BSP_LCD_DrawPolygon,"ax",%progbits
 2121              		.align	1
 2122              		.global	BSP_LCD_DrawPolygon
 2123              		.syntax unified
 2124              		.thumb
 2125              		.thumb_func
 2127              	BSP_LCD_DrawPolygon:
 2128              		@ args = 0, pretend = 0, frame = 0
 2129              		@ frame_needed = 0, uses_anonymous_args = 0
 2130 0000 0129     		cmp	r1, #1
 2131 0002 29D9     		bls	.L254
 2132 0004 38B5     		push	{r3, r4, r5, lr}
 2133 0006 0546     		mov	r5, r0
 2134 0008 0C46     		mov	r4, r1
 2135 000a B0F90000 		ldrsh	r0, [r0]
 2136 000e B5F90210 		ldrsh	r1, [r5, #2]
 2137 0012 6FF04043 		mvn	r3, #-1073741824
 2138 0016 2344     		add	r3, r3, r4
 2139 0018 05EB830C 		add	ip, r5, r3, lsl #2
 2140 001c 35F92320 		ldrsh	r2, [r5, r3, lsl #2]
 2141 0020 BCF90230 		ldrsh	r3, [ip, #2]
 2142 0024 9BB2     		uxth	r3, r3
 2143 0026 92B2     		uxth	r2, r2
 2144 0028 89B2     		uxth	r1, r1
 2145 002a 80B2     		uxth	r0, r0
 2146 002c FFF7FEFF 		bl	BSP_LCD_DrawLine
 2147 0030 0DE0     		b	.L251
ARM GAS  /var/folders/0f/x4_g94q9649fs6s33cksjfb00000gn/T//ccfL3aoH.s 			page 37


 2148              	.L252:
 2149 0032 B5F90000 		ldrsh	r0, [r5]
 2150 0036 B5F90210 		ldrsh	r1, [r5, #2]
 2151 003a 35F9042F 		ldrsh	r2, [r5, #4]!
 2152 003e B5F90230 		ldrsh	r3, [r5, #2]
 2153 0042 9BB2     		uxth	r3, r3
 2154 0044 92B2     		uxth	r2, r2
 2155 0046 89B2     		uxth	r1, r1
 2156 0048 80B2     		uxth	r0, r0
 2157 004a FFF7FEFF 		bl	BSP_LCD_DrawLine
 2158              	.L251:
 2159 004e 013C     		subs	r4, r4, #1
 2160 0050 A4B2     		uxth	r4, r4
 2161 0052 002C     		cmp	r4, #0
 2162 0054 EDD1     		bne	.L252
 2163 0056 38BD     		pop	{r3, r4, r5, pc}
 2164              	.L254:
 2165 0058 7047     		bx	lr
 2167              		.section	.text.FillTriangle,"ax",%progbits
 2168              		.align	1
 2169              		.syntax unified
 2170              		.thumb
 2171              		.thumb_func
 2173              	FillTriangle:
 2174              		@ args = 8, pretend = 0, frame = 24
 2175              		@ frame_needed = 0, uses_anonymous_args = 0
 2176 0000 2DE9F04F 		push	{r4, r5, r6, r7, r8, r9, r10, fp, lr}
 2177 0004 87B0     		sub	sp, sp, #28
 2178 0006 0292     		str	r2, [sp, #8]
 2179 0008 BDF84050 		ldrh	r5, [sp, #64]
 2180 000c BDF84420 		ldrh	r2, [sp, #68]
 2181 0010 0392     		str	r2, [sp, #12]
 2182 0012 A1EB000A 		sub	r10, r1, r0
 2183 0016 BAF1000F 		cmp	r10, #0
 2184 001a B8BF     		it	lt
 2185 001c CAF1000A 		rsblt	r10, r10, #0
 2186 0020 0FFA8AFA 		sxth	r10, r10
 2187 0024 EA1A     		subs	r2, r5, r3
 2188 0026 002A     		cmp	r2, #0
 2189 0028 B8BF     		it	lt
 2190 002a 5242     		rsblt	r2, r2, #0
 2191 002c 0FFA82FB 		sxth	fp, r2
 2192 0030 04B2     		sxth	r4, r0
 2193 0032 1EB2     		sxth	r6, r3
 2194 0034 8142     		cmp	r1, r0
 2195 0036 15D3     		bcc	.L267
 2196 0038 0122     		movs	r2, #1
 2197 003a 0492     		str	r2, [sp, #16]
 2198              	.L258:
 2199 003c 9D42     		cmp	r5, r3
 2200 003e 15D3     		bcc	.L268
 2201 0040 0123     		movs	r3, #1
 2202 0042 0593     		str	r3, [sp, #20]
 2203              	.L259:
 2204 0044 DA45     		cmp	r10, fp
 2205 0046 18DB     		blt	.L260
 2206 0048 D046     		mov	r8, r10
ARM GAS  /var/folders/0f/x4_g94q9649fs6s33cksjfb00000gn/T//ccfL3aoH.s 			page 38


 2207 004a BAF1000F 		cmp	r10, #0
 2208 004e 11DB     		blt	.L270
 2209              	.L261:
 2210 0050 48F34F08 		sbfx	r8, r8, #1, #16
 2211 0054 049B     		ldr	r3, [sp, #16]
 2212 0056 0093     		str	r3, [sp]
 2213 0058 0023     		movs	r3, #0
 2214 005a 0493     		str	r3, [sp, #16]
 2215 005c 0193     		str	r3, [sp, #4]
 2216              	.L262:
 2217 005e 4FF00009 		mov	r9, #0
 2218 0062 26E0     		b	.L264
 2219              	.L267:
 2220 0064 4FF0FF32 		mov	r2, #-1
 2221 0068 0492     		str	r2, [sp, #16]
 2222 006a E7E7     		b	.L258
 2223              	.L268:
 2224 006c 4FF0FF33 		mov	r3, #-1
 2225 0070 0593     		str	r3, [sp, #20]
 2226 0072 E7E7     		b	.L259
 2227              	.L270:
 2228 0074 0AF10108 		add	r8, r10, #1
 2229 0078 EAE7     		b	.L261
 2230              	.L260:
 2231 007a D846     		mov	r8, fp
 2232 007c BBF1000F 		cmp	fp, #0
 2233 0080 0ADB     		blt	.L271
 2234              	.L263:
 2235 0082 48F34F08 		sbfx	r8, r8, #1, #16
 2236 0086 5346     		mov	r3, r10
 2237 0088 DA46     		mov	r10, fp
 2238 008a 9B46     		mov	fp, r3
 2239 008c 059B     		ldr	r3, [sp, #20]
 2240 008e 0193     		str	r3, [sp, #4]
 2241 0090 0023     		movs	r3, #0
 2242 0092 0593     		str	r3, [sp, #20]
 2243 0094 0093     		str	r3, [sp]
 2244 0096 E2E7     		b	.L262
 2245              	.L271:
 2246 0098 0BF10108 		add	r8, fp, #1
 2247 009c F1E7     		b	.L263
 2248              	.L265:
 2249 009e 009B     		ldr	r3, [sp]
 2250 00a0 1C44     		add	r4, r4, r3
 2251 00a2 24B2     		sxth	r4, r4
 2252 00a4 019B     		ldr	r3, [sp, #4]
 2253 00a6 1E44     		add	r6, r6, r3
 2254 00a8 36B2     		sxth	r6, r6
 2255 00aa 09F10109 		add	r9, r9, #1
 2256 00ae 0FFA89F9 		sxth	r9, r9
 2257              	.L264:
 2258 00b2 CA45     		cmp	r10, r9
 2259 00b4 19DB     		blt	.L272
 2260 00b6 A7B2     		uxth	r7, r4
 2261 00b8 B5B2     		uxth	r5, r6
 2262 00ba 039B     		ldr	r3, [sp, #12]
 2263 00bc 029A     		ldr	r2, [sp, #8]
ARM GAS  /var/folders/0f/x4_g94q9649fs6s33cksjfb00000gn/T//ccfL3aoH.s 			page 39


 2264 00be 2946     		mov	r1, r5
 2265 00c0 3846     		mov	r0, r7
 2266 00c2 FFF7FEFF 		bl	BSP_LCD_DrawLine
 2267 00c6 D844     		add	r8, r8, fp
 2268 00c8 1FFA88F3 		uxth	r3, r8
 2269 00cc 0FFA88F8 		sxth	r8, r8
 2270 00d0 C245     		cmp	r10, r8
 2271 00d2 E4DC     		bgt	.L265
 2272 00d4 A3EB0A03 		sub	r3, r3, r10
 2273 00d8 0FFA83F8 		sxth	r8, r3
 2274 00dc 049B     		ldr	r3, [sp, #16]
 2275 00de 1F44     		add	r7, r7, r3
 2276 00e0 3CB2     		sxth	r4, r7
 2277 00e2 059B     		ldr	r3, [sp, #20]
 2278 00e4 1D44     		add	r5, r5, r3
 2279 00e6 2EB2     		sxth	r6, r5
 2280 00e8 D9E7     		b	.L265
 2281              	.L272:
 2282 00ea 07B0     		add	sp, sp, #28
 2283              		@ sp needed
 2284 00ec BDE8F08F 		pop	{r4, r5, r6, r7, r8, r9, r10, fp, pc}
 2286              		.section	.text.BSP_LCD_FillPolygon,"ax",%progbits
 2287              		.align	1
 2288              		.global	BSP_LCD_FillPolygon
 2289              		.syntax unified
 2290              		.thumb
 2291              		.thumb_func
 2293              	BSP_LCD_FillPolygon:
 2294              		@ args = 0, pretend = 0, frame = 24
 2295              		@ frame_needed = 0, uses_anonymous_args = 0
 2296 0000 2DE9F04F 		push	{r4, r5, r6, r7, r8, r9, r10, fp, lr}
 2297 0004 89B0     		sub	sp, sp, #36
 2298 0006 0446     		mov	r4, r0
 2299 0008 0D46     		mov	r5, r1
 2300 000a B0F90030 		ldrsh	r3, [r0]
 2301 000e 1FFA83F9 		uxth	r9, r3
 2302 0012 B0F90230 		ldrsh	r3, [r0, #2]
 2303 0016 9FB2     		uxth	r7, r3
 2304 0018 3846     		mov	r0, r7
 2305 001a BC46     		mov	ip, r7
 2306 001c CE46     		mov	lr, r9
 2307 001e 4E46     		mov	r6, r9
 2308 0020 0123     		movs	r3, #1
 2309 0022 01E0     		b	.L274
 2310              	.L278:
 2311 0024 0133     		adds	r3, r3, #1
 2312 0026 1BB2     		sxth	r3, r3
 2313              	.L274:
 2314 0028 AB42     		cmp	r3, r5
 2315 002a 14DA     		bge	.L286
 2316 002c 04EB8301 		add	r1, r4, r3, lsl #2
 2317 0030 34F92320 		ldrsh	r2, [r4, r3, lsl #2]
 2318 0034 B242     		cmp	r2, r6
 2319 0036 00DA     		bge	.L275
 2320 0038 96B2     		uxth	r6, r2
 2321              	.L275:
 2322 003a 7245     		cmp	r2, lr
ARM GAS  /var/folders/0f/x4_g94q9649fs6s33cksjfb00000gn/T//ccfL3aoH.s 			page 40


 2323 003c 01DD     		ble	.L276
 2324 003e 1FFA82FE 		uxth	lr, r2
 2325              	.L276:
 2326 0042 B1F90220 		ldrsh	r2, [r1, #2]
 2327 0046 6245     		cmp	r2, ip
 2328 0048 01DA     		bge	.L277
 2329 004a 1FFA82FC 		uxth	ip, r2
 2330              	.L277:
 2331 004e 8242     		cmp	r2, r0
 2332 0050 E8DD     		ble	.L278
 2333 0052 90B2     		uxth	r0, r2
 2334 0054 E6E7     		b	.L278
 2335              	.L286:
 2336 0056 012D     		cmp	r5, #1
 2337 0058 67D9     		bls	.L273
 2338 005a 7644     		add	r6, r6, lr
 2339 005c 7310     		asrs	r3, r6, #1
 2340 005e 0293     		str	r3, [sp, #8]
 2341 0060 6044     		add	r0, r0, ip
 2342 0062 4310     		asrs	r3, r0, #1
 2343 0064 0393     		str	r3, [sp, #12]
 2344 0066 0023     		movs	r3, #0
 2345 0068 0593     		str	r3, [sp, #20]
 2346 006a 0493     		str	r3, [sp, #16]
 2347 006c CDF81890 		str	r9, [sp, #24]
 2348 0070 0797     		str	r7, [sp, #28]
 2349 0072 A046     		mov	r8, r4
 2350 0074 30E0     		b	.L283
 2351              	.L284:
 2352 0076 B8F90070 		ldrsh	r7, [r8]
 2353 007a B8F90240 		ldrsh	r4, [r8, #2]
 2354 007e 38F9043F 		ldrsh	r3, [r8, #4]!
 2355 0082 0493     		str	r3, [sp, #16]
 2356 0084 B8F90220 		ldrsh	r2, [r8, #2]
 2357 0088 0592     		str	r2, [sp, #20]
 2358 008a BFB2     		uxth	r7, r7
 2359 008c 1FFA83F9 		uxth	r9, r3
 2360 0090 BDF80860 		ldrh	r6, [sp, #8]
 2361 0094 A4B2     		uxth	r4, r4
 2362 0096 1FFA82FB 		uxth	fp, r2
 2363 009a BDF80CA0 		ldrh	r10, [sp, #12]
 2364 009e CDF804A0 		str	r10, [sp, #4]
 2365 00a2 CDF800B0 		str	fp, [sp]
 2366 00a6 2346     		mov	r3, r4
 2367 00a8 3246     		mov	r2, r6
 2368 00aa 4946     		mov	r1, r9
 2369 00ac 3846     		mov	r0, r7
 2370 00ae FFF7FEFF 		bl	FillTriangle
 2371 00b2 CDF804B0 		str	fp, [sp, #4]
 2372 00b6 CDF800A0 		str	r10, [sp]
 2373 00ba 2346     		mov	r3, r4
 2374 00bc 4A46     		mov	r2, r9
 2375 00be 3146     		mov	r1, r6
 2376 00c0 3846     		mov	r0, r7
 2377 00c2 FFF7FEFF 		bl	FillTriangle
 2378 00c6 0194     		str	r4, [sp, #4]
 2379 00c8 CDF800B0 		str	fp, [sp]
ARM GAS  /var/folders/0f/x4_g94q9649fs6s33cksjfb00000gn/T//ccfL3aoH.s 			page 41


 2380 00cc 5346     		mov	r3, r10
 2381 00ce 3A46     		mov	r2, r7
 2382 00d0 4946     		mov	r1, r9
 2383 00d2 3046     		mov	r0, r6
 2384 00d4 FFF7FEFF 		bl	FillTriangle
 2385              	.L283:
 2386 00d8 013D     		subs	r5, r5, #1
 2387 00da ADB2     		uxth	r5, r5
 2388 00dc 002D     		cmp	r5, #0
 2389 00de CAD1     		bne	.L284
 2390 00e0 DDF81890 		ldr	r9, [sp, #24]
 2391 00e4 079F     		ldr	r7, [sp, #28]
 2392 00e6 BDF81060 		ldrh	r6, [sp, #16]
 2393 00ea BDF80850 		ldrh	r5, [sp, #8]
 2394 00ee BDF81440 		ldrh	r4, [sp, #20]
 2395 00f2 BDF80C80 		ldrh	r8, [sp, #12]
 2396 00f6 CDF80480 		str	r8, [sp, #4]
 2397 00fa 0094     		str	r4, [sp]
 2398 00fc 3B46     		mov	r3, r7
 2399 00fe 2A46     		mov	r2, r5
 2400 0100 3146     		mov	r1, r6
 2401 0102 4846     		mov	r0, r9
 2402 0104 FFF7FEFF 		bl	FillTriangle
 2403 0108 0194     		str	r4, [sp, #4]
 2404 010a CDF80080 		str	r8, [sp]
 2405 010e 3B46     		mov	r3, r7
 2406 0110 3246     		mov	r2, r6
 2407 0112 2946     		mov	r1, r5
 2408 0114 4846     		mov	r0, r9
 2409 0116 FFF7FEFF 		bl	FillTriangle
 2410 011a 0197     		str	r7, [sp, #4]
 2411 011c 0094     		str	r4, [sp]
 2412 011e 4346     		mov	r3, r8
 2413 0120 4A46     		mov	r2, r9
 2414 0122 3146     		mov	r1, r6
 2415 0124 2846     		mov	r0, r5
 2416 0126 FFF7FEFF 		bl	FillTriangle
 2417              	.L273:
 2418 012a 09B0     		add	sp, sp, #36
 2419              		@ sp needed
 2420 012c BDE8F08F 		pop	{r4, r5, r6, r7, r8, r9, r10, fp, pc}
 2422              		.section	.text.BSP_LCD_DrawCircle,"ax",%progbits
 2423              		.align	1
 2424              		.global	BSP_LCD_DrawCircle
 2425              		.syntax unified
 2426              		.thumb
 2427              		.thumb_func
 2429              	BSP_LCD_DrawCircle:
 2430              		@ args = 0, pretend = 0, frame = 24
 2431              		@ frame_needed = 0, uses_anonymous_args = 0
 2432 0000 2DE9F04F 		push	{r4, r5, r6, r7, r8, r9, r10, fp, lr}
 2433 0004 87B0     		sub	sp, sp, #28
 2434 0006 8346     		mov	fp, r0
 2435 0008 8A46     		mov	r10, r1
 2436 000a 5300     		lsls	r3, r2, #1
 2437 000c C3F10303 		rsb	r3, r3, #3
 2438 0010 0593     		str	r3, [sp, #20]
ARM GAS  /var/folders/0f/x4_g94q9649fs6s33cksjfb00000gn/T//ccfL3aoH.s 			page 42


 2439 0012 0092     		str	r2, [sp]
 2440 0014 4FF00009 		mov	r9, #0
 2441 0018 05E0     		b	.L288
 2442              	.L294:
 2443 001a 03EB8903 		add	r3, r3, r9, lsl #2
 2444 001e 0633     		adds	r3, r3, #6
 2445 0020 0593     		str	r3, [sp, #20]
 2446              	.L290:
 2447 0022 09F10109 		add	r9, r9, #1
 2448              	.L288:
 2449 0026 009B     		ldr	r3, [sp]
 2450 0028 9945     		cmp	r9, r3
 2451 002a 75D8     		bhi	.L293
 2452 002c 1FFA89F4 		uxth	r4, r9
 2453 0030 04EB0B03 		add	r3, r4, fp
 2454 0034 98B2     		uxth	r0, r3
 2455 0036 BDF80050 		ldrh	r5, [sp]
 2456 003a AAEB0508 		sub	r8, r10, r5
 2457 003e 1FFA88F8 		uxth	r8, r8
 2458 0042 374E     		ldr	r6, .L295
 2459 0044 374F     		ldr	r7, .L295+4
 2460 0046 3B68     		ldr	r3, [r7]
 2461 0048 03EB4303 		add	r3, r3, r3, lsl #1
 2462 004c 56F82320 		ldr	r2, [r6, r3, lsl #2]
 2463 0050 4146     		mov	r1, r8
 2464 0052 0190     		str	r0, [sp, #4]
 2465 0054 FFF7FEFF 		bl	BSP_LCD_DrawPixel
 2466 0058 ABEB0403 		sub	r3, fp, r4
 2467 005c 9BB2     		uxth	r3, r3
 2468 005e 1846     		mov	r0, r3
 2469 0060 3B68     		ldr	r3, [r7]
 2470 0062 03EB4303 		add	r3, r3, r3, lsl #1
 2471 0066 56F82320 		ldr	r2, [r6, r3, lsl #2]
 2472 006a 4146     		mov	r1, r8
 2473 006c 0290     		str	r0, [sp, #8]
 2474 006e FFF7FEFF 		bl	BSP_LCD_DrawPixel
 2475 0072 05EB0B03 		add	r3, r5, fp
 2476 0076 9BB2     		uxth	r3, r3
 2477 0078 1846     		mov	r0, r3
 2478 007a AAEB0403 		sub	r3, r10, r4
 2479 007e 99B2     		uxth	r1, r3
 2480 0080 3B68     		ldr	r3, [r7]
 2481 0082 03EB4303 		add	r3, r3, r3, lsl #1
 2482 0086 56F82320 		ldr	r2, [r6, r3, lsl #2]
 2483 008a 0491     		str	r1, [sp, #16]
 2484 008c 0390     		str	r0, [sp, #12]
 2485 008e FFF7FEFF 		bl	BSP_LCD_DrawPixel
 2486 0092 ABEB0508 		sub	r8, fp, r5
 2487 0096 1FFA88F8 		uxth	r8, r8
 2488 009a 3B68     		ldr	r3, [r7]
 2489 009c 03EB4303 		add	r3, r3, r3, lsl #1
 2490 00a0 56F82320 		ldr	r2, [r6, r3, lsl #2]
 2491 00a4 0499     		ldr	r1, [sp, #16]
 2492 00a6 4046     		mov	r0, r8
 2493 00a8 FFF7FEFF 		bl	BSP_LCD_DrawPixel
 2494 00ac 5544     		add	r5, r5, r10
 2495 00ae ADB2     		uxth	r5, r5
ARM GAS  /var/folders/0f/x4_g94q9649fs6s33cksjfb00000gn/T//ccfL3aoH.s 			page 43


 2496 00b0 3B68     		ldr	r3, [r7]
 2497 00b2 03EB4303 		add	r3, r3, r3, lsl #1
 2498 00b6 56F82320 		ldr	r2, [r6, r3, lsl #2]
 2499 00ba 2946     		mov	r1, r5
 2500 00bc 0198     		ldr	r0, [sp, #4]
 2501 00be FFF7FEFF 		bl	BSP_LCD_DrawPixel
 2502 00c2 3B68     		ldr	r3, [r7]
 2503 00c4 03EB4303 		add	r3, r3, r3, lsl #1
 2504 00c8 56F82320 		ldr	r2, [r6, r3, lsl #2]
 2505 00cc 2946     		mov	r1, r5
 2506 00ce 0298     		ldr	r0, [sp, #8]
 2507 00d0 FFF7FEFF 		bl	BSP_LCD_DrawPixel
 2508 00d4 5444     		add	r4, r4, r10
 2509 00d6 A4B2     		uxth	r4, r4
 2510 00d8 3B68     		ldr	r3, [r7]
 2511 00da 03EB4303 		add	r3, r3, r3, lsl #1
 2512 00de 56F82320 		ldr	r2, [r6, r3, lsl #2]
 2513 00e2 2146     		mov	r1, r4
 2514 00e4 0398     		ldr	r0, [sp, #12]
 2515 00e6 FFF7FEFF 		bl	BSP_LCD_DrawPixel
 2516 00ea 3B68     		ldr	r3, [r7]
 2517 00ec 03EB4303 		add	r3, r3, r3, lsl #1
 2518 00f0 56F82320 		ldr	r2, [r6, r3, lsl #2]
 2519 00f4 2146     		mov	r1, r4
 2520 00f6 4046     		mov	r0, r8
 2521 00f8 FFF7FEFF 		bl	BSP_LCD_DrawPixel
 2522 00fc 059B     		ldr	r3, [sp, #20]
 2523 00fe 002B     		cmp	r3, #0
 2524 0100 8BDB     		blt	.L294
 2525 0102 009A     		ldr	r2, [sp]
 2526 0104 A9EB0203 		sub	r3, r9, r2
 2527 0108 0599     		ldr	r1, [sp, #20]
 2528 010a 01EB8303 		add	r3, r1, r3, lsl #2
 2529 010e 0A33     		adds	r3, r3, #10
 2530 0110 0593     		str	r3, [sp, #20]
 2531 0112 531E     		subs	r3, r2, #1
 2532 0114 0093     		str	r3, [sp]
 2533 0116 84E7     		b	.L290
 2534              	.L293:
 2535 0118 07B0     		add	sp, sp, #28
 2536              		@ sp needed
 2537 011a BDE8F08F 		pop	{r4, r5, r6, r7, r8, r9, r10, fp, pc}
 2538              	.L296:
 2539 011e 00BF     		.align	2
 2540              	.L295:
 2541 0120 00000000 		.word	DrawProp
 2542 0124 00000000 		.word	ActiveLayer
 2544              		.section	.text.BSP_LCD_FillCircle,"ax",%progbits
 2545              		.align	1
 2546              		.global	BSP_LCD_FillCircle
 2547              		.syntax unified
 2548              		.thumb
 2549              		.thumb_func
 2551              	BSP_LCD_FillCircle:
 2552              		@ args = 0, pretend = 0, frame = 8
 2553              		@ frame_needed = 0, uses_anonymous_args = 0
 2554 0000 2DE9F04F 		push	{r4, r5, r6, r7, r8, r9, r10, fp, lr}
ARM GAS  /var/folders/0f/x4_g94q9649fs6s33cksjfb00000gn/T//ccfL3aoH.s 			page 44


 2555 0004 83B0     		sub	sp, sp, #12
 2556 0006 8246     		mov	r10, r0
 2557 0008 8946     		mov	r9, r1
 2558 000a 1546     		mov	r5, r2
 2559 000c 0192     		str	r2, [sp, #4]
 2560 000e 5600     		lsls	r6, r2, #1
 2561 0010 C6F10306 		rsb	r6, r6, #3
 2562 0014 2F4B     		ldr	r3, .L309
 2563 0016 1B68     		ldr	r3, [r3]
 2564 0018 03EB4303 		add	r3, r3, r3, lsl #1
 2565 001c 2E4A     		ldr	r2, .L309+4
 2566 001e 52F82300 		ldr	r0, [r2, r3, lsl #2]
 2567 0022 FFF7FEFF 		bl	BSP_LCD_SetTextColor
 2568 0026 0024     		movs	r4, #0
 2569 0028 33E0     		b	.L298
 2570              	.L306:
 2571 002a AFB2     		uxth	r7, r5
 2572 002c AAEB070B 		sub	fp, r10, r7
 2573 0030 1FFA8BFB 		uxth	fp, fp
 2574 0034 1FFA84F8 		uxth	r8, r4
 2575 0038 7F00     		lsls	r7, r7, #1
 2576 003a BFB2     		uxth	r7, r7
 2577 003c 08EB0901 		add	r1, r8, r9
 2578 0040 3A46     		mov	r2, r7
 2579 0042 89B2     		uxth	r1, r1
 2580 0044 5846     		mov	r0, fp
 2581 0046 FFF7FEFF 		bl	BSP_LCD_DrawHLine
 2582 004a A9EB0801 		sub	r1, r9, r8
 2583 004e 3A46     		mov	r2, r7
 2584 0050 89B2     		uxth	r1, r1
 2585 0052 5846     		mov	r0, fp
 2586 0054 FFF7FEFF 		bl	BSP_LCD_DrawHLine
 2587 0058 1FE0     		b	.L299
 2588              	.L307:
 2589 005a A7B2     		uxth	r7, r4
 2590 005c AAEB070B 		sub	fp, r10, r7
 2591 0060 1FFA8BFB 		uxth	fp, fp
 2592 0064 1FFA85F8 		uxth	r8, r5
 2593 0068 7F00     		lsls	r7, r7, #1
 2594 006a BFB2     		uxth	r7, r7
 2595 006c A9EB0801 		sub	r1, r9, r8
 2596 0070 3A46     		mov	r2, r7
 2597 0072 89B2     		uxth	r1, r1
 2598 0074 5846     		mov	r0, fp
 2599 0076 FFF7FEFF 		bl	BSP_LCD_DrawHLine
 2600 007a 08EB0901 		add	r1, r8, r9
 2601 007e 3A46     		mov	r2, r7
 2602 0080 89B2     		uxth	r1, r1
 2603 0082 5846     		mov	r0, fp
 2604 0084 FFF7FEFF 		bl	BSP_LCD_DrawHLine
 2605 0088 09E0     		b	.L300
 2606              	.L308:
 2607 008a 06EB8406 		add	r6, r6, r4, lsl #2
 2608 008e 0636     		adds	r6, r6, #6
 2609              	.L302:
 2610 0090 0134     		adds	r4, r4, #1
 2611              	.L298:
ARM GAS  /var/folders/0f/x4_g94q9649fs6s33cksjfb00000gn/T//ccfL3aoH.s 			page 45


 2612 0092 AC42     		cmp	r4, r5
 2613 0094 0CD8     		bhi	.L305
 2614 0096 002D     		cmp	r5, #0
 2615 0098 C7D1     		bne	.L306
 2616              	.L299:
 2617 009a 002C     		cmp	r4, #0
 2618 009c DDD1     		bne	.L307
 2619              	.L300:
 2620 009e 002E     		cmp	r6, #0
 2621 00a0 F3DB     		blt	.L308
 2622 00a2 631B     		subs	r3, r4, r5
 2623 00a4 06EB8303 		add	r3, r6, r3, lsl #2
 2624 00a8 03F10A06 		add	r6, r3, #10
 2625 00ac 013D     		subs	r5, r5, #1
 2626 00ae EFE7     		b	.L302
 2627              	.L305:
 2628 00b0 084B     		ldr	r3, .L309
 2629 00b2 1B68     		ldr	r3, [r3]
 2630 00b4 03EB4303 		add	r3, r3, r3, lsl #1
 2631 00b8 074A     		ldr	r2, .L309+4
 2632 00ba 52F82300 		ldr	r0, [r2, r3, lsl #2]
 2633 00be FFF7FEFF 		bl	BSP_LCD_SetTextColor
 2634 00c2 019A     		ldr	r2, [sp, #4]
 2635 00c4 4946     		mov	r1, r9
 2636 00c6 5046     		mov	r0, r10
 2637 00c8 FFF7FEFF 		bl	BSP_LCD_DrawCircle
 2638 00cc 03B0     		add	sp, sp, #12
 2639              		@ sp needed
 2640 00ce BDE8F08F 		pop	{r4, r5, r6, r7, r8, r9, r10, fp, pc}
 2641              	.L310:
 2642 00d2 00BF     		.align	2
 2643              	.L309:
 2644 00d4 00000000 		.word	ActiveLayer
 2645 00d8 00000000 		.word	DrawProp
 2647              		.section	.text.BSP_LCD_DrawEllipse,"ax",%progbits
 2648              		.align	1
 2649              		.global	BSP_LCD_DrawEllipse
 2650              		.syntax unified
 2651              		.thumb
 2652              		.thumb_func
 2654              	BSP_LCD_DrawEllipse:
 2655              		@ args = 0, pretend = 0, frame = 24
 2656              		@ frame_needed = 0, uses_anonymous_args = 0
 2657 0000 2DE9F04F 		push	{r4, r5, r6, r7, r8, r9, r10, fp, lr}
 2658 0004 2DED028B 		vpush.64	{d8}
 2659 0008 87B0     		sub	sp, sp, #28
 2660 000a 0490     		str	r0, [sp, #16]
 2661 000c 0591     		str	r1, [sp, #20]
 2662 000e C3F1000B 		rsb	fp, r3, #0
 2663 0012 C2F10101 		rsb	r1, r2, #1
 2664 0016 4D00     		lsls	r5, r1, #1
 2665 0018 07EE902A 		vmov	s15, r2	@ int
 2666 001c F8EEE77A 		vcvt.f32.s32	s15, s15
 2667 0020 07EE103A 		vmov	s14, r3	@ int
 2668 0024 B8EEC77A 		vcvt.f32.s32	s14, s14
 2669 0028 87EE278A 		vdiv.f32	s16, s14, s15
 2670 002c 0026     		movs	r6, #0
ARM GAS  /var/folders/0f/x4_g94q9649fs6s33cksjfb00000gn/T//ccfL3aoH.s 			page 46


 2671 002e 0396     		str	r6, [sp, #12]
 2672 0030 0BE0     		b	.L314
 2673              	.L315:
 2674 0032 2B46     		mov	r3, r5
 2675              	.L312:
 2676 0034 AB45     		cmp	fp, r5
 2677 0036 63DA     		bge	.L317
 2678 0038 0BF1010B 		add	fp, fp, #1
 2679 003c 4FEA4B05 		lsl	r5, fp, #1
 2680 0040 0135     		adds	r5, r5, #1
 2681 0042 1D44     		add	r5, r5, r3
 2682              	.L313:
 2683 0044 BBF1000F 		cmp	fp, #0
 2684 0048 5CDC     		bgt	.L319
 2685              	.L314:
 2686 004a BDF81030 		ldrh	r3, [sp, #16]
 2687 004e DDED037A 		vldr.32	s15, [sp, #12]	@ int
 2688 0052 B8EEE77A 		vcvt.f32.s32	s14, s15
 2689 0056 C7EE087A 		vdiv.f32	s15, s14, s16
 2690 005a FCEEE77A 		vcvt.u32.f32	s15, s15
 2691 005e 17EE902A 		vmov	r2, s15	@ int
 2692 0062 94B2     		uxth	r4, r2
 2693 0064 0193     		str	r3, [sp, #4]
 2694 0066 1E1B     		subs	r6, r3, r4
 2695 0068 B6B2     		uxth	r6, r6
 2696 006a BDF81430 		ldrh	r3, [sp, #20]
 2697 006e 1FFA8BFA 		uxth	r10, fp
 2698 0072 0293     		str	r3, [sp, #8]
 2699 0074 03EB0A09 		add	r9, r3, r10
 2700 0078 1FFA89F9 		uxth	r9, r9
 2701 007c 244F     		ldr	r7, .L320
 2702 007e DFF89480 		ldr	r8, .L320+4
 2703 0082 D8F80030 		ldr	r3, [r8]
 2704 0086 03EB4303 		add	r3, r3, r3, lsl #1
 2705 008a 57F82320 		ldr	r2, [r7, r3, lsl #2]
 2706 008e 4946     		mov	r1, r9
 2707 0090 3046     		mov	r0, r6
 2708 0092 FFF7FEFF 		bl	BSP_LCD_DrawPixel
 2709 0096 019B     		ldr	r3, [sp, #4]
 2710 0098 1C44     		add	r4, r4, r3
 2711 009a A4B2     		uxth	r4, r4
 2712 009c D8F80030 		ldr	r3, [r8]
 2713 00a0 03EB4303 		add	r3, r3, r3, lsl #1
 2714 00a4 57F82320 		ldr	r2, [r7, r3, lsl #2]
 2715 00a8 4946     		mov	r1, r9
 2716 00aa 2046     		mov	r0, r4
 2717 00ac FFF7FEFF 		bl	BSP_LCD_DrawPixel
 2718 00b0 029A     		ldr	r2, [sp, #8]
 2719 00b2 A2EB0A09 		sub	r9, r2, r10
 2720 00b6 1FFA89F9 		uxth	r9, r9
 2721 00ba D8F80030 		ldr	r3, [r8]
 2722 00be 03EB4303 		add	r3, r3, r3, lsl #1
 2723 00c2 57F82320 		ldr	r2, [r7, r3, lsl #2]
 2724 00c6 4946     		mov	r1, r9
 2725 00c8 2046     		mov	r0, r4
 2726 00ca FFF7FEFF 		bl	BSP_LCD_DrawPixel
 2727 00ce D8F80030 		ldr	r3, [r8]
ARM GAS  /var/folders/0f/x4_g94q9649fs6s33cksjfb00000gn/T//ccfL3aoH.s 			page 47


 2728 00d2 03EB4303 		add	r3, r3, r3, lsl #1
 2729 00d6 57F82320 		ldr	r2, [r7, r3, lsl #2]
 2730 00da 4946     		mov	r1, r9
 2731 00dc 3046     		mov	r0, r6
 2732 00de FFF7FEFF 		bl	BSP_LCD_DrawPixel
 2733 00e2 039A     		ldr	r2, [sp, #12]
 2734 00e4 AA42     		cmp	r2, r5
 2735 00e6 A4DB     		blt	.L315
 2736 00e8 0132     		adds	r2, r2, #1
 2737 00ea 0392     		str	r2, [sp, #12]
 2738 00ec 5300     		lsls	r3, r2, #1
 2739 00ee 0133     		adds	r3, r3, #1
 2740 00f0 2B44     		add	r3, r3, r5
 2741 00f2 12EB0B0F 		cmn	r2, fp
 2742 00f6 9DD1     		bne	.L312
 2743 00f8 AB45     		cmp	fp, r5
 2744 00fa 9BDB     		blt	.L312
 2745 00fc 0025     		movs	r5, #0
 2746 00fe 99E7     		b	.L312
 2747              	.L317:
 2748 0100 1D46     		mov	r5, r3
 2749 0102 9FE7     		b	.L313
 2750              	.L319:
 2751 0104 07B0     		add	sp, sp, #28
 2752              		@ sp needed
 2753 0106 BDEC028B 		vldm	sp!, {d8}
 2754 010a BDE8F08F 		pop	{r4, r5, r6, r7, r8, r9, r10, fp, pc}
 2755              	.L321:
 2756 010e 00BF     		.align	2
 2757              	.L320:
 2758 0110 00000000 		.word	DrawProp
 2759 0114 00000000 		.word	ActiveLayer
 2761              		.section	.bss.PeriphClkInitStruct.0,"aw",%nobits
 2762              		.align	2
 2765              	PeriphClkInitStruct.0:
 2766 0000 00000000 		.space	144
 2766      00000000 
 2766      00000000 
 2766      00000000 
 2766      00000000 
 2767              		.section	.bss.DrawProp,"aw",%nobits
 2768              		.align	2
 2771              	DrawProp:
 2772 0000 00000000 		.space	24
 2772      00000000 
 2772      00000000 
 2772      00000000 
 2772      00000000 
 2773              		.section	.bss.ActiveLayer,"aw",%nobits
 2774              		.align	2
 2777              	ActiveLayer:
 2778 0000 00000000 		.space	4
 2779              		.global	Lcd_Driver_Type
 2780              		.section	.bss.Lcd_Driver_Type,"aw",%nobits
 2783              	Lcd_Driver_Type:
 2784 0000 00       		.space	1
 2785              		.global	lcd_y_size
ARM GAS  /var/folders/0f/x4_g94q9649fs6s33cksjfb00000gn/T//ccfL3aoH.s 			page 48


 2786              		.section	.data.lcd_y_size,"aw"
 2787              		.align	2
 2790              	lcd_y_size:
 2791 0000 E0010000 		.word	480
 2792              		.global	lcd_x_size
 2793              		.section	.data.lcd_x_size,"aw"
 2794              		.align	2
 2797              	lcd_x_size:
 2798 0000 20030000 		.word	800
 2799              		.global	hdsi_discovery
 2800              		.section	.bss.hdsi_discovery,"aw",%nobits
 2801              		.align	2
 2804              	hdsi_discovery:
 2805 0000 00000000 		.space	28
 2805      00000000 
 2805      00000000 
 2805      00000000 
 2805      00000000 
 2806              		.global	hltdc_discovery
 2807              		.section	.bss.hltdc_discovery,"aw",%nobits
 2808              		.align	2
 2811              	hltdc_discovery:
 2812 0000 00000000 		.space	168
 2812      00000000 
 2812      00000000 
 2812      00000000 
 2812      00000000 
 2813              		.global	hdma2d_discovery
 2814              		.section	.bss.hdma2d_discovery,"aw",%nobits
 2815              		.align	2
 2818              	hdma2d_discovery:
 2819 0000 00000000 		.space	88
 2819      00000000 
 2819      00000000 
 2819      00000000 
 2819      00000000 
 2820              		.section	.bss.hdsivideo_handle,"aw",%nobits
 2821              		.align	2
 2824              	hdsivideo_handle:
 2825 0000 00000000 		.space	108
 2825      00000000 
 2825      00000000 
 2825      00000000 
 2825      00000000 
 2826              		.global	Font8
 2827              		.section	.data.Font8,"aw"
 2828              		.align	2
 2831              	Font8:
 2832 0000 00000000 		.word	Font8_Table
 2833 0004 0500     		.short	5
 2834 0006 0800     		.short	8
 2835              		.section	.rodata.Font8_Table,"a"
 2836              		.align	2
 2839              	Font8_Table:
 2840 0000 00       		.space	1
 2841              		.global	Font12
 2842              		.section	.data.Font12,"aw"
ARM GAS  /var/folders/0f/x4_g94q9649fs6s33cksjfb00000gn/T//ccfL3aoH.s 			page 49


 2843              		.align	2
 2846              	Font12:
 2847 0000 00000000 		.word	Font12_Table
 2848 0004 0700     		.short	7
 2849 0006 0C00     		.short	12
 2850              		.section	.rodata.Font12_Table,"a"
 2851              		.align	2
 2854              	Font12_Table:
 2855 0000 00       		.space	1
 2856              		.global	Font16
 2857              		.section	.data.Font16,"aw"
 2858              		.align	2
 2861              	Font16:
 2862 0000 00000000 		.word	Font16_Table
 2863 0004 0B00     		.short	11
 2864 0006 1000     		.short	16
 2865              		.section	.rodata.Font16_Table,"a"
 2866              		.align	2
 2869              	Font16_Table:
 2870 0000 00       		.space	1
 2871              		.global	Font20
 2872              		.section	.data.Font20,"aw"
 2873              		.align	2
 2876              	Font20:
 2877 0000 00000000 		.word	Font20_Table
 2878 0004 0E00     		.short	14
 2879 0006 1400     		.short	20
 2880              		.section	.rodata.Font20_Table,"a"
 2881              		.align	2
 2884              	Font20_Table:
 2885 0000 00       		.space	1
 2886              		.global	Font24
 2887              		.section	.data.Font24,"aw"
 2888              		.align	2
 2891              	Font24:
 2892 0000 00000000 		.word	Font24_Table
 2893 0004 1100     		.short	17
 2894 0006 1800     		.short	24
 2895              		.section	.rodata.Font24_Table,"a"
 2896              		.align	2
 2899              	Font24_Table:
 2900 0000 00000000 		.space	4
 2901              		.ident	"GCC: (Arm GNU Toolchain 14.2.Rel1 (Build arm-14.52)) 14.2.1 20241119"
ARM GAS  /var/folders/0f/x4_g94q9649fs6s33cksjfb00000gn/T//ccfL3aoH.s 			page 50

