ARM GAS  /var/folders/0f/x4_g94q9649fs6s33cksjfb00000gn/T//ccYp9ESl.s 			page 1


   1              		.cpu cortex-m7
   2              		.arch armv7e-m
   3              		.fpu fpv5-d16
   4              		.eabi_attribute 28, 1
   5              		.eabi_attribute 20, 1
   6              		.eabi_attribute 21, 1
   7              		.eabi_attribute 23, 3
   8              		.eabi_attribute 24, 1
   9              		.eabi_attribute 25, 1
  10              		.eabi_attribute 26, 1
  11              		.eabi_attribute 30, 1
  12              		.eabi_attribute 34, 1
  13              		.eabi_attribute 18, 4
  14              		.file	"timers.c"
  15              		.text
  16              		.section	.text.prvGetNextExpireTime,"ax",%progbits
  17              		.align	1
  18              		.syntax unified
  19              		.thumb
  20              		.thumb_func
  22              	prvGetNextExpireTime:
  23              		@ args = 0, pretend = 0, frame = 0
  24              		@ frame_needed = 0, uses_anonymous_args = 0
  25              		@ link register save eliminated.
  26 0000 064B     		ldr	r3, .L6
  27 0002 1A68     		ldr	r2, [r3]
  28 0004 1368     		ldr	r3, [r2]
  29 0006 2BB9     		cbnz	r3, .L4
  30 0008 0123     		movs	r3, #1
  31              	.L2:
  32 000a 0360     		str	r3, [r0]
  33 000c 23B9     		cbnz	r3, .L5
  34 000e D368     		ldr	r3, [r2, #12]
  35 0010 1868     		ldr	r0, [r3]
  36 0012 7047     		bx	lr
  37              	.L4:
  38 0014 0023     		movs	r3, #0
  39 0016 F8E7     		b	.L2
  40              	.L5:
  41 0018 0020     		movs	r0, #0
  42 001a 7047     		bx	lr
  43              	.L7:
  44              		.align	2
  45              	.L6:
  46 001c 00000000 		.word	pxCurrentTimerList
  48              		.section	.text.prvInsertTimerInActiveList,"ax",%progbits
  49              		.align	1
  50              		.syntax unified
  51              		.thumb
  52              		.thumb_func
  54              	prvInsertTimerInActiveList:
  55              		@ args = 0, pretend = 0, frame = 0
  56              		@ frame_needed = 0, uses_anonymous_args = 0
  57 0000 08B5     		push	{r3, lr}
  58 0002 4160     		str	r1, [r0, #4]
  59 0004 0061     		str	r0, [r0, #16]
  60 0006 9142     		cmp	r1, r2
ARM GAS  /var/folders/0f/x4_g94q9649fs6s33cksjfb00000gn/T//ccYp9ESl.s 			page 2


  61 0008 0CD8     		bhi	.L9
  62 000a D21A     		subs	r2, r2, r3
  63 000c 8369     		ldr	r3, [r0, #24]
  64 000e 9A42     		cmp	r2, r3
  65 0010 01D3     		bcc	.L14
  66 0012 0120     		movs	r0, #1
  67              	.L8:
  68 0014 08BD     		pop	{r3, pc}
  69              	.L14:
  70 0016 011D     		adds	r1, r0, #4
  71 0018 0B4B     		ldr	r3, .L16
  72 001a 1868     		ldr	r0, [r3]
  73 001c FFF7FEFF 		bl	vListInsert
  74 0020 0020     		movs	r0, #0
  75 0022 F7E7     		b	.L8
  76              	.L9:
  77 0024 9A42     		cmp	r2, r3
  78 0026 2CBF     		ite	cs
  79 0028 0022     		movcs	r2, #0
  80 002a 0122     		movcc	r2, #1
  81 002c 9942     		cmp	r1, r3
  82 002e 38BF     		it	cc
  83 0030 0022     		movcc	r2, #0
  84 0032 0AB1     		cbz	r2, .L15
  85 0034 0120     		movs	r0, #1
  86 0036 EDE7     		b	.L8
  87              	.L15:
  88 0038 011D     		adds	r1, r0, #4
  89 003a 044B     		ldr	r3, .L16+4
  90 003c 1868     		ldr	r0, [r3]
  91 003e FFF7FEFF 		bl	vListInsert
  92 0042 0020     		movs	r0, #0
  93 0044 E6E7     		b	.L8
  94              	.L17:
  95 0046 00BF     		.align	2
  96              	.L16:
  97 0048 00000000 		.word	pxOverflowTimerList
  98 004c 00000000 		.word	pxCurrentTimerList
 100              		.section	.rodata.prvCheckForValidListAndQueue.str1.4,"aMS",%progbits,1
 101              		.align	2
 102              	.LC0:
 103 0000 546D7251 		.ascii	"TmrQ\000"
 103      00
 104              		.section	.text.prvCheckForValidListAndQueue,"ax",%progbits
 105              		.align	1
 106              		.syntax unified
 107              		.thumb
 108              		.thumb_func
 110              	prvCheckForValidListAndQueue:
 111              		@ args = 0, pretend = 0, frame = 0
 112              		@ frame_needed = 0, uses_anonymous_args = 0
 113 0000 30B5     		push	{r4, r5, lr}
 114 0002 83B0     		sub	sp, sp, #12
 115 0004 FFF7FEFF 		bl	vPortEnterCritical
 116 0008 114B     		ldr	r3, .L22
 117 000a 1B68     		ldr	r3, [r3]
 118 000c 1BB1     		cbz	r3, .L21
ARM GAS  /var/folders/0f/x4_g94q9649fs6s33cksjfb00000gn/T//ccYp9ESl.s 			page 3


 119              	.L19:
 120 000e FFF7FEFF 		bl	vPortExitCritical
 121 0012 03B0     		add	sp, sp, #12
 122              		@ sp needed
 123 0014 30BD     		pop	{r4, r5, pc}
 124              	.L21:
 125 0016 0F4D     		ldr	r5, .L22+4
 126 0018 2846     		mov	r0, r5
 127 001a FFF7FEFF 		bl	vListInitialise
 128 001e 0E4C     		ldr	r4, .L22+8
 129 0020 2046     		mov	r0, r4
 130 0022 FFF7FEFF 		bl	vListInitialise
 131 0026 0D4B     		ldr	r3, .L22+12
 132 0028 1D60     		str	r5, [r3]
 133 002a 0D4B     		ldr	r3, .L22+16
 134 002c 1C60     		str	r4, [r3]
 135 002e 0023     		movs	r3, #0
 136 0030 0093     		str	r3, [sp]
 137 0032 0C4B     		ldr	r3, .L22+20
 138 0034 0C4A     		ldr	r2, .L22+24
 139 0036 1021     		movs	r1, #16
 140 0038 0A20     		movs	r0, #10
 141 003a FFF7FEFF 		bl	xQueueGenericCreateStatic
 142 003e 044B     		ldr	r3, .L22
 143 0040 1860     		str	r0, [r3]
 144 0042 0028     		cmp	r0, #0
 145 0044 E3D0     		beq	.L19
 146 0046 0949     		ldr	r1, .L22+28
 147 0048 FFF7FEFF 		bl	vQueueAddToRegistry
 148 004c DFE7     		b	.L19
 149              	.L23:
 150 004e 00BF     		.align	2
 151              	.L22:
 152 0050 00000000 		.word	xTimerQueue
 153 0054 00000000 		.word	xActiveTimerList1
 154 0058 00000000 		.word	xActiveTimerList2
 155 005c 00000000 		.word	pxCurrentTimerList
 156 0060 00000000 		.word	pxOverflowTimerList
 157 0064 00000000 		.word	xStaticTimerQueue.0
 158 0068 00000000 		.word	ucStaticTimerQueueStorage.1
 159 006c 00000000 		.word	.LC0
 161              		.section	.text.prvInitialiseNewTimer,"ax",%progbits
 162              		.align	1
 163              		.syntax unified
 164              		.thumb
 165              		.thumb_func
 167              	prvInitialiseNewTimer:
 168              		@ args = 8, pretend = 0, frame = 0
 169              		@ frame_needed = 0, uses_anonymous_args = 0
 170 0000 2DE9F041 		push	{r4, r5, r6, r7, r8, lr}
 171 0004 079F     		ldr	r7, [sp, #28]
 172 0006 51B9     		cbnz	r1, .L25
 173              		.syntax unified
 174              	@ 195 "Middlewares/Third_Party/FreeRTOS/Source/portable/GCC/ARM_CM7/r0p1/portmacro.h" 1
 175 0008 4FF05003 			mov r3, #80												
 176 000c 72B6     		cpsid i													
 177 000e 83F31188 		msr basepri, r3											
ARM GAS  /var/folders/0f/x4_g94q9649fs6s33cksjfb00000gn/T//ccYp9ESl.s 			page 4


 178 0012 BFF36F8F 		isb														
 179 0016 BFF34F8F 		dsb														
 180 001a 62B6     		cpsie i													
 181              	
 182              	@ 0 "" 2
 183              		.thumb
 184              		.syntax unified
 185              	.L26:
 186 001c FEE7     		b	.L26
 187              	.L25:
 188 001e 0646     		mov	r6, r0
 189 0020 1446     		mov	r4, r2
 190 0022 1D46     		mov	r5, r3
 191 0024 8846     		mov	r8, r1
 192 0026 8FB1     		cbz	r7, .L24
 193 0028 FFF7FEFF 		bl	prvCheckForValidListAndQueue
 194 002c 3E60     		str	r6, [r7]
 195 002e C7F81880 		str	r8, [r7, #24]
 196 0032 FD61     		str	r5, [r7, #28]
 197 0034 069B     		ldr	r3, [sp, #24]
 198 0036 3B62     		str	r3, [r7, #32]
 199 0038 381D     		adds	r0, r7, #4
 200 003a FFF7FEFF 		bl	vListInitialiseItem
 201 003e 2CB1     		cbz	r4, .L24
 202 0040 97F82830 		ldrb	r3, [r7, #40]	@ zero_extendqisi2
 203 0044 43F00403 		orr	r3, r3, #4
 204 0048 87F82830 		strb	r3, [r7, #40]
 205              	.L24:
 206 004c BDE8F081 		pop	{r4, r5, r6, r7, r8, pc}
 208              		.section	.rodata.xTimerCreateTimerTask.str1.4,"aMS",%progbits,1
 209              		.align	2
 210              	.LC1:
 211 0000 546D7220 		.ascii	"Tmr Svc\000"
 211      53766300 
 212              		.section	.text.xTimerCreateTimerTask,"ax",%progbits
 213              		.align	1
 214              		.global	xTimerCreateTimerTask
 215              		.syntax unified
 216              		.thumb
 217              		.thumb_func
 219              	xTimerCreateTimerTask:
 220              		@ args = 0, pretend = 0, frame = 16
 221              		@ frame_needed = 0, uses_anonymous_args = 0
 222 0000 10B5     		push	{r4, lr}
 223 0002 88B0     		sub	sp, sp, #32
 224 0004 FFF7FEFF 		bl	prvCheckForValidListAndQueue
 225 0008 134B     		ldr	r3, .L35
 226 000a 1B68     		ldr	r3, [r3]
 227 000c CBB1     		cbz	r3, .L30
 228 000e 0024     		movs	r4, #0
 229 0010 0594     		str	r4, [sp, #20]
 230 0012 0694     		str	r4, [sp, #24]
 231 0014 07AA     		add	r2, sp, #28
 232 0016 06A9     		add	r1, sp, #24
 233 0018 05A8     		add	r0, sp, #20
 234 001a FFF7FEFF 		bl	vApplicationGetTimerTaskMemory
 235 001e 059B     		ldr	r3, [sp, #20]
ARM GAS  /var/folders/0f/x4_g94q9649fs6s33cksjfb00000gn/T//ccYp9ESl.s 			page 5


 236 0020 0293     		str	r3, [sp, #8]
 237 0022 069B     		ldr	r3, [sp, #24]
 238 0024 0193     		str	r3, [sp, #4]
 239 0026 0223     		movs	r3, #2
 240 0028 0093     		str	r3, [sp]
 241 002a 2346     		mov	r3, r4
 242 002c 079A     		ldr	r2, [sp, #28]
 243 002e 0B49     		ldr	r1, .L35+4
 244 0030 0B48     		ldr	r0, .L35+8
 245 0032 FFF7FEFF 		bl	xTaskCreateStatic
 246 0036 0B4B     		ldr	r3, .L35+12
 247 0038 1860     		str	r0, [r3]
 248 003a 10B1     		cbz	r0, .L30
 249 003c 0120     		movs	r0, #1
 250 003e 08B0     		add	sp, sp, #32
 251              		@ sp needed
 252 0040 10BD     		pop	{r4, pc}
 253              	.L30:
 254              		.syntax unified
 255              	@ 195 "Middlewares/Third_Party/FreeRTOS/Source/portable/GCC/ARM_CM7/r0p1/portmacro.h" 1
 256 0042 4FF05003 			mov r3, #80												
 257 0046 72B6     		cpsid i													
 258 0048 83F31188 		msr basepri, r3											
 259 004c BFF36F8F 		isb														
 260 0050 BFF34F8F 		dsb														
 261 0054 62B6     		cpsie i													
 262              	
 263              	@ 0 "" 2
 264              		.thumb
 265              		.syntax unified
 266              	.L32:
 267 0056 FEE7     		b	.L32
 268              	.L36:
 269              		.align	2
 270              	.L35:
 271 0058 00000000 		.word	xTimerQueue
 272 005c 00000000 		.word	.LC1
 273 0060 00000000 		.word	prvTimerTask
 274 0064 00000000 		.word	xTimerTaskHandle
 276              		.section	.text.xTimerCreate,"ax",%progbits
 277              		.align	1
 278              		.global	xTimerCreate
 279              		.syntax unified
 280              		.thumb
 281              		.thumb_func
 283              	xTimerCreate:
 284              		@ args = 4, pretend = 0, frame = 0
 285              		@ frame_needed = 0, uses_anonymous_args = 0
 286 0000 2DE9F041 		push	{r4, r5, r6, r7, r8, lr}
 287 0004 82B0     		sub	sp, sp, #8
 288 0006 0446     		mov	r4, r0
 289 0008 8846     		mov	r8, r1
 290 000a 1746     		mov	r7, r2
 291 000c 1D46     		mov	r5, r3
 292 000e 2C20     		movs	r0, #44
 293 0010 FFF7FEFF 		bl	pvPortMalloc
 294 0014 0646     		mov	r6, r0
ARM GAS  /var/folders/0f/x4_g94q9649fs6s33cksjfb00000gn/T//ccYp9ESl.s 			page 6


 295 0016 58B1     		cbz	r0, .L37
 296 0018 0023     		movs	r3, #0
 297 001a 80F82830 		strb	r3, [r0, #40]
 298 001e 0190     		str	r0, [sp, #4]
 299 0020 089B     		ldr	r3, [sp, #32]
 300 0022 0093     		str	r3, [sp]
 301 0024 2B46     		mov	r3, r5
 302 0026 3A46     		mov	r2, r7
 303 0028 4146     		mov	r1, r8
 304 002a 2046     		mov	r0, r4
 305 002c FFF7FEFF 		bl	prvInitialiseNewTimer
 306              	.L37:
 307 0030 3046     		mov	r0, r6
 308 0032 02B0     		add	sp, sp, #8
 309              		@ sp needed
 310 0034 BDE8F081 		pop	{r4, r5, r6, r7, r8, pc}
 312              		.section	.text.xTimerCreateStatic,"ax",%progbits
 313              		.align	1
 314              		.global	xTimerCreateStatic
 315              		.syntax unified
 316              		.thumb
 317              		.thumb_func
 319              	xTimerCreateStatic:
 320              		@ args = 8, pretend = 0, frame = 8
 321              		@ frame_needed = 0, uses_anonymous_args = 0
 322 0000 10B5     		push	{r4, lr}
 323 0002 84B0     		sub	sp, sp, #16
 324 0004 8446     		mov	ip, r0
 325 0006 2C20     		movs	r0, #44
 326 0008 0390     		str	r0, [sp, #12]
 327 000a 0398     		ldr	r0, [sp, #12]
 328 000c 2C28     		cmp	r0, #44
 329 000e 0AD0     		beq	.L41
 330              		.syntax unified
 331              	@ 195 "Middlewares/Third_Party/FreeRTOS/Source/portable/GCC/ARM_CM7/r0p1/portmacro.h" 1
 332 0010 4FF05003 			mov r3, #80												
 333 0014 72B6     		cpsid i													
 334 0016 83F31188 		msr basepri, r3											
 335 001a BFF36F8F 		isb														
 336 001e BFF34F8F 		dsb														
 337 0022 62B6     		cpsie i													
 338              	
 339              	@ 0 "" 2
 340              		.thumb
 341              		.syntax unified
 342              	.L42:
 343 0024 FEE7     		b	.L42
 344              	.L41:
 345 0026 0398     		ldr	r0, [sp, #12]
 346 0028 0798     		ldr	r0, [sp, #28]
 347 002a 60B1     		cbz	r0, .L46
 348 002c 0220     		movs	r0, #2
 349 002e 079C     		ldr	r4, [sp, #28]
 350 0030 84F82800 		strb	r0, [r4, #40]
 351 0034 0194     		str	r4, [sp, #4]
 352 0036 0698     		ldr	r0, [sp, #24]
 353 0038 0090     		str	r0, [sp]
ARM GAS  /var/folders/0f/x4_g94q9649fs6s33cksjfb00000gn/T//ccYp9ESl.s 			page 7


 354 003a 6046     		mov	r0, ip
 355 003c FFF7FEFF 		bl	prvInitialiseNewTimer
 356 0040 0798     		ldr	r0, [sp, #28]
 357 0042 04B0     		add	sp, sp, #16
 358              		@ sp needed
 359 0044 10BD     		pop	{r4, pc}
 360              	.L46:
 361              		.syntax unified
 362              	@ 195 "Middlewares/Third_Party/FreeRTOS/Source/portable/GCC/ARM_CM7/r0p1/portmacro.h" 1
 363 0046 4FF05003 			mov r3, #80												
 364 004a 72B6     		cpsid i													
 365 004c 83F31188 		msr basepri, r3											
 366 0050 BFF36F8F 		isb														
 367 0054 BFF34F8F 		dsb														
 368 0058 62B6     		cpsie i													
 369              	
 370              	@ 0 "" 2
 371              		.thumb
 372              		.syntax unified
 373              	.L44:
 374 005a FEE7     		b	.L44
 376              		.section	.text.xTimerGenericCommand,"ax",%progbits
 377              		.align	1
 378              		.global	xTimerGenericCommand
 379              		.syntax unified
 380              		.thumb
 381              		.thumb_func
 383              	xTimerGenericCommand:
 384              		@ args = 4, pretend = 0, frame = 16
 385              		@ frame_needed = 0, uses_anonymous_args = 0
 386 0000 B8B1     		cbz	r0, .L58
 387 0002 9C46     		mov	ip, r3
 388 0004 0346     		mov	r3, r0
 389 0006 1948     		ldr	r0, .L60
 390 0008 0068     		ldr	r0, [r0]
 391 000a 68B3     		cbz	r0, .L53
 392 000c 00B5     		push	{lr}
 393 000e 85B0     		sub	sp, sp, #20
 394 0010 0091     		str	r1, [sp]
 395 0012 0192     		str	r2, [sp, #4]
 396 0014 0293     		str	r3, [sp, #8]
 397 0016 0529     		cmp	r1, #5
 398 0018 1EDC     		bgt	.L51
 399 001a FFF7FEFF 		bl	xTaskGetSchedulerState
 400 001e 0228     		cmp	r0, #2
 401 0020 12D0     		beq	.L59
 402 0022 0023     		movs	r3, #0
 403 0024 1A46     		mov	r2, r3
 404 0026 6946     		mov	r1, sp
 405 0028 1048     		ldr	r0, .L60
 406 002a 0068     		ldr	r0, [r0]
 407 002c FFF7FEFF 		bl	xQueueGenericSend
 408 0030 17E0     		b	.L47
 409              	.L58:
 410              		.syntax unified
 411              	@ 195 "Middlewares/Third_Party/FreeRTOS/Source/portable/GCC/ARM_CM7/r0p1/portmacro.h" 1
 412 0032 4FF05003 			mov r3, #80												
ARM GAS  /var/folders/0f/x4_g94q9649fs6s33cksjfb00000gn/T//ccYp9ESl.s 			page 8


 413 0036 72B6     		cpsid i													
 414 0038 83F31188 		msr basepri, r3											
 415 003c BFF36F8F 		isb														
 416 0040 BFF34F8F 		dsb														
 417 0044 62B6     		cpsie i													
 418              	
 419              	@ 0 "" 2
 420              		.thumb
 421              		.syntax unified
 422              	.L49:
 423 0046 FEE7     		b	.L49
 424              	.L59:
 425 0048 0023     		movs	r3, #0
 426 004a 069A     		ldr	r2, [sp, #24]
 427 004c 6946     		mov	r1, sp
 428 004e 0748     		ldr	r0, .L60
 429 0050 0068     		ldr	r0, [r0]
 430 0052 FFF7FEFF 		bl	xQueueGenericSend
 431 0056 04E0     		b	.L47
 432              	.L51:
 433 0058 0023     		movs	r3, #0
 434 005a 6246     		mov	r2, ip
 435 005c 6946     		mov	r1, sp
 436 005e FFF7FEFF 		bl	xQueueGenericSendFromISR
 437              	.L47:
 438 0062 05B0     		add	sp, sp, #20
 439              		@ sp needed
 440 0064 5DF804FB 		ldr	pc, [sp], #4
 441              	.L53:
 442 0068 0020     		movs	r0, #0
 443 006a 7047     		bx	lr
 444              	.L61:
 445              		.align	2
 446              	.L60:
 447 006c 00000000 		.word	xTimerQueue
 449              		.section	.text.prvSwitchTimerLists,"ax",%progbits
 450              		.align	1
 451              		.syntax unified
 452              		.thumb
 453              		.thumb_func
 455              	prvSwitchTimerLists:
 456              		@ args = 0, pretend = 0, frame = 0
 457              		@ frame_needed = 0, uses_anonymous_args = 0
 458 0000 70B5     		push	{r4, r5, r6, lr}
 459 0002 82B0     		sub	sp, sp, #8
 460              	.L64:
 461 0004 1C4B     		ldr	r3, .L71
 462 0006 1B68     		ldr	r3, [r3]
 463 0008 1A68     		ldr	r2, [r3]
 464 000a 72B3     		cbz	r2, .L70
 465 000c DB68     		ldr	r3, [r3, #12]
 466 000e 1E68     		ldr	r6, [r3]
 467 0010 DC68     		ldr	r4, [r3, #12]
 468 0012 251D     		adds	r5, r4, #4
 469 0014 2846     		mov	r0, r5
 470 0016 FFF7FEFF 		bl	uxListRemove
 471 001a 236A     		ldr	r3, [r4, #32]
ARM GAS  /var/folders/0f/x4_g94q9649fs6s33cksjfb00000gn/T//ccYp9ESl.s 			page 9


 472 001c 2046     		mov	r0, r4
 473 001e 9847     		blx	r3
 474 0020 94F82830 		ldrb	r3, [r4, #40]	@ zero_extendqisi2
 475 0024 13F0040F 		tst	r3, #4
 476 0028 ECD0     		beq	.L64
 477 002a A369     		ldr	r3, [r4, #24]
 478 002c 3344     		add	r3, r3, r6
 479 002e 9E42     		cmp	r6, r3
 480 0030 07D2     		bcs	.L65
 481 0032 6360     		str	r3, [r4, #4]
 482 0034 2461     		str	r4, [r4, #16]
 483 0036 2946     		mov	r1, r5
 484 0038 0F4B     		ldr	r3, .L71
 485 003a 1868     		ldr	r0, [r3]
 486 003c FFF7FEFF 		bl	vListInsert
 487 0040 E0E7     		b	.L64
 488              	.L65:
 489 0042 0021     		movs	r1, #0
 490 0044 0091     		str	r1, [sp]
 491 0046 0B46     		mov	r3, r1
 492 0048 3246     		mov	r2, r6
 493 004a 2046     		mov	r0, r4
 494 004c FFF7FEFF 		bl	xTimerGenericCommand
 495 0050 0028     		cmp	r0, #0
 496 0052 D7D1     		bne	.L64
 497              		.syntax unified
 498              	@ 195 "Middlewares/Third_Party/FreeRTOS/Source/portable/GCC/ARM_CM7/r0p1/portmacro.h" 1
 499 0054 4FF05003 			mov r3, #80												
 500 0058 72B6     		cpsid i													
 501 005a 83F31188 		msr basepri, r3											
 502 005e BFF36F8F 		isb														
 503 0062 BFF34F8F 		dsb														
 504 0066 62B6     		cpsie i													
 505              	
 506              	@ 0 "" 2
 507              		.thumb
 508              		.syntax unified
 509              	.L67:
 510 0068 FEE7     		b	.L67
 511              	.L70:
 512 006a 044A     		ldr	r2, .L71+4
 513 006c 1068     		ldr	r0, [r2]
 514 006e 0249     		ldr	r1, .L71
 515 0070 0860     		str	r0, [r1]
 516 0072 1360     		str	r3, [r2]
 517 0074 02B0     		add	sp, sp, #8
 518              		@ sp needed
 519 0076 70BD     		pop	{r4, r5, r6, pc}
 520              	.L72:
 521              		.align	2
 522              	.L71:
 523 0078 00000000 		.word	pxCurrentTimerList
 524 007c 00000000 		.word	pxOverflowTimerList
 526              		.section	.text.prvSampleTimeNow,"ax",%progbits
 527              		.align	1
 528              		.syntax unified
 529              		.thumb
ARM GAS  /var/folders/0f/x4_g94q9649fs6s33cksjfb00000gn/T//ccYp9ESl.s 			page 10


 530              		.thumb_func
 532              	prvSampleTimeNow:
 533              		@ args = 0, pretend = 0, frame = 0
 534              		@ frame_needed = 0, uses_anonymous_args = 0
 535 0000 38B5     		push	{r3, r4, r5, lr}
 536 0002 0546     		mov	r5, r0
 537 0004 FFF7FEFF 		bl	xTaskGetTickCount
 538 0008 0446     		mov	r4, r0
 539 000a 074B     		ldr	r3, .L78
 540 000c 1B68     		ldr	r3, [r3]
 541 000e 8342     		cmp	r3, r0
 542 0010 05D8     		bhi	.L77
 543 0012 0023     		movs	r3, #0
 544 0014 2B60     		str	r3, [r5]
 545              	.L75:
 546 0016 044B     		ldr	r3, .L78
 547 0018 1C60     		str	r4, [r3]
 548 001a 2046     		mov	r0, r4
 549 001c 38BD     		pop	{r3, r4, r5, pc}
 550              	.L77:
 551 001e FFF7FEFF 		bl	prvSwitchTimerLists
 552 0022 0123     		movs	r3, #1
 553 0024 2B60     		str	r3, [r5]
 554 0026 F6E7     		b	.L75
 555              	.L79:
 556              		.align	2
 557              	.L78:
 558 0028 00000000 		.word	xLastTime.2
 560              		.section	.text.prvProcessExpiredTimer,"ax",%progbits
 561              		.align	1
 562              		.syntax unified
 563              		.thumb
 564              		.thumb_func
 566              	prvProcessExpiredTimer:
 567              		@ args = 0, pretend = 0, frame = 0
 568              		@ frame_needed = 0, uses_anonymous_args = 0
 569 0000 70B5     		push	{r4, r5, r6, lr}
 570 0002 82B0     		sub	sp, sp, #8
 571 0004 0646     		mov	r6, r0
 572 0006 0D46     		mov	r5, r1
 573 0008 1849     		ldr	r1, .L86
 574 000a 0968     		ldr	r1, [r1]
 575 000c C968     		ldr	r1, [r1, #12]
 576 000e CC68     		ldr	r4, [r1, #12]
 577 0010 201D     		adds	r0, r4, #4
 578 0012 FFF7FEFF 		bl	uxListRemove
 579 0016 94F828C0 		ldrb	ip, [r4, #40]	@ zero_extendqisi2
 580 001a 1CF0040F 		tst	ip, #4
 581 001e 08D1     		bne	.L85
 582 0020 2CF0010C 		bic	ip, ip, #1
 583 0024 84F828C0 		strb	ip, [r4, #40]
 584              	.L82:
 585 0028 236A     		ldr	r3, [r4, #32]
 586 002a 2046     		mov	r0, r4
 587 002c 9847     		blx	r3
 588 002e 02B0     		add	sp, sp, #8
 589              		@ sp needed
ARM GAS  /var/folders/0f/x4_g94q9649fs6s33cksjfb00000gn/T//ccYp9ESl.s 			page 11


 590 0030 70BD     		pop	{r4, r5, r6, pc}
 591              	.L85:
 592 0032 A169     		ldr	r1, [r4, #24]
 593 0034 3346     		mov	r3, r6
 594 0036 2A46     		mov	r2, r5
 595 0038 3144     		add	r1, r1, r6
 596 003a 2046     		mov	r0, r4
 597 003c FFF7FEFF 		bl	prvInsertTimerInActiveList
 598 0040 0028     		cmp	r0, #0
 599 0042 F1D0     		beq	.L82
 600 0044 0021     		movs	r1, #0
 601 0046 0091     		str	r1, [sp]
 602 0048 0B46     		mov	r3, r1
 603 004a 3246     		mov	r2, r6
 604 004c 2046     		mov	r0, r4
 605 004e FFF7FEFF 		bl	xTimerGenericCommand
 606 0052 0028     		cmp	r0, #0
 607 0054 E8D1     		bne	.L82
 608              		.syntax unified
 609              	@ 195 "Middlewares/Third_Party/FreeRTOS/Source/portable/GCC/ARM_CM7/r0p1/portmacro.h" 1
 610 0056 4FF05003 			mov r3, #80												
 611 005a 72B6     		cpsid i													
 612 005c 83F31188 		msr basepri, r3											
 613 0060 BFF36F8F 		isb														
 614 0064 BFF34F8F 		dsb														
 615 0068 62B6     		cpsie i													
 616              	
 617              	@ 0 "" 2
 618              		.thumb
 619              		.syntax unified
 620              	.L83:
 621 006a FEE7     		b	.L83
 622              	.L87:
 623              		.align	2
 624              	.L86:
 625 006c 00000000 		.word	pxCurrentTimerList
 627              		.section	.text.prvProcessTimerOrBlockTask,"ax",%progbits
 628              		.align	1
 629              		.syntax unified
 630              		.thumb
 631              		.thumb_func
 633              	prvProcessTimerOrBlockTask:
 634              		@ args = 0, pretend = 0, frame = 8
 635              		@ frame_needed = 0, uses_anonymous_args = 0
 636 0000 70B5     		push	{r4, r5, r6, lr}
 637 0002 82B0     		sub	sp, sp, #8
 638 0004 0646     		mov	r6, r0
 639 0006 0C46     		mov	r4, r1
 640 0008 FFF7FEFF 		bl	vTaskSuspendAll
 641 000c 01A8     		add	r0, sp, #4
 642 000e FFF7FEFF 		bl	prvSampleTimeNow
 643 0012 019B     		ldr	r3, [sp, #4]
 644 0014 3BBB     		cbnz	r3, .L89
 645 0016 0546     		mov	r5, r0
 646 0018 B042     		cmp	r0, r6
 647 001a 28BF     		it	cs
 648 001c 002C     		cmpcs	r4, #0
ARM GAS  /var/folders/0f/x4_g94q9649fs6s33cksjfb00000gn/T//ccYp9ESl.s 			page 12


 649 001e 19D0     		beq	.L95
 650 0020 24B1     		cbz	r4, .L92
 651 0022 134A     		ldr	r2, .L96
 652 0024 1268     		ldr	r2, [r2]
 653 0026 1268     		ldr	r2, [r2]
 654 0028 DAB9     		cbnz	r2, .L93
 655 002a 0124     		movs	r4, #1
 656              	.L92:
 657 002c 2246     		mov	r2, r4
 658 002e 711B     		subs	r1, r6, r5
 659 0030 104B     		ldr	r3, .L96+4
 660 0032 1868     		ldr	r0, [r3]
 661 0034 FFF7FEFF 		bl	vQueueWaitForMessageRestricted
 662 0038 FFF7FEFF 		bl	xTaskResumeAll
 663 003c A8B9     		cbnz	r0, .L88
 664 003e 4FF0E023 		mov	r3, #-536813568
 665 0042 4FF08052 		mov	r2, #268435456
 666 0046 C3F8042D 		str	r2, [r3, #3332]
 667              		.syntax unified
 668              	@ 603 "Middlewares/Third_Party/FreeRTOS/Source/timers.c" 1
 669 004a BFF34F8F 		dsb
 670              	@ 0 "" 2
 671              	@ 603 "Middlewares/Third_Party/FreeRTOS/Source/timers.c" 1
 672 004e BFF36F8F 		isb
 673              	@ 0 "" 2
 674              		.thumb
 675              		.syntax unified
 676 0052 0AE0     		b	.L88
 677              	.L95:
 678 0054 FFF7FEFF 		bl	xTaskResumeAll
 679 0058 2946     		mov	r1, r5
 680 005a 3046     		mov	r0, r6
 681 005c FFF7FEFF 		bl	prvProcessExpiredTimer
 682 0060 03E0     		b	.L88
 683              	.L93:
 684 0062 1C46     		mov	r4, r3
 685 0064 E2E7     		b	.L92
 686              	.L89:
 687 0066 FFF7FEFF 		bl	xTaskResumeAll
 688              	.L88:
 689 006a 02B0     		add	sp, sp, #8
 690              		@ sp needed
 691 006c 70BD     		pop	{r4, r5, r6, pc}
 692              	.L97:
 693 006e 00BF     		.align	2
 694              	.L96:
 695 0070 00000000 		.word	pxOverflowTimerList
 696 0074 00000000 		.word	xTimerQueue
 698              		.section	.text.prvProcessReceivedCommands,"ax",%progbits
 699              		.align	1
 700              		.syntax unified
 701              		.thumb
 702              		.thumb_func
 704              	prvProcessReceivedCommands:
 705              		@ args = 0, pretend = 0, frame = 24
 706              		@ frame_needed = 0, uses_anonymous_args = 0
 707 0000 10B5     		push	{r4, lr}
ARM GAS  /var/folders/0f/x4_g94q9649fs6s33cksjfb00000gn/T//ccYp9ESl.s 			page 13


 708 0002 88B0     		sub	sp, sp, #32
 709 0004 02E0     		b	.L101
 710              	.L100:
 711 0006 049B     		ldr	r3, [sp, #16]
 712 0008 002B     		cmp	r3, #0
 713 000a 0FDA     		bge	.L117
 714              	.L101:
 715 000c 0022     		movs	r2, #0
 716 000e 04A9     		add	r1, sp, #16
 717 0010 3F4B     		ldr	r3, .L121
 718 0012 1868     		ldr	r0, [r3]
 719 0014 FFF7FEFF 		bl	xQueueReceive
 720 0018 0028     		cmp	r0, #0
 721 001a 76D0     		beq	.L118
 722 001c 049B     		ldr	r3, [sp, #16]
 723 001e 002B     		cmp	r3, #0
 724 0020 F1DA     		bge	.L100
 725 0022 0799     		ldr	r1, [sp, #28]
 726 0024 0698     		ldr	r0, [sp, #24]
 727 0026 059B     		ldr	r3, [sp, #20]
 728 0028 9847     		blx	r3
 729 002a ECE7     		b	.L100
 730              	.L117:
 731 002c 069C     		ldr	r4, [sp, #24]
 732 002e 6369     		ldr	r3, [r4, #20]
 733 0030 13B1     		cbz	r3, .L102
 734 0032 201D     		adds	r0, r4, #4
 735 0034 FFF7FEFF 		bl	uxListRemove
 736              	.L102:
 737 0038 03A8     		add	r0, sp, #12
 738 003a FFF7FEFF 		bl	prvSampleTimeNow
 739 003e 0246     		mov	r2, r0
 740 0040 049B     		ldr	r3, [sp, #16]
 741 0042 092B     		cmp	r3, #9
 742 0044 E2D8     		bhi	.L101
 743 0046 DFE803F0 		tbb	[pc, r3]
 744              	.L105:
 745 004a 05       		.byte	(.L107-.L105)/2
 746 004b 05       		.byte	(.L107-.L105)/2
 747 004c 05       		.byte	(.L107-.L105)/2
 748 004d 31       		.byte	(.L106-.L105)/2
 749 004e 38       		.byte	(.L104-.L105)/2
 750 004f 52       		.byte	(.L108-.L105)/2
 751 0050 05       		.byte	(.L107-.L105)/2
 752 0051 05       		.byte	(.L107-.L105)/2
 753 0052 31       		.byte	(.L106-.L105)/2
 754 0053 38       		.byte	(.L104-.L105)/2
 755              		.p2align 1
 756              	.L107:
 757 0054 94F82830 		ldrb	r3, [r4, #40]	@ zero_extendqisi2
 758 0058 43F00103 		orr	r3, r3, #1
 759 005c 84F82830 		strb	r3, [r4, #40]
 760 0060 059B     		ldr	r3, [sp, #20]
 761 0062 A169     		ldr	r1, [r4, #24]
 762 0064 1944     		add	r1, r1, r3
 763 0066 2046     		mov	r0, r4
 764 0068 FFF7FEFF 		bl	prvInsertTimerInActiveList
ARM GAS  /var/folders/0f/x4_g94q9649fs6s33cksjfb00000gn/T//ccYp9ESl.s 			page 14


 765 006c 0028     		cmp	r0, #0
 766 006e CDD0     		beq	.L101
 767 0070 236A     		ldr	r3, [r4, #32]
 768 0072 2046     		mov	r0, r4
 769 0074 9847     		blx	r3
 770 0076 94F82830 		ldrb	r3, [r4, #40]	@ zero_extendqisi2
 771 007a 13F0040F 		tst	r3, #4
 772 007e C5D0     		beq	.L101
 773 0080 A269     		ldr	r2, [r4, #24]
 774 0082 0021     		movs	r1, #0
 775 0084 0091     		str	r1, [sp]
 776 0086 0B46     		mov	r3, r1
 777 0088 0598     		ldr	r0, [sp, #20]
 778 008a 0244     		add	r2, r2, r0
 779 008c 2046     		mov	r0, r4
 780 008e FFF7FEFF 		bl	xTimerGenericCommand
 781 0092 0028     		cmp	r0, #0
 782 0094 BAD1     		bne	.L101
 783              		.syntax unified
 784              	@ 195 "Middlewares/Third_Party/FreeRTOS/Source/portable/GCC/ARM_CM7/r0p1/portmacro.h" 1
 785 0096 4FF05003 			mov r3, #80												
 786 009a 72B6     		cpsid i													
 787 009c 83F31188 		msr basepri, r3											
 788 00a0 BFF36F8F 		isb														
 789 00a4 BFF34F8F 		dsb														
 790 00a8 62B6     		cpsie i													
 791              	
 792              	@ 0 "" 2
 793              		.thumb
 794              		.syntax unified
 795              	.L110:
 796 00aa FEE7     		b	.L110
 797              	.L106:
 798 00ac 94F82830 		ldrb	r3, [r4, #40]	@ zero_extendqisi2
 799 00b0 23F00103 		bic	r3, r3, #1
 800 00b4 84F82830 		strb	r3, [r4, #40]
 801 00b8 A8E7     		b	.L101
 802              	.L104:
 803 00ba 94F82830 		ldrb	r3, [r4, #40]	@ zero_extendqisi2
 804 00be 43F00103 		orr	r3, r3, #1
 805 00c2 84F82830 		strb	r3, [r4, #40]
 806 00c6 0599     		ldr	r1, [sp, #20]
 807 00c8 A161     		str	r1, [r4, #24]
 808 00ca 29B1     		cbz	r1, .L119
 809 00cc 0346     		mov	r3, r0
 810 00ce 0144     		add	r1, r1, r0
 811 00d0 2046     		mov	r0, r4
 812 00d2 FFF7FEFF 		bl	prvInsertTimerInActiveList
 813 00d6 99E7     		b	.L101
 814              	.L119:
 815              		.syntax unified
 816              	@ 195 "Middlewares/Third_Party/FreeRTOS/Source/portable/GCC/ARM_CM7/r0p1/portmacro.h" 1
 817 00d8 4FF05003 			mov r3, #80												
 818 00dc 72B6     		cpsid i													
 819 00de 83F31188 		msr basepri, r3											
 820 00e2 BFF36F8F 		isb														
 821 00e6 BFF34F8F 		dsb														
ARM GAS  /var/folders/0f/x4_g94q9649fs6s33cksjfb00000gn/T//ccYp9ESl.s 			page 15


 822 00ea 62B6     		cpsie i													
 823              	
 824              	@ 0 "" 2
 825              		.thumb
 826              		.syntax unified
 827              	.L112:
 828 00ec FEE7     		b	.L112
 829              	.L108:
 830 00ee 94F82830 		ldrb	r3, [r4, #40]	@ zero_extendqisi2
 831 00f2 13F0020F 		tst	r3, #2
 832 00f6 04D0     		beq	.L120
 833 00f8 23F00103 		bic	r3, r3, #1
 834 00fc 84F82830 		strb	r3, [r4, #40]
 835 0100 84E7     		b	.L101
 836              	.L120:
 837 0102 2046     		mov	r0, r4
 838 0104 FFF7FEFF 		bl	vPortFree
 839 0108 80E7     		b	.L101
 840              	.L118:
 841 010a 08B0     		add	sp, sp, #32
 842              		@ sp needed
 843 010c 10BD     		pop	{r4, pc}
 844              	.L122:
 845 010e 00BF     		.align	2
 846              	.L121:
 847 0110 00000000 		.word	xTimerQueue
 849              		.section	.text.prvTimerTask,"ax",%progbits
 850              		.align	1
 851              		.syntax unified
 852              		.thumb
 853              		.thumb_func
 855              	prvTimerTask:
 856              		@ args = 0, pretend = 0, frame = 8
 857              		@ frame_needed = 0, uses_anonymous_args = 0
 858 0000 00B5     		push	{lr}
 859 0002 83B0     		sub	sp, sp, #12
 860              	.L124:
 861 0004 01A8     		add	r0, sp, #4
 862 0006 FFF7FEFF 		bl	prvGetNextExpireTime
 863 000a 0199     		ldr	r1, [sp, #4]
 864 000c FFF7FEFF 		bl	prvProcessTimerOrBlockTask
 865 0010 FFF7FEFF 		bl	prvProcessReceivedCommands
 866 0014 F6E7     		b	.L124
 868              		.section	.text.xTimerGetTimerDaemonTaskHandle,"ax",%progbits
 869              		.align	1
 870              		.global	xTimerGetTimerDaemonTaskHandle
 871              		.syntax unified
 872              		.thumb
 873              		.thumb_func
 875              	xTimerGetTimerDaemonTaskHandle:
 876              		@ args = 0, pretend = 0, frame = 0
 877              		@ frame_needed = 0, uses_anonymous_args = 0
 878              		@ link register save eliminated.
 879 0000 074B     		ldr	r3, .L130
 880 0002 1868     		ldr	r0, [r3]
 881 0004 00B1     		cbz	r0, .L129
 882 0006 7047     		bx	lr
ARM GAS  /var/folders/0f/x4_g94q9649fs6s33cksjfb00000gn/T//ccYp9ESl.s 			page 16


 883              	.L129:
 884              		.syntax unified
 885              	@ 195 "Middlewares/Third_Party/FreeRTOS/Source/portable/GCC/ARM_CM7/r0p1/portmacro.h" 1
 886 0008 4FF05003 			mov r3, #80												
 887 000c 72B6     		cpsid i													
 888 000e 83F31188 		msr basepri, r3											
 889 0012 BFF36F8F 		isb														
 890 0016 BFF34F8F 		dsb														
 891 001a 62B6     		cpsie i													
 892              	
 893              	@ 0 "" 2
 894              		.thumb
 895              		.syntax unified
 896              	.L128:
 897 001c FEE7     		b	.L128
 898              	.L131:
 899 001e 00BF     		.align	2
 900              	.L130:
 901 0020 00000000 		.word	xTimerTaskHandle
 903              		.section	.text.xTimerGetPeriod,"ax",%progbits
 904              		.align	1
 905              		.global	xTimerGetPeriod
 906              		.syntax unified
 907              		.thumb
 908              		.thumb_func
 910              	xTimerGetPeriod:
 911              		@ args = 0, pretend = 0, frame = 0
 912              		@ frame_needed = 0, uses_anonymous_args = 0
 913              		@ link register save eliminated.
 914 0000 08B1     		cbz	r0, .L135
 915 0002 8069     		ldr	r0, [r0, #24]
 916 0004 7047     		bx	lr
 917              	.L135:
 918              		.syntax unified
 919              	@ 195 "Middlewares/Third_Party/FreeRTOS/Source/portable/GCC/ARM_CM7/r0p1/portmacro.h" 1
 920 0006 4FF05003 			mov r3, #80												
 921 000a 72B6     		cpsid i													
 922 000c 83F31188 		msr basepri, r3											
 923 0010 BFF36F8F 		isb														
 924 0014 BFF34F8F 		dsb														
 925 0018 62B6     		cpsie i													
 926              	
 927              	@ 0 "" 2
 928              		.thumb
 929              		.syntax unified
 930              	.L134:
 931 001a FEE7     		b	.L134
 933              		.section	.text.vTimerSetReloadMode,"ax",%progbits
 934              		.align	1
 935              		.global	vTimerSetReloadMode
 936              		.syntax unified
 937              		.thumb
 938              		.thumb_func
 940              	vTimerSetReloadMode:
 941              		@ args = 0, pretend = 0, frame = 0
 942              		@ frame_needed = 0, uses_anonymous_args = 0
 943 0000 38B5     		push	{r3, r4, r5, lr}
ARM GAS  /var/folders/0f/x4_g94q9649fs6s33cksjfb00000gn/T//ccYp9ESl.s 			page 17


 944 0002 68B1     		cbz	r0, .L142
 945 0004 0C46     		mov	r4, r1
 946 0006 0546     		mov	r5, r0
 947 0008 FFF7FEFF 		bl	vPortEnterCritical
 948 000c 9CB1     		cbz	r4, .L139
 949 000e 95F82830 		ldrb	r3, [r5, #40]	@ zero_extendqisi2
 950 0012 43F00403 		orr	r3, r3, #4
 951 0016 85F82830 		strb	r3, [r5, #40]
 952              	.L140:
 953 001a FFF7FEFF 		bl	vPortExitCritical
 954 001e 38BD     		pop	{r3, r4, r5, pc}
 955              	.L142:
 956              		.syntax unified
 957              	@ 195 "Middlewares/Third_Party/FreeRTOS/Source/portable/GCC/ARM_CM7/r0p1/portmacro.h" 1
 958 0020 4FF05003 			mov r3, #80												
 959 0024 72B6     		cpsid i													
 960 0026 83F31188 		msr basepri, r3											
 961 002a BFF36F8F 		isb														
 962 002e BFF34F8F 		dsb														
 963 0032 62B6     		cpsie i													
 964              	
 965              	@ 0 "" 2
 966              		.thumb
 967              		.syntax unified
 968              	.L138:
 969 0034 FEE7     		b	.L138
 970              	.L139:
 971 0036 95F82830 		ldrb	r3, [r5, #40]	@ zero_extendqisi2
 972 003a 23F00403 		bic	r3, r3, #4
 973 003e 85F82830 		strb	r3, [r5, #40]
 974 0042 EAE7     		b	.L140
 976              		.section	.text.xTimerGetExpiryTime,"ax",%progbits
 977              		.align	1
 978              		.global	xTimerGetExpiryTime
 979              		.syntax unified
 980              		.thumb
 981              		.thumb_func
 983              	xTimerGetExpiryTime:
 984              		@ args = 0, pretend = 0, frame = 0
 985              		@ frame_needed = 0, uses_anonymous_args = 0
 986              		@ link register save eliminated.
 987 0000 08B1     		cbz	r0, .L146
 988 0002 4068     		ldr	r0, [r0, #4]
 989 0004 7047     		bx	lr
 990              	.L146:
 991              		.syntax unified
 992              	@ 195 "Middlewares/Third_Party/FreeRTOS/Source/portable/GCC/ARM_CM7/r0p1/portmacro.h" 1
 993 0006 4FF05003 			mov r3, #80												
 994 000a 72B6     		cpsid i													
 995 000c 83F31188 		msr basepri, r3											
 996 0010 BFF36F8F 		isb														
 997 0014 BFF34F8F 		dsb														
 998 0018 62B6     		cpsie i													
 999              	
 1000              	@ 0 "" 2
 1001              		.thumb
 1002              		.syntax unified
ARM GAS  /var/folders/0f/x4_g94q9649fs6s33cksjfb00000gn/T//ccYp9ESl.s 			page 18


 1003              	.L145:
 1004 001a FEE7     		b	.L145
 1006              		.section	.text.pcTimerGetName,"ax",%progbits
 1007              		.align	1
 1008              		.global	pcTimerGetName
 1009              		.syntax unified
 1010              		.thumb
 1011              		.thumb_func
 1013              	pcTimerGetName:
 1014              		@ args = 0, pretend = 0, frame = 0
 1015              		@ frame_needed = 0, uses_anonymous_args = 0
 1016              		@ link register save eliminated.
 1017 0000 08B1     		cbz	r0, .L150
 1018 0002 0068     		ldr	r0, [r0]
 1019 0004 7047     		bx	lr
 1020              	.L150:
 1021              		.syntax unified
 1022              	@ 195 "Middlewares/Third_Party/FreeRTOS/Source/portable/GCC/ARM_CM7/r0p1/portmacro.h" 1
 1023 0006 4FF05003 			mov r3, #80												
 1024 000a 72B6     		cpsid i													
 1025 000c 83F31188 		msr basepri, r3											
 1026 0010 BFF36F8F 		isb														
 1027 0014 BFF34F8F 		dsb														
 1028 0018 62B6     		cpsie i													
 1029              	
 1030              	@ 0 "" 2
 1031              		.thumb
 1032              		.syntax unified
 1033              	.L149:
 1034 001a FEE7     		b	.L149
 1036              		.section	.text.xTimerIsTimerActive,"ax",%progbits
 1037              		.align	1
 1038              		.global	xTimerIsTimerActive
 1039              		.syntax unified
 1040              		.thumb
 1041              		.thumb_func
 1043              	xTimerIsTimerActive:
 1044              		@ args = 0, pretend = 0, frame = 0
 1045              		@ frame_needed = 0, uses_anonymous_args = 0
 1046 0000 68B1     		cbz	r0, .L158
 1047 0002 10B5     		push	{r4, lr}
 1048 0004 0446     		mov	r4, r0
 1049 0006 FFF7FEFF 		bl	vPortEnterCritical
 1050 000a 94F82830 		ldrb	r3, [r4, #40]	@ zero_extendqisi2
 1051 000e 13F0010F 		tst	r3, #1
 1052 0012 0FD1     		bne	.L155
 1053 0014 0024     		movs	r4, #0
 1054              	.L154:
 1055 0016 FFF7FEFF 		bl	vPortExitCritical
 1056 001a 2046     		mov	r0, r4
 1057 001c 10BD     		pop	{r4, pc}
 1058              	.L158:
 1059              		.syntax unified
 1060              	@ 195 "Middlewares/Third_Party/FreeRTOS/Source/portable/GCC/ARM_CM7/r0p1/portmacro.h" 1
 1061 001e 4FF05003 			mov r3, #80												
 1062 0022 72B6     		cpsid i													
 1063 0024 83F31188 		msr basepri, r3											
ARM GAS  /var/folders/0f/x4_g94q9649fs6s33cksjfb00000gn/T//ccYp9ESl.s 			page 19


 1064 0028 BFF36F8F 		isb														
 1065 002c BFF34F8F 		dsb														
 1066 0030 62B6     		cpsie i													
 1067              	
 1068              	@ 0 "" 2
 1069              		.thumb
 1070              		.syntax unified
 1071              	.L153:
 1072 0032 FEE7     		b	.L153
 1073              	.L155:
 1074 0034 0124     		movs	r4, #1
 1075 0036 EEE7     		b	.L154
 1077              		.section	.text.pvTimerGetTimerID,"ax",%progbits
 1078              		.align	1
 1079              		.global	pvTimerGetTimerID
 1080              		.syntax unified
 1081              		.thumb
 1082              		.thumb_func
 1084              	pvTimerGetTimerID:
 1085              		@ args = 0, pretend = 0, frame = 0
 1086              		@ frame_needed = 0, uses_anonymous_args = 0
 1087 0000 40B1     		cbz	r0, .L164
 1088 0002 10B5     		push	{r4, lr}
 1089 0004 0446     		mov	r4, r0
 1090 0006 FFF7FEFF 		bl	vPortEnterCritical
 1091 000a E469     		ldr	r4, [r4, #28]
 1092 000c FFF7FEFF 		bl	vPortExitCritical
 1093 0010 2046     		mov	r0, r4
 1094 0012 10BD     		pop	{r4, pc}
 1095              	.L164:
 1096              		.syntax unified
 1097              	@ 195 "Middlewares/Third_Party/FreeRTOS/Source/portable/GCC/ARM_CM7/r0p1/portmacro.h" 1
 1098 0014 4FF05003 			mov r3, #80												
 1099 0018 72B6     		cpsid i													
 1100 001a 83F31188 		msr basepri, r3											
 1101 001e BFF36F8F 		isb														
 1102 0022 BFF34F8F 		dsb														
 1103 0026 62B6     		cpsie i													
 1104              	
 1105              	@ 0 "" 2
 1106              		.thumb
 1107              		.syntax unified
 1108              	.L161:
 1109 0028 FEE7     		b	.L161
 1111              		.section	.text.vTimerSetTimerID,"ax",%progbits
 1112              		.align	1
 1113              		.global	vTimerSetTimerID
 1114              		.syntax unified
 1115              		.thumb
 1116              		.thumb_func
 1118              	vTimerSetTimerID:
 1119              		@ args = 0, pretend = 0, frame = 0
 1120              		@ frame_needed = 0, uses_anonymous_args = 0
 1121 0000 38B5     		push	{r3, r4, r5, lr}
 1122 0002 38B1     		cbz	r0, .L169
 1123 0004 0C46     		mov	r4, r1
 1124 0006 0546     		mov	r5, r0
ARM GAS  /var/folders/0f/x4_g94q9649fs6s33cksjfb00000gn/T//ccYp9ESl.s 			page 20


 1125 0008 FFF7FEFF 		bl	vPortEnterCritical
 1126 000c EC61     		str	r4, [r5, #28]
 1127 000e FFF7FEFF 		bl	vPortExitCritical
 1128 0012 38BD     		pop	{r3, r4, r5, pc}
 1129              	.L169:
 1130              		.syntax unified
 1131              	@ 195 "Middlewares/Third_Party/FreeRTOS/Source/portable/GCC/ARM_CM7/r0p1/portmacro.h" 1
 1132 0014 4FF05003 			mov r3, #80												
 1133 0018 72B6     		cpsid i													
 1134 001a 83F31188 		msr basepri, r3											
 1135 001e BFF36F8F 		isb														
 1136 0022 BFF34F8F 		dsb														
 1137 0026 62B6     		cpsie i													
 1138              	
 1139              	@ 0 "" 2
 1140              		.thumb
 1141              		.syntax unified
 1142              	.L167:
 1143 0028 FEE7     		b	.L167
 1145              		.section	.text.xTimerPendFunctionCallFromISR,"ax",%progbits
 1146              		.align	1
 1147              		.global	xTimerPendFunctionCallFromISR
 1148              		.syntax unified
 1149              		.thumb
 1150              		.thumb_func
 1152              	xTimerPendFunctionCallFromISR:
 1153              		@ args = 0, pretend = 0, frame = 16
 1154              		@ frame_needed = 0, uses_anonymous_args = 0
 1155 0000 10B5     		push	{r4, lr}
 1156 0002 84B0     		sub	sp, sp, #16
 1157 0004 1446     		mov	r4, r2
 1158 0006 1A46     		mov	r2, r3
 1159 0008 6FF00103 		mvn	r3, #1
 1160 000c 0093     		str	r3, [sp]
 1161 000e 0190     		str	r0, [sp, #4]
 1162 0010 0291     		str	r1, [sp, #8]
 1163 0012 0394     		str	r4, [sp, #12]
 1164 0014 0023     		movs	r3, #0
 1165 0016 6946     		mov	r1, sp
 1166 0018 0248     		ldr	r0, .L172
 1167 001a 0068     		ldr	r0, [r0]
 1168 001c FFF7FEFF 		bl	xQueueGenericSendFromISR
 1169 0020 04B0     		add	sp, sp, #16
 1170              		@ sp needed
 1171 0022 10BD     		pop	{r4, pc}
 1172              	.L173:
 1173              		.align	2
 1174              	.L172:
 1175 0024 00000000 		.word	xTimerQueue
 1177              		.section	.text.xTimerPendFunctionCall,"ax",%progbits
 1178              		.align	1
 1179              		.global	xTimerPendFunctionCall
 1180              		.syntax unified
 1181              		.thumb
 1182              		.thumb_func
 1184              	xTimerPendFunctionCall:
 1185              		@ args = 0, pretend = 0, frame = 16
ARM GAS  /var/folders/0f/x4_g94q9649fs6s33cksjfb00000gn/T//ccYp9ESl.s 			page 21


 1186              		@ frame_needed = 0, uses_anonymous_args = 0
 1187 0000 30B5     		push	{r4, r5, lr}
 1188 0002 85B0     		sub	sp, sp, #20
 1189 0004 1446     		mov	r4, r2
 1190 0006 1A46     		mov	r2, r3
 1191 0008 0D4B     		ldr	r3, .L179
 1192 000a 1D68     		ldr	r5, [r3]
 1193 000c 65B1     		cbz	r5, .L178
 1194 000e 4FF0FF33 		mov	r3, #-1
 1195 0012 0093     		str	r3, [sp]
 1196 0014 0190     		str	r0, [sp, #4]
 1197 0016 0291     		str	r1, [sp, #8]
 1198 0018 0394     		str	r4, [sp, #12]
 1199 001a 0023     		movs	r3, #0
 1200 001c 6946     		mov	r1, sp
 1201 001e 2846     		mov	r0, r5
 1202 0020 FFF7FEFF 		bl	xQueueGenericSend
 1203 0024 05B0     		add	sp, sp, #20
 1204              		@ sp needed
 1205 0026 30BD     		pop	{r4, r5, pc}
 1206              	.L178:
 1207              		.syntax unified
 1208              	@ 195 "Middlewares/Third_Party/FreeRTOS/Source/portable/GCC/ARM_CM7/r0p1/portmacro.h" 1
 1209 0028 4FF05003 			mov r3, #80												
 1210 002c 72B6     		cpsid i													
 1211 002e 83F31188 		msr basepri, r3											
 1212 0032 BFF36F8F 		isb														
 1213 0036 BFF34F8F 		dsb														
 1214 003a 62B6     		cpsie i													
 1215              	
 1216              	@ 0 "" 2
 1217              		.thumb
 1218              		.syntax unified
 1219              	.L176:
 1220 003c FEE7     		b	.L176
 1221              	.L180:
 1222 003e 00BF     		.align	2
 1223              	.L179:
 1224 0040 00000000 		.word	xTimerQueue
 1226              		.section	.text.uxTimerGetTimerNumber,"ax",%progbits
 1227              		.align	1
 1228              		.global	uxTimerGetTimerNumber
 1229              		.syntax unified
 1230              		.thumb
 1231              		.thumb_func
 1233              	uxTimerGetTimerNumber:
 1234              		@ args = 0, pretend = 0, frame = 0
 1235              		@ frame_needed = 0, uses_anonymous_args = 0
 1236              		@ link register save eliminated.
 1237 0000 406A     		ldr	r0, [r0, #36]
 1238 0002 7047     		bx	lr
 1240              		.section	.text.vTimerSetTimerNumber,"ax",%progbits
 1241              		.align	1
 1242              		.global	vTimerSetTimerNumber
 1243              		.syntax unified
 1244              		.thumb
 1245              		.thumb_func
ARM GAS  /var/folders/0f/x4_g94q9649fs6s33cksjfb00000gn/T//ccYp9ESl.s 			page 22


 1247              	vTimerSetTimerNumber:
 1248              		@ args = 0, pretend = 0, frame = 0
 1249              		@ frame_needed = 0, uses_anonymous_args = 0
 1250              		@ link register save eliminated.
 1251 0000 4162     		str	r1, [r0, #36]
 1252 0002 7047     		bx	lr
 1254              		.section	.bss.xStaticTimerQueue.0,"aw",%nobits
 1255              		.align	2
 1258              	xStaticTimerQueue.0:
 1259 0000 00000000 		.space	80
 1259      00000000 
 1259      00000000 
 1259      00000000 
 1259      00000000 
 1260              		.section	.bss.ucStaticTimerQueueStorage.1,"aw",%nobits
 1261              		.align	2
 1264              	ucStaticTimerQueueStorage.1:
 1265 0000 00000000 		.space	160
 1265      00000000 
 1265      00000000 
 1265      00000000 
 1265      00000000 
 1266              		.section	.bss.xLastTime.2,"aw",%nobits
 1267              		.align	2
 1270              	xLastTime.2:
 1271 0000 00000000 		.space	4
 1272              		.section	.bss.xTimerTaskHandle,"aw",%nobits
 1273              		.align	2
 1276              	xTimerTaskHandle:
 1277 0000 00000000 		.space	4
 1278              		.section	.bss.xTimerQueue,"aw",%nobits
 1279              		.align	2
 1282              	xTimerQueue:
 1283 0000 00000000 		.space	4
 1284              		.section	.bss.pxOverflowTimerList,"aw",%nobits
 1285              		.align	2
 1288              	pxOverflowTimerList:
 1289 0000 00000000 		.space	4
 1290              		.section	.bss.pxCurrentTimerList,"aw",%nobits
 1291              		.align	2
 1294              	pxCurrentTimerList:
 1295 0000 00000000 		.space	4
 1296              		.section	.bss.xActiveTimerList2,"aw",%nobits
 1297              		.align	2
 1300              	xActiveTimerList2:
 1301 0000 00000000 		.space	20
 1301      00000000 
 1301      00000000 
 1301      00000000 
 1301      00000000 
 1302              		.section	.bss.xActiveTimerList1,"aw",%nobits
 1303              		.align	2
 1306              	xActiveTimerList1:
 1307 0000 00000000 		.space	20
 1307      00000000 
 1307      00000000 
 1307      00000000 
ARM GAS  /var/folders/0f/x4_g94q9649fs6s33cksjfb00000gn/T//ccYp9ESl.s 			page 23


 1307      00000000 
 1308              		.ident	"GCC: (Arm GNU Toolchain 14.2.Rel1 (Build arm-14.52)) 14.2.1 20241119"
ARM GAS  /var/folders/0f/x4_g94q9649fs6s33cksjfb00000gn/T//ccYp9ESl.s 			page 24

