ARM GAS  /var/folders/0f/x4_g94q9649fs6s33cksjfb00000gn/T//ccRYl6ya.s 			page 1


   1              		.cpu cortex-m7
   2              		.arch armv7e-m
   3              		.fpu fpv5-d16
   4              		.eabi_attribute 28, 1
   5              		.eabi_attribute 20, 1
   6              		.eabi_attribute 21, 1
   7              		.eabi_attribute 23, 3
   8              		.eabi_attribute 24, 1
   9              		.eabi_attribute 25, 1
  10              		.eabi_attribute 26, 1
  11              		.eabi_attribute 30, 1
  12              		.eabi_attribute 34, 1
  13              		.eabi_attribute 18, 4
  14              		.file	"usbd_cdc_if.c"
  15              		.text
  16              		.section	.text.CDC_DeInit_HS,"ax",%progbits
  17              		.align	1
  18              		.syntax unified
  19              		.thumb
  20              		.thumb_func
  22              	CDC_DeInit_HS:
  23              		@ args = 0, pretend = 0, frame = 0
  24              		@ frame_needed = 0, uses_anonymous_args = 0
  25              		@ link register save eliminated.
  26 0000 0020     		movs	r0, #0
  27 0002 7047     		bx	lr
  29              		.section	.text.CDC_TransmitCplt_HS,"ax",%progbits
  30              		.align	1
  31              		.syntax unified
  32              		.thumb
  33              		.thumb_func
  35              	CDC_TransmitCplt_HS:
  36              		@ args = 0, pretend = 0, frame = 0
  37              		@ frame_needed = 0, uses_anonymous_args = 0
  38              		@ link register save eliminated.
  39 0000 0020     		movs	r0, #0
  40 0002 7047     		bx	lr
  42              		.section	.text.CDC_Receive_HS,"ax",%progbits
  43              		.align	1
  44              		.syntax unified
  45              		.thumb
  46              		.thumb_func
  48              	CDC_Receive_HS:
  49              		@ args = 0, pretend = 0, frame = 0
  50              		@ frame_needed = 0, uses_anonymous_args = 0
  51 0000 38B5     		push	{r3, r4, r5, lr}
  52 0002 0446     		mov	r4, r0
  53 0004 6423     		movs	r3, #100
  54 0006 0A88     		ldrh	r2, [r1]
  55 0008 0146     		mov	r1, r0
  56 000a 0648     		ldr	r0, .L5
  57 000c FFF7FEFF 		bl	HAL_UART_Transmit
  58 0010 054D     		ldr	r5, .L5+4
  59 0012 2146     		mov	r1, r4
  60 0014 2846     		mov	r0, r5
  61 0016 FFF7FEFF 		bl	USBD_CDC_SetRxBuffer
  62 001a 2846     		mov	r0, r5
ARM GAS  /var/folders/0f/x4_g94q9649fs6s33cksjfb00000gn/T//ccRYl6ya.s 			page 2


  63 001c FFF7FEFF 		bl	USBD_CDC_ReceivePacket
  64 0020 0020     		movs	r0, #0
  65 0022 38BD     		pop	{r3, r4, r5, pc}
  66              	.L6:
  67              		.align	2
  68              	.L5:
  69 0024 00000000 		.word	huart5
  70 0028 00000000 		.word	hUsbDeviceHS
  72              		.section	.text.CDC_Control_HS,"ax",%progbits
  73              		.align	1
  74              		.syntax unified
  75              		.thumb
  76              		.thumb_func
  78              	CDC_Control_HS:
  79              		@ args = 0, pretend = 0, frame = 0
  80              		@ frame_needed = 0, uses_anonymous_args = 0
  81 0000 08B5     		push	{r3, lr}
  82 0002 2028     		cmp	r0, #32
  83 0004 0BD0     		beq	.L8
  84 0006 2128     		cmp	r0, #33
  85 0008 07D1     		bne	.L10
  86 000a 1A4B     		ldr	r3, .L22
  87 000c 5B68     		ldr	r3, [r3, #4]
  88 000e 0B60     		str	r3, [r1]
  89 0010 0023     		movs	r3, #0
  90 0012 0B71     		strb	r3, [r1, #4]
  91 0014 4B71     		strb	r3, [r1, #5]
  92 0016 0823     		movs	r3, #8
  93 0018 8B71     		strb	r3, [r1, #6]
  94              	.L10:
  95 001a 0020     		movs	r0, #0
  96 001c 08BD     		pop	{r3, pc}
  97              	.L8:
  98 001e 072A     		cmp	r2, #7
  99 0020 FBD1     		bne	.L10
 100 0022 0A68     		ldr	r2, [r1]
 101 0024 134B     		ldr	r3, .L22
 102 0026 5A60     		str	r2, [r3, #4]
 103 0028 0B79     		ldrb	r3, [r1, #4]	@ zero_extendqisi2
 104 002a 072B     		cmp	r3, #7
 105 002c 0FD0     		beq	.L19
 106 002e 0022     		movs	r2, #0
 107              	.L11:
 108 0030 104B     		ldr	r3, .L22
 109 0032 9A60     		str	r2, [r3, #8]
 110 0034 0B79     		ldrb	r3, [r1, #4]	@ zero_extendqisi2
 111 0036 022B     		cmp	r3, #2
 112 0038 0CD0     		beq	.L20
 113 003a 0022     		movs	r2, #0
 114              	.L12:
 115 003c 0D4B     		ldr	r3, .L22
 116 003e DA60     		str	r2, [r3, #12]
 117 0040 4B79     		ldrb	r3, [r1, #5]	@ zero_extendqisi2
 118 0042 6BB1     		cbz	r3, .L16
 119 0044 012B     		cmp	r3, #1
 120 0046 08D0     		beq	.L21
 121 0048 4FF48063 		mov	r3, #1024
ARM GAS  /var/folders/0f/x4_g94q9649fs6s33cksjfb00000gn/T//ccRYl6ya.s 			page 3


 122 004c 09E0     		b	.L13
 123              	.L19:
 124 004e 4FF08052 		mov	r2, #268435456
 125 0052 EDE7     		b	.L11
 126              	.L20:
 127 0054 4FF40052 		mov	r2, #8192
 128 0058 F0E7     		b	.L12
 129              	.L21:
 130 005a 4FF4C063 		mov	r3, #1536
 131 005e 00E0     		b	.L13
 132              	.L16:
 133 0060 0023     		movs	r3, #0
 134              	.L13:
 135 0062 0448     		ldr	r0, .L22
 136 0064 0361     		str	r3, [r0, #16]
 137 0066 FFF7FEFF 		bl	HAL_UART_Init
 138 006a 0028     		cmp	r0, #0
 139 006c D5D0     		beq	.L10
 140 006e FFF7FEFF 		bl	Error_Handler
 141 0072 D2E7     		b	.L10
 142              	.L23:
 143              		.align	2
 144              	.L22:
 145 0074 00000000 		.word	huart5
 147              		.section	.text.CDC_Init_HS,"ax",%progbits
 148              		.align	1
 149              		.syntax unified
 150              		.thumb
 151              		.thumb_func
 153              	CDC_Init_HS:
 154              		@ args = 0, pretend = 0, frame = 0
 155              		@ frame_needed = 0, uses_anonymous_args = 0
 156 0000 10B5     		push	{r4, lr}
 157 0002 064C     		ldr	r4, .L26
 158 0004 0022     		movs	r2, #0
 159 0006 0649     		ldr	r1, .L26+4
 160 0008 2046     		mov	r0, r4
 161 000a FFF7FEFF 		bl	USBD_CDC_SetTxBuffer
 162 000e 0549     		ldr	r1, .L26+8
 163 0010 2046     		mov	r0, r4
 164 0012 FFF7FEFF 		bl	USBD_CDC_SetRxBuffer
 165 0016 0020     		movs	r0, #0
 166 0018 10BD     		pop	{r4, pc}
 167              	.L27:
 168 001a 00BF     		.align	2
 169              	.L26:
 170 001c 00000000 		.word	hUsbDeviceHS
 171 0020 00000000 		.word	UserTxBufferHS
 172 0024 00000000 		.word	UserRxBufferHS
 174              		.section	.text.CDC_Transmit_HS,"ax",%progbits
 175              		.align	1
 176              		.global	CDC_Transmit_HS
 177              		.syntax unified
 178              		.thumb
 179              		.thumb_func
 181              	CDC_Transmit_HS:
 182              		@ args = 0, pretend = 0, frame = 0
ARM GAS  /var/folders/0f/x4_g94q9649fs6s33cksjfb00000gn/T//ccRYl6ya.s 			page 4


 183              		@ frame_needed = 0, uses_anonymous_args = 0
 184 0000 094B     		ldr	r3, .L36
 185 0002 D3F8BC32 		ldr	r3, [r3, #700]
 186 0006 D3F81432 		ldr	r3, [r3, #532]
 187 000a 0BB1     		cbz	r3, .L35
 188 000c 0120     		movs	r0, #1
 189 000e 7047     		bx	lr
 190              	.L35:
 191 0010 10B5     		push	{r4, lr}
 192 0012 054C     		ldr	r4, .L36
 193 0014 0A46     		mov	r2, r1
 194 0016 0146     		mov	r1, r0
 195 0018 2046     		mov	r0, r4
 196 001a FFF7FEFF 		bl	USBD_CDC_SetTxBuffer
 197 001e 2046     		mov	r0, r4
 198 0020 FFF7FEFF 		bl	USBD_CDC_TransmitPacket
 199 0024 10BD     		pop	{r4, pc}
 200              	.L37:
 201 0026 00BF     		.align	2
 202              	.L36:
 203 0028 00000000 		.word	hUsbDeviceHS
 205              		.section	.text.VCP_Read,"ax",%progbits
 206              		.align	1
 207              		.global	VCP_Read
 208              		.syntax unified
 209              		.thumb
 210              		.thumb_func
 212              	VCP_Read:
 213              		@ args = 0, pretend = 0, frame = 0
 214              		@ frame_needed = 0, uses_anonymous_args = 0
 215              		@ link register save eliminated.
 216 0000 8446     		mov	ip, r0
 217 0002 0020     		movs	r0, #0
 218 0004 8842     		cmp	r0, r1
 219 0006 17D2     		bcs	.L47
 220 0008 10B4     		push	{r4}
 221              	.L44:
 222 000a 0C4B     		ldr	r3, .L48
 223 000c 1A68     		ldr	r2, [r3]
 224 000e 0C4B     		ldr	r3, .L48+4
 225 0010 1B68     		ldr	r3, [r3]
 226 0012 9A42     		cmp	r2, r3
 227 0014 0DD0     		beq	.L38
 228 0016 094A     		ldr	r2, .L48
 229 0018 1368     		ldr	r3, [r2]
 230 001a 0A4C     		ldr	r4, .L48+8
 231 001c E35C     		ldrb	r3, [r4, r3]	@ zero_extendqisi2
 232 001e 0CF80030 		strb	r3, [ip, r0]
 233 0022 1368     		ldr	r3, [r2]
 234 0024 0133     		adds	r3, r3, #1
 235 0026 C3F30A03 		ubfx	r3, r3, #0, #11
 236 002a 1360     		str	r3, [r2]
 237 002c 0130     		adds	r0, r0, #1
 238 002e 8842     		cmp	r0, r1
 239 0030 EBD3     		bcc	.L44
 240              	.L38:
 241 0032 5DF8044B 		ldr	r4, [sp], #4
ARM GAS  /var/folders/0f/x4_g94q9649fs6s33cksjfb00000gn/T//ccRYl6ya.s 			page 5


 242 0036 7047     		bx	lr
 243              	.L47:
 244 0038 7047     		bx	lr
 245              	.L49:
 246 003a 00BF     		.align	2
 247              	.L48:
 248 003c 00000000 		.word	UserRxRingTail
 249 0040 00000000 		.word	UserRxRingHead
 250 0044 00000000 		.word	UserRxRingBuffer
 252              		.global	USBD_Interface_fops_HS
 253              		.section	.data.USBD_Interface_fops_HS,"aw"
 254              		.align	2
 257              	USBD_Interface_fops_HS:
 258 0000 00000000 		.word	CDC_Init_HS
 259 0004 00000000 		.word	CDC_DeInit_HS
 260 0008 00000000 		.word	CDC_Control_HS
 261 000c 00000000 		.word	CDC_Receive_HS
 262 0010 00000000 		.word	CDC_TransmitCplt_HS
 263              		.global	UserTxBufferHS
 264              		.section	.bss.UserTxBufferHS,"aw",%nobits
 265              		.align	2
 268              	UserTxBufferHS:
 269 0000 00000000 		.space	2048
 269      00000000 
 269      00000000 
 269      00000000 
 269      00000000 
 270              		.global	UserRxBufferHS
 271              		.section	.bss.UserRxBufferHS,"aw",%nobits
 272              		.align	2
 275              	UserRxBufferHS:
 276 0000 00000000 		.space	2048
 276      00000000 
 276      00000000 
 276      00000000 
 276      00000000 
 277              		.global	UserRxRingTail
 278              		.section	.bss.UserRxRingTail,"aw",%nobits
 279              		.align	2
 282              	UserRxRingTail:
 283 0000 00000000 		.space	4
 284              		.global	UserRxRingHead
 285              		.section	.bss.UserRxRingHead,"aw",%nobits
 286              		.align	2
 289              	UserRxRingHead:
 290 0000 00000000 		.space	4
 291              		.global	UserRxRingBuffer
 292              		.section	.bss.UserRxRingBuffer,"aw",%nobits
 293              		.align	2
 296              	UserRxRingBuffer:
 297 0000 00000000 		.space	2048
 297      00000000 
 297      00000000 
 297      00000000 
 297      00000000 
 298              		.ident	"GCC: (Arm GNU Toolchain 14.2.Rel1 (Build arm-14.52)) 14.2.1 20241119"
ARM GAS  /var/folders/0f/x4_g94q9649fs6s33cksjfb00000gn/T//ccRYl6ya.s 			page 6


DEFINED SYMBOLS
                            *ABS*:00000000 usbd_cdc_if.c
/var/folders/0f/x4_g94q9649fs6s33cksjfb00000gn/T//ccRYl6ya.s:17     .text.CDC_DeInit_HS:00000000 $t
/var/folders/0f/x4_g94q9649fs6s33cksjfb00000gn/T//ccRYl6ya.s:22     .text.CDC_DeInit_HS:00000000 CDC_DeInit_HS
/var/folders/0f/x4_g94q9649fs6s33cksjfb00000gn/T//ccRYl6ya.s:30     .text.CDC_TransmitCplt_HS:00000000 $t
/var/folders/0f/x4_g94q9649fs6s33cksjfb00000gn/T//ccRYl6ya.s:35     .text.CDC_TransmitCplt_HS:00000000 CDC_TransmitCplt_HS
/var/folders/0f/x4_g94q9649fs6s33cksjfb00000gn/T//ccRYl6ya.s:43     .text.CDC_Receive_HS:00000000 $t
/var/folders/0f/x4_g94q9649fs6s33cksjfb00000gn/T//ccRYl6ya.s:48     .text.CDC_Receive_HS:00000000 CDC_Receive_HS
/var/folders/0f/x4_g94q9649fs6s33cksjfb00000gn/T//ccRYl6ya.s:69     .text.CDC_Receive_HS:00000024 $d
/var/folders/0f/x4_g94q9649fs6s33cksjfb00000gn/T//ccRYl6ya.s:73     .text.CDC_Control_HS:00000000 $t
/var/folders/0f/x4_g94q9649fs6s33cksjfb00000gn/T//ccRYl6ya.s:78     .text.CDC_Control_HS:00000000 CDC_Control_HS
/var/folders/0f/x4_g94q9649fs6s33cksjfb00000gn/T//ccRYl6ya.s:145    .text.CDC_Control_HS:00000074 $d
/var/folders/0f/x4_g94q9649fs6s33cksjfb00000gn/T//ccRYl6ya.s:148    .text.CDC_Init_HS:00000000 $t
/var/folders/0f/x4_g94q9649fs6s33cksjfb00000gn/T//ccRYl6ya.s:153    .text.CDC_Init_HS:00000000 CDC_Init_HS
/var/folders/0f/x4_g94q9649fs6s33cksjfb00000gn/T//ccRYl6ya.s:170    .text.CDC_Init_HS:0000001c $d
/var/folders/0f/x4_g94q9649fs6s33cksjfb00000gn/T//ccRYl6ya.s:268    .bss.UserTxBufferHS:00000000 UserTxBufferHS
/var/folders/0f/x4_g94q9649fs6s33cksjfb00000gn/T//ccRYl6ya.s:275    .bss.UserRxBufferHS:00000000 UserRxBufferHS
/var/folders/0f/x4_g94q9649fs6s33cksjfb00000gn/T//ccRYl6ya.s:175    .text.CDC_Transmit_HS:00000000 $t
/var/folders/0f/x4_g94q9649fs6s33cksjfb00000gn/T//ccRYl6ya.s:181    .text.CDC_Transmit_HS:00000000 CDC_Transmit_HS
/var/folders/0f/x4_g94q9649fs6s33cksjfb00000gn/T//ccRYl6ya.s:203    .text.CDC_Transmit_HS:00000028 $d
/var/folders/0f/x4_g94q9649fs6s33cksjfb00000gn/T//ccRYl6ya.s:206    .text.VCP_Read:00000000 $t
/var/folders/0f/x4_g94q9649fs6s33cksjfb00000gn/T//ccRYl6ya.s:212    .text.VCP_Read:00000000 VCP_Read
/var/folders/0f/x4_g94q9649fs6s33cksjfb00000gn/T//ccRYl6ya.s:248    .text.VCP_Read:0000003c $d
/var/folders/0f/x4_g94q9649fs6s33cksjfb00000gn/T//ccRYl6ya.s:282    .bss.UserRxRingTail:00000000 UserRxRingTail
/var/folders/0f/x4_g94q9649fs6s33cksjfb00000gn/T//ccRYl6ya.s:289    .bss.UserRxRingHead:00000000 UserRxRingHead
/var/folders/0f/x4_g94q9649fs6s33cksjfb00000gn/T//ccRYl6ya.s:296    .bss.UserRxRingBuffer:00000000 UserRxRingBuffer
/var/folders/0f/x4_g94q9649fs6s33cksjfb00000gn/T//ccRYl6ya.s:257    .data.USBD_Interface_fops_HS:00000000 USBD_Interface_fops_HS
/var/folders/0f/x4_g94q9649fs6s33cksjfb00000gn/T//ccRYl6ya.s:254    .data.USBD_Interface_fops_HS:00000000 $d
/var/folders/0f/x4_g94q9649fs6s33cksjfb00000gn/T//ccRYl6ya.s:265    .bss.UserTxBufferHS:00000000 $d
/var/folders/0f/x4_g94q9649fs6s33cksjfb00000gn/T//ccRYl6ya.s:272    .bss.UserRxBufferHS:00000000 $d
/var/folders/0f/x4_g94q9649fs6s33cksjfb00000gn/T//ccRYl6ya.s:279    .bss.UserRxRingTail:00000000 $d
/var/folders/0f/x4_g94q9649fs6s33cksjfb00000gn/T//ccRYl6ya.s:286    .bss.UserRxRingHead:00000000 $d
/var/folders/0f/x4_g94q9649fs6s33cksjfb00000gn/T//ccRYl6ya.s:293    .bss.UserRxRingBuffer:00000000 $d

UNDEFINED SYMBOLS
HAL_UART_Transmit
USBD_CDC_SetRxBuffer
USBD_CDC_ReceivePacket
huart5
hUsbDeviceHS
HAL_UART_Init
Error_Handler
USBD_CDC_SetTxBuffer
USBD_CDC_TransmitPacket
