ARM GAS  /var/folders/0f/x4_g94q9649fs6s33cksjfb00000gn/T//ccpb2E1n.s 			page 1


   1              		.cpu cortex-m7
   2              		.arch armv7e-m
   3              		.fpu fpv5-d16
   4              		.eabi_attribute 28, 1
   5              		.eabi_attribute 20, 1
   6              		.eabi_attribute 21, 1
   7              		.eabi_attribute 23, 3
   8              		.eabi_attribute 24, 1
   9              		.eabi_attribute 25, 1
  10              		.eabi_attribute 26, 1
  11              		.eabi_attribute 30, 1
  12              		.eabi_attribute 34, 1
  13              		.eabi_attribute 18, 4
  14              		.file	"usbd_cdc_if.c"
  15              		.text
  16              		.section	.text.CDC_DeInit_HS,"ax",%progbits
  17              		.align	1
  18              		.syntax unified
  19              		.thumb
  20              		.thumb_func
  22              	CDC_DeInit_HS:
  23              		@ args = 0, pretend = 0, frame = 0
  24              		@ frame_needed = 0, uses_anonymous_args = 0
  25              		@ link register save eliminated.
  26 0000 0020     		movs	r0, #0
  27 0002 7047     		bx	lr
  29              		.section	.text.CDC_TransmitCplt_HS,"ax",%progbits
  30              		.align	1
  31              		.syntax unified
  32              		.thumb
  33              		.thumb_func
  35              	CDC_TransmitCplt_HS:
  36              		@ args = 0, pretend = 0, frame = 0
  37              		@ frame_needed = 0, uses_anonymous_args = 0
  38              		@ link register save eliminated.
  39 0000 0020     		movs	r0, #0
  40 0002 7047     		bx	lr
  42              		.section	.text.CDC_Control_HS,"ax",%progbits
  43              		.align	1
  44              		.syntax unified
  45              		.thumb
  46              		.thumb_func
  48              	CDC_Control_HS:
  49              		@ args = 0, pretend = 0, frame = 0
  50              		@ frame_needed = 0, uses_anonymous_args = 0
  51 0000 08B5     		push	{r3, lr}
  52 0002 2028     		cmp	r0, #32
  53 0004 0BD0     		beq	.L4
  54 0006 2128     		cmp	r0, #33
  55 0008 07D1     		bne	.L6
  56 000a 1A4B     		ldr	r3, .L18
  57 000c 5B68     		ldr	r3, [r3, #4]
  58 000e 0B60     		str	r3, [r1]
  59 0010 0023     		movs	r3, #0
  60 0012 0B71     		strb	r3, [r1, #4]
  61 0014 4B71     		strb	r3, [r1, #5]
  62 0016 0823     		movs	r3, #8
ARM GAS  /var/folders/0f/x4_g94q9649fs6s33cksjfb00000gn/T//ccpb2E1n.s 			page 2


  63 0018 8B71     		strb	r3, [r1, #6]
  64              	.L6:
  65 001a 0020     		movs	r0, #0
  66 001c 08BD     		pop	{r3, pc}
  67              	.L4:
  68 001e 072A     		cmp	r2, #7
  69 0020 FBD1     		bne	.L6
  70 0022 0A68     		ldr	r2, [r1]
  71 0024 134B     		ldr	r3, .L18
  72 0026 5A60     		str	r2, [r3, #4]
  73 0028 0B79     		ldrb	r3, [r1, #4]	@ zero_extendqisi2
  74 002a 072B     		cmp	r3, #7
  75 002c 0FD0     		beq	.L15
  76 002e 0022     		movs	r2, #0
  77              	.L7:
  78 0030 104B     		ldr	r3, .L18
  79 0032 9A60     		str	r2, [r3, #8]
  80 0034 0B79     		ldrb	r3, [r1, #4]	@ zero_extendqisi2
  81 0036 022B     		cmp	r3, #2
  82 0038 0CD0     		beq	.L16
  83 003a 0022     		movs	r2, #0
  84              	.L8:
  85 003c 0D4B     		ldr	r3, .L18
  86 003e DA60     		str	r2, [r3, #12]
  87 0040 4B79     		ldrb	r3, [r1, #5]	@ zero_extendqisi2
  88 0042 6BB1     		cbz	r3, .L12
  89 0044 012B     		cmp	r3, #1
  90 0046 08D0     		beq	.L17
  91 0048 4FF48063 		mov	r3, #1024
  92 004c 09E0     		b	.L9
  93              	.L15:
  94 004e 4FF08052 		mov	r2, #268435456
  95 0052 EDE7     		b	.L7
  96              	.L16:
  97 0054 4FF40052 		mov	r2, #8192
  98 0058 F0E7     		b	.L8
  99              	.L17:
 100 005a 4FF4C063 		mov	r3, #1536
 101 005e 00E0     		b	.L9
 102              	.L12:
 103 0060 0023     		movs	r3, #0
 104              	.L9:
 105 0062 0448     		ldr	r0, .L18
 106 0064 0361     		str	r3, [r0, #16]
 107 0066 FFF7FEFF 		bl	HAL_UART_Init
 108 006a 0028     		cmp	r0, #0
 109 006c D5D0     		beq	.L6
 110 006e FFF7FEFF 		bl	Error_Handler
 111 0072 D2E7     		b	.L6
 112              	.L19:
 113              		.align	2
 114              	.L18:
 115 0074 00000000 		.word	huart5
 117              		.section	.text.CDC_Init_HS,"ax",%progbits
 118              		.align	1
 119              		.syntax unified
 120              		.thumb
ARM GAS  /var/folders/0f/x4_g94q9649fs6s33cksjfb00000gn/T//ccpb2E1n.s 			page 3


 121              		.thumb_func
 123              	CDC_Init_HS:
 124              		@ args = 0, pretend = 0, frame = 0
 125              		@ frame_needed = 0, uses_anonymous_args = 0
 126 0000 10B5     		push	{r4, lr}
 127 0002 064C     		ldr	r4, .L22
 128 0004 0022     		movs	r2, #0
 129 0006 0649     		ldr	r1, .L22+4
 130 0008 2046     		mov	r0, r4
 131 000a FFF7FEFF 		bl	USBD_CDC_SetTxBuffer
 132 000e 0549     		ldr	r1, .L22+8
 133 0010 2046     		mov	r0, r4
 134 0012 FFF7FEFF 		bl	USBD_CDC_SetRxBuffer
 135 0016 0020     		movs	r0, #0
 136 0018 10BD     		pop	{r4, pc}
 137              	.L23:
 138 001a 00BF     		.align	2
 139              	.L22:
 140 001c 00000000 		.word	hUsbDeviceHS
 141 0020 00000000 		.word	UserTxBufferHS
 142 0024 00000000 		.word	UserRxBufferHS
 144              		.section	.text.CDC_Transmit_HS,"ax",%progbits
 145              		.align	1
 146              		.global	CDC_Transmit_HS
 147              		.syntax unified
 148              		.thumb
 149              		.thumb_func
 151              	CDC_Transmit_HS:
 152              		@ args = 0, pretend = 0, frame = 0
 153              		@ frame_needed = 0, uses_anonymous_args = 0
 154 0000 094B     		ldr	r3, .L32
 155 0002 D3F8BC32 		ldr	r3, [r3, #700]
 156 0006 D3F81432 		ldr	r3, [r3, #532]
 157 000a 0BB1     		cbz	r3, .L31
 158 000c 0120     		movs	r0, #1
 159 000e 7047     		bx	lr
 160              	.L31:
 161 0010 10B5     		push	{r4, lr}
 162 0012 054C     		ldr	r4, .L32
 163 0014 0A46     		mov	r2, r1
 164 0016 0146     		mov	r1, r0
 165 0018 2046     		mov	r0, r4
 166 001a FFF7FEFF 		bl	USBD_CDC_SetTxBuffer
 167 001e 2046     		mov	r0, r4
 168 0020 FFF7FEFF 		bl	USBD_CDC_TransmitPacket
 169 0024 10BD     		pop	{r4, pc}
 170              	.L33:
 171 0026 00BF     		.align	2
 172              	.L32:
 173 0028 00000000 		.word	hUsbDeviceHS
 175              		.section	.rodata.CDC_Receive_HS.str1.4,"aMS",%progbits,1
 176              		.align	2
 177              	.LC0:
 178 0000 41544456 		.ascii	"ATDV?\000"
 178      3F00
 179 0006 0000     		.align	2
 180              	.LC1:
ARM GAS  /var/folders/0f/x4_g94q9649fs6s33cksjfb00000gn/T//ccpb2E1n.s 			page 4


 181 0008 0D0A762E 		.ascii	"\015\012v.1.35.01 2026.01.20\015\012\000"
 181      312E3335 
 181      2E303120 
 181      32303236 
 181      2E30312E 
 182              		.section	.text.CDC_Receive_HS,"ax",%progbits
 183              		.align	1
 184              		.syntax unified
 185              		.thumb
 186              		.thumb_func
 188              	CDC_Receive_HS:
 189              		@ args = 0, pretend = 0, frame = 0
 190              		@ frame_needed = 0, uses_anonymous_args = 0
 191 0000 38B5     		push	{r3, r4, r5, lr}
 192 0002 0446     		mov	r4, r0
 193 0004 6423     		movs	r3, #100
 194 0006 0A88     		ldrh	r2, [r1]
 195 0008 0146     		mov	r1, r0
 196 000a 0C48     		ldr	r0, .L38
 197 000c FFF7FEFF 		bl	HAL_UART_Transmit
 198 0010 0522     		movs	r2, #5
 199 0012 0B49     		ldr	r1, .L38+4
 200 0014 2046     		mov	r0, r4
 201 0016 FFF7FEFF 		bl	strncmp
 202 001a 48B1     		cbz	r0, .L37
 203              	.L35:
 204 001c 094D     		ldr	r5, .L38+8
 205 001e 2146     		mov	r1, r4
 206 0020 2846     		mov	r0, r5
 207 0022 FFF7FEFF 		bl	USBD_CDC_SetRxBuffer
 208 0026 2846     		mov	r0, r5
 209 0028 FFF7FEFF 		bl	USBD_CDC_ReceivePacket
 210 002c 0020     		movs	r0, #0
 211 002e 38BD     		pop	{r3, r4, r5, pc}
 212              	.L37:
 213 0030 1821     		movs	r1, #24
 214 0032 0548     		ldr	r0, .L38+12
 215 0034 FFF7FEFF 		bl	CDC_Transmit_HS
 216 0038 F0E7     		b	.L35
 217              	.L39:
 218 003a 00BF     		.align	2
 219              	.L38:
 220 003c 00000000 		.word	huart5
 221 0040 00000000 		.word	.LC0
 222 0044 00000000 		.word	hUsbDeviceHS
 223 0048 08000000 		.word	.LC1
 225              		.section	.text.VCP_Read,"ax",%progbits
 226              		.align	1
 227              		.global	VCP_Read
 228              		.syntax unified
 229              		.thumb
 230              		.thumb_func
 232              	VCP_Read:
 233              		@ args = 0, pretend = 0, frame = 0
 234              		@ frame_needed = 0, uses_anonymous_args = 0
 235              		@ link register save eliminated.
 236 0000 8446     		mov	ip, r0
ARM GAS  /var/folders/0f/x4_g94q9649fs6s33cksjfb00000gn/T//ccpb2E1n.s 			page 5


 237 0002 0020     		movs	r0, #0
 238 0004 8842     		cmp	r0, r1
 239 0006 17D2     		bcs	.L49
 240 0008 10B4     		push	{r4}
 241              	.L46:
 242 000a 0C4B     		ldr	r3, .L50
 243 000c 1A68     		ldr	r2, [r3]
 244 000e 0C4B     		ldr	r3, .L50+4
 245 0010 1B68     		ldr	r3, [r3]
 246 0012 9A42     		cmp	r2, r3
 247 0014 0DD0     		beq	.L40
 248 0016 094A     		ldr	r2, .L50
 249 0018 1368     		ldr	r3, [r2]
 250 001a 0A4C     		ldr	r4, .L50+8
 251 001c E35C     		ldrb	r3, [r4, r3]	@ zero_extendqisi2
 252 001e 0CF80030 		strb	r3, [ip, r0]
 253 0022 1368     		ldr	r3, [r2]
 254 0024 0133     		adds	r3, r3, #1
 255 0026 C3F30A03 		ubfx	r3, r3, #0, #11
 256 002a 1360     		str	r3, [r2]
 257 002c 0130     		adds	r0, r0, #1
 258 002e 8842     		cmp	r0, r1
 259 0030 EBD3     		bcc	.L46
 260              	.L40:
 261 0032 5DF8044B 		ldr	r4, [sp], #4
 262 0036 7047     		bx	lr
 263              	.L49:
 264 0038 7047     		bx	lr
 265              	.L51:
 266 003a 00BF     		.align	2
 267              	.L50:
 268 003c 00000000 		.word	UserRxRingTail
 269 0040 00000000 		.word	UserRxRingHead
 270 0044 00000000 		.word	UserRxRingBuffer
 272              		.global	USBD_Interface_fops_HS
 273              		.section	.data.USBD_Interface_fops_HS,"aw"
 274              		.align	2
 277              	USBD_Interface_fops_HS:
 278 0000 00000000 		.word	CDC_Init_HS
 279 0004 00000000 		.word	CDC_DeInit_HS
 280 0008 00000000 		.word	CDC_Control_HS
 281 000c 00000000 		.word	CDC_Receive_HS
 282 0010 00000000 		.word	CDC_TransmitCplt_HS
 283              		.global	UserTxBufferHS
 284              		.section	.bss.UserTxBufferHS,"aw",%nobits
 285              		.align	2
 288              	UserTxBufferHS:
 289 0000 00000000 		.space	2048
 289      00000000 
 289      00000000 
 289      00000000 
 289      00000000 
 290              		.global	UserRxBufferHS
 291              		.section	.bss.UserRxBufferHS,"aw",%nobits
 292              		.align	2
 295              	UserRxBufferHS:
 296 0000 00000000 		.space	2048
ARM GAS  /var/folders/0f/x4_g94q9649fs6s33cksjfb00000gn/T//ccpb2E1n.s 			page 6


 296      00000000 
 296      00000000 
 296      00000000 
 296      00000000 
 297              		.global	UserRxRingTail
 298              		.section	.bss.UserRxRingTail,"aw",%nobits
 299              		.align	2
 302              	UserRxRingTail:
 303 0000 00000000 		.space	4
 304              		.global	UserRxRingHead
 305              		.section	.bss.UserRxRingHead,"aw",%nobits
 306              		.align	2
 309              	UserRxRingHead:
 310 0000 00000000 		.space	4
 311              		.global	UserRxRingBuffer
 312              		.section	.bss.UserRxRingBuffer,"aw",%nobits
 313              		.align	2
 316              	UserRxRingBuffer:
 317 0000 00000000 		.space	2048
 317      00000000 
 317      00000000 
 317      00000000 
 317      00000000 
 318              		.ident	"GCC: (Arm GNU Toolchain 14.2.Rel1 (Build arm-14.52)) 14.2.1 20241119"
ARM GAS  /var/folders/0f/x4_g94q9649fs6s33cksjfb00000gn/T//ccpb2E1n.s 			page 7

